

Microchip MPLAB XC8 Assembler V2.32 build 20210201212658 
                                                                                               Mon Nov 22 11:56:27 2021

Microchip MPLAB XC8 C Compiler v2.32 (Free license) build 20210201212658 Og1 
     1                           	processor	18F4550
     2                           	fnconf	rparam,??,?,0
     3                           	pagewidth 120
     4                           	opt	flic
     5                           	psect	idataBIGRAM,global,class=CODE,delta=1,noexec
     6                           	psect	idataBANK0,global,class=CODE,delta=1,noexec
     7                           	psect	smallconst,global,reloc=2,class=SMALLCONST,delta=1,noexec
     8                           	psect	nvBANK0,global,class=BANK0,space=1,delta=1,lowdata,noexec
     9                           	psect	cinit,global,reloc=2,class=CODE,delta=1
    10                           	psect	bssBANK0,global,class=BANK0,space=1,delta=1,lowdata,noexec
    11                           	psect	dataBANK0,global,class=BANK0,space=1,delta=1,lowdata,noexec
    12                           	psect	dataBIGRAM,global,class=BIGRAM,space=1,delta=1,noexec
    13                           	psect	cstackBANK0,global,class=BANK0,space=1,delta=1,lowdata,noexec
    14                           	psect	cstackCOMRAM,global,class=COMRAM,space=1,delta=1,lowdata,noexec
    15                           	psect	text0,global,reloc=2,class=CODE,delta=1
    16                           	psect	text1,global,reloc=2,class=CODE,delta=1
    17                           	psect	text2,global,reloc=2,class=CODE,delta=1
    18                           	psect	text3,global,reloc=2,class=CODE,delta=1
    19                           	psect	text4,global,reloc=2,class=CODE,delta=1
    20                           	psect	text5,global,reloc=2,class=CODE,delta=1,group=3
    21                           	psect	text6,global,reloc=2,class=CODE,delta=1,group=1
    22                           	psect	text7,global,reloc=2,class=CODE,delta=1,group=1
    23                           	psect	text8,global,reloc=2,class=CODE,delta=1,group=1
    24                           	psect	text9,global,reloc=2,class=CODE,delta=1,group=1
    25                           	psect	text10,global,reloc=2,class=CODE,delta=1,group=3
    26                           	psect	text11,global,reloc=2,class=CODE,delta=1,group=3
    27                           	psect	text12,global,reloc=2,class=CODE,delta=1,group=3
    28                           	psect	text13,global,reloc=2,class=CODE,delta=1,group=3
    29                           	psect	text14,global,reloc=2,class=CODE,delta=1,group=3
    30                           	psect	text15,global,reloc=2,class=CODE,delta=1,group=2
    31                           	psect	text16,global,reloc=2,class=CODE,delta=1,group=2
    32                           	psect	text17,global,reloc=2,class=CODE,delta=1
    33                           	psect	text18,global,reloc=2,class=CODE,delta=1,group=2
    34                           	psect	text19,global,reloc=2,class=CODE,delta=1,group=2
    35                           	psect	text20,global,reloc=2,class=CODE,delta=1,group=2
    36                           	psect	text21,global,reloc=2,class=CODE,delta=1,group=2
    37                           	psect	text22,global,reloc=2,class=CODE,delta=1,group=2
    38                           	psect	text23,global,reloc=2,class=CODE,delta=1
    39                           	psect	text24,global,reloc=2,class=CODE,delta=1
    40                           	psect	text25,global,reloc=2,class=CODE,delta=1,group=2
    41                           	psect	text26,global,reloc=2,class=CODE,delta=1,group=2
    42                           	psect	text27,global,reloc=2,class=CODE,delta=1,group=2
    43                           	psect	text28,global,reloc=2,class=CODE,delta=1,group=2
    44                           	psect	text29,global,reloc=2,class=CODE,delta=1,group=2
    45                           	psect	text30,global,reloc=2,class=CODE,delta=1
    46                           	psect	text31,global,reloc=2,class=CODE,delta=1
    47                           	psect	text32,global,reloc=2,class=CODE,delta=1
    48                           	psect	text33,global,reloc=2,class=CODE,delta=1
    49                           	psect	text34,global,reloc=2,class=CODE,delta=1
    50                           	psect	text35,global,reloc=2,class=CODE,delta=1
    51                           	psect	text36,global,reloc=2,class=CODE,delta=1
    52                           	psect	text37,global,reloc=2,class=CODE,delta=1
    53                           	psect	text38,global,reloc=2,class=CODE,delta=1
    54                           	psect	text39,global,reloc=2,class=CODE,delta=1
    55                           	psect	text40,global,reloc=2,class=CODE,delta=1
    56                           	psect	intsave_regs,global,class=BIGRAM,space=1,delta=1,noexec
    57                           	psect	rparam,global,class=COMRAM,space=1,delta=1,noexec
    58                           	psect	idloc,global,abs,ovrld,class=IDLOC,space=5,delta=1,noexec
    59                           	psect	config,global,abs,ovrld,class=CONFIG,space=4,delta=1,noexec
    60  0000                     
    61                           ; Version 2.20
    62                           ; Generated 12/02/2020 GMT
    63                           ; 
    64                           ; Copyright © 2020, Microchip Technology Inc. and its subsidiaries ("Microchip")
    65                           ; All rights reserved.
    66                           ; 
    67                           ; This software is developed by Microchip Technology Inc. and its subsidiaries ("Microch
      +                          ip").
    68                           ; 
    69                           ; Redistribution and use in source and binary forms, with or without modification, are
    70                           ; permitted provided that the following conditions are met:
    71                           ; 
    72                           ;     1. Redistributions of source code must retain the above copyright notice, this lis
      +                          t of
    73                           ;        conditions and the following disclaimer.
    74                           ; 
    75                           ;     2. Redistributions in binary form must reproduce the above copyright notice, this 
      +                          list
    76                           ;        of conditions and the following disclaimer in the documentation and/or other
    77                           ;        materials provided with the distribution.
    78                           ; 
    79                           ;     3. Microchip's name may not be used to endorse or promote products derived from th
      +                          is
    80                           ;        software without specific prior written permission.
    81                           ; 
    82                           ; THIS SOFTWARE IS PROVIDED BY MICROCHIP "AS IS" AND ANY EXPRESS OR IMPLIED WARRANTIES,
    83                           ; INCLUDING, BUT NOT LIMITED TO, THE IMPLIED WARRANTIES OF MERCHANTABILITY AND FITNESS F
      +                          OR
    84                           ; PURPOSE ARE DISCLAIMED.  IN NO EVENT SHALL MICROCHIP BE LIABLE FOR ANY DIRECT, INDIREC
      +                          T,
    85                           ; INCIDENTAL, SPECIAL, EXEMPLARY, OR CONSEQUENTIAL DAMAGES (INCLUDING BUT NOT LIMITED TO
    86                           ; PROCUREMENT OF SUBSTITUTE GOODS OR SERVICES; LOSS OF USE, DATA OR PROFITS; OR BUSINESS
    87                           ; INTERRUPTION) HOWSOEVER CAUSED AND ON ANY THEORY OF LIABILITY, WHETHER IN CONTRACT, ST
      +                          RICT
    88                           ; LIABILITY, OR TORT (INCLUDING NEGLIGENCE OR OTHERWISE) ARISING IN ANY WAY OUT OF THE U
      +                          SE OF
    89                           ; THIS SOFTWARE, EVEN IF ADVISED OF THE POSSIBILITY OF SUCH DAMAGE.
    90                           ; 
    91                           ; 
    92                           ; Code-generator required, PIC18F4550 Definitions
    93                           ; 
    94                           ; SFR Addresses
    95  0000                     
    96                           	psect	idataBIGRAM
    97  002944                     __pidataBIGRAM:
    98                           	callstack 0
    99                           
   100                           ;initializer for _cancion
   101  002944  0000               	dw	0
   102  002946  3F80               	dw	16256
   103  002948  2D0E               	dw	11534
   104  00294A  4042               	dw	16450
   105  00294C  0000               	dw	0
   106  00294E  3F80               	dw	16256
   107  002950  0000               	dw	0
   108  002952  3F80               	dw	16256
   109  002954  2D0E               	dw	11534
   110  002956  4042               	dw	16450
   111  002958  0000               	dw	0
   112  00295A  3F80               	dw	16256
   113  00295C  0000               	dw	0
   114  00295E  3F80               	dw	16256
   115  002960  2D0E               	dw	11534
   116  002962  4042               	dw	16450
   117  002964  0000               	dw	0
   118  002966  3F80               	dw	16256
   119  002968  0000               	dw	0
   120  00296A  3F40               	dw	16192
   121  00296C  7AE1               	dw	31457
   122  00296E  4074               	dw	16500
   123  002970  0000               	dw	0
   124  002972  3F80               	dw	16256
   125  002974  0000               	dw	0
   126  002976  3E80               	dw	16000
   127  002978  3333               	dw	13107
   128  00297A  4023               	dw	16419
   129  00297C  0000               	dw	0
   130  00297E  3F80               	dw	16256
   131  002980  0000               	dw	0
   132  002982  3F80               	dw	16256
   133  002984  2D0E               	dw	11534
   134  002986  4042               	dw	16450
   135  002988  0000               	dw	0
   136  00298A  3F80               	dw	16256
   137  00298C  0000               	dw	0
   138  00298E  3F40               	dw	16192
   139  002990  7AE1               	dw	31457
   140  002992  4074               	dw	16500
   141  002994  0000               	dw	0
   142  002996  3F80               	dw	16256
   143  002998  0000               	dw	0
   144  00299A  3E80               	dw	16000
   145  00299C  4396               	dw	17302
   146  00299E  4023               	dw	16419
   147  0029A0  0000               	dw	0
   148  0029A2  3F80               	dw	16256
   149  0029A4  0000               	dw	0
   150  0029A6  3F80               	dw	16256
   151  0029A8  2D0E               	dw	11534
   152  0029AA  4042               	dw	16450
   153  0029AC  0000               	dw	0
   154  0029AE  3F80               	dw	16256
   155  0029B0  0000               	dw	0
   156  0029B2  3F80               	dw	16256
   157  0029B4  CAC1               	dw	51905
   158  0029B6  4001               	dw	16385
   159  0029B8  0000               	dw	0
   160  0029BA  3F80               	dw	16256
   161  0029BC  0000               	dw	0
   162  0029BE  3F80               	dw	16256
   163  0029C0  CAC1               	dw	51905
   164  0029C2  4001               	dw	16385
   165  0029C4  0000               	dw	0
   166  0029C6  3F80               	dw	16256
   167  0029C8  0000               	dw	0
   168  0029CA  3F80               	dw	16256
   169  0029CC  CAC1               	dw	51905
   170  0029CE  4001               	dw	16385
   171  0029D0  0000               	dw	0
   172  0029D2  3F80               	dw	16256
   173  0029D4  0000               	dw	0
   174  0029D6  3F40               	dw	16192
   175  0029D8  9BA6               	dw	39846
   176  0029DA  3FF4               	dw	16372
   177  0029DC  0000               	dw	0
   178  0029DE  3F80               	dw	16256
   179  0029E0  0000               	dw	0
   180  0029E2  3E80               	dw	16000
   181  0029E4  4396               	dw	17302
   182  0029E6  4023               	dw	16419
   183  0029E8  0000               	dw	0
   184  0029EA  3F80               	dw	16256
   185  0029EC  0000               	dw	0
   186  0029EE  3F80               	dw	16256
   187  0029F0  0A3D               	dw	2621
   188  0029F2  4067               	dw	16487
   189  0029F4  0000               	dw	0
   190  0029F6  3F80               	dw	16256
   191  0029F8  0000               	dw	0
   192  0029FA  3F40               	dw	16192
   193  0029FC  7AE1               	dw	31457
   194  0029FE  4074               	dw	16500
   195  002A00  0000               	dw	0
   196  002A02  3F80               	dw	16256
   197  002A04  0000               	dw	0
   198  002A06  3E80               	dw	16000
   199  002A08  4396               	dw	17302
   200  002A0A  4023               	dw	16419
   201  002A0C  0000               	dw	0
   202  002A0E  3F80               	dw	16256
   203  002A10  0000               	dw	0
   204  002A12  3F80               	dw	16256
   205  002A14  2D0E               	dw	11534
   206  002A16  4042               	dw	16450
   207  002A18  0000               	dw	0
   208  002A1A  3F80               	dw	16256
   209  002A1C  0000               	dw	0
   210  002A1E  3F80               	dw	16256
   211  002A20  2D0E               	dw	11534
   212  002A22  3FC2               	dw	16322
   213  002A24  0000               	dw	0
   214  002A26  3F80               	dw	16256
   215  002A28  0000               	dw	0
   216  002A2A  3F40               	dw	16192
   217  002A2C  2D0E               	dw	11534
   218  002A2E  4042               	dw	16450
   219  002A30  0000               	dw	0
   220  002A32  3F80               	dw	16256
   221  002A34  0000               	dw	0
   222  002A36  3E80               	dw	16000
   223  002A38  2D0E               	dw	11534
   224  002A3A  4042               	dw	16450
   225  002A3C  0000               	dw	0
   226  002A3E  3F80               	dw	16256
   227  002A40  0000               	dw	0
   228  002A42  3F80               	dw	16256
   229  002A44  2D0E               	dw	11534
   230  002A46  3FC2               	dw	16322
   231  002A48  0000               	dw	0
   232  002A4A  3F80               	dw	16256
   233  002A4C  0000               	dw	0
   234  002A4E  3F40               	dw	16192
   235  002A50  B22D               	dw	45613
   236  002A52  3FCD               	dw	16333
   237  002A54  0000               	dw	0
   238  002A56  3F80               	dw	16256
   239  002A58  0000               	dw	0
   240  002A5A  3E80               	dw	16000
   241  002A5C  FBE7               	dw	64487
   242  002A5E  3FD9               	dw	16345
   243  002A60  0000               	dw	0
   244  002A62  3F80               	dw	16256
   245  002A64  0000               	dw	0
   246  002A66  3E80               	dw	16000
   247  002A68  E979               	dw	59769
   248  002A6A  3FE6               	dw	16358
   249  002A6C  0000               	dw	0
   250  002A6E  3F80               	dw	16256
   251  002A70  0000               	dw	0
   252  002A72  3E80               	dw	16000
   253  002A74  9BA6               	dw	39846
   254  002A76  3FF4               	dw	16372
   255  002A78  0000               	dw	0
   256  002A7A  3F80               	dw	16256
   257  002A7C  999A               	dw	39322
   258  002A7E  3F19               	dw	16153
   259  002A80  E979               	dw	59769
   260  002A82  3FE6               	dw	16358
   261  002A84  0000               	dw	0
   262  002A86  3F80               	dw	16256
   263  002A88  CCCD               	dw	52429
   264  002A8A  3E4C               	dw	15948
   265  002A8C  0000               	dw	0
   266  002A8E  3F80               	dw	16256
   267  002A90  0000               	dw	0
   268  002A92  0000               	dw	0
   269  002A94  999A               	dw	39322
   270  002A96  3F19               	dw	16153
   271  002A98  3B64               	dw	15204
   272  002A9A  4037               	dw	16439
   273  002A9C  0000               	dw	0
   274  002A9E  3F80               	dw	16256
   275  002AA0  0000               	dw	0
   276  002AA2  3F80               	dw	16256
   277  002AA4  47AE               	dw	18350
   278  002AA6  4009               	dw	16393
   279  002AA8  0000               	dw	0
   280  002AAA  3F80               	dw	16256
   281  002AAC  0000               	dw	0
   282  002AAE  3F40               	dw	16192
   283  002AB0  78D5               	dw	30933
   284  002AB2  4011               	dw	16401
   285  002AB4  0000               	dw	0
   286  002AB6  3F80               	dw	16256
   287  002AB8  0000               	dw	0
   288  002ABA  3E80               	dw	16000
   289  002ABC  1CAC               	dw	7340
   290  002ABE  401A               	dw	16410
   291  002AC0  0000               	dw	0
   292  002AC2  3F80               	dw	16256
   293  002AC4  0000               	dw	0
   294  002AC6  3E80               	dw	16000
   295  002AC8  4396               	dw	17302
   296  002ACA  4023               	dw	16419
   297  002ACC  0000               	dw	0
   298  002ACE  3F80               	dw	16256
   299  002AD0  0000               	dw	0
   300  002AD2  3E80               	dw	16000
   301  002AD4  FDF4               	dw	65012
   302  002AD6  402C               	dw	16428
   303  002AD8  0000               	dw	0
   304  002ADA  3F80               	dw	16256
   305  002ADC  999A               	dw	39322
   306  002ADE  3F19               	dw	16153
   307  002AE0  4396               	dw	17302
   308  002AE2  4023               	dw	16419
   309  002AE4  0000               	dw	0
   310  002AE6  3F80               	dw	16256
   311  002AE8  CCCD               	dw	52429
   312  002AEA  3E4C               	dw	15948
   313  002AEC  0000               	dw	0
   314  002AEE  3F80               	dw	16256
   315  002AF0  0000               	dw	0
   316  002AF2  0000               	dw	0
   317  002AF4  999A               	dw	39322
   318  002AF6  3F19               	dw	16153
   319  002AF8  9BA6               	dw	39846
   320  002AFA  4074               	dw	16500
   321  002AFC  0000               	dw	0
   322  002AFE  3F80               	dw	16256
   323  002B00  0000               	dw	0
   324  002B02  3F80               	dw	16256
   325  002B04  E979               	dw	59769
   326  002B06  4066               	dw	16486
   327  002B08  0000               	dw	0
   328  002B0A  3F80               	dw	16256
   329  002B0C  0000               	dw	0
   330  002B0E  3F40               	dw	16192
   331  002B10  9BA6               	dw	39846
   332  002B12  4074               	dw	16500
   333  002B14  0000               	dw	0
   334  002B16  3F80               	dw	16256
   335  002B18  0000               	dw	0
   336  002B1A  3E80               	dw	16000
   337  002B1C  4396               	dw	17302
   338  002B1E  4023               	dw	16419
   339  002B20  0000               	dw	0
   340  002B22  3F80               	dw	16256
   341  002B24  0000               	dw	0
   342  002B26  3F80               	dw	16256
   343  002B28  2D0E               	dw	11534
   344  002B2A  4042               	dw	16450
   345  002B2C  0000               	dw	0
   346  002B2E  3F80               	dw	16256
   347  002B30  0000               	dw	0
   348  002B32  3F40               	dw	16192
   349  002B34  9BA6               	dw	39846
   350  002B36  4074               	dw	16500
   351  002B38  0000               	dw	0
   352  002B3A  3F80               	dw	16256
   353  002B3C  0000               	dw	0
   354  002B3E  3E80               	dw	16000
   355  002B40  4396               	dw	17302
   356  002B42  4023               	dw	16419
   357  002B44  0000               	dw	0
   358  002B46  3F80               	dw	16256
   359  002B48  0000               	dw	0
   360  002B4A  3F80               	dw	16256
   361  002B4C  2D0E               	dw	11534
   362  002B4E  4042               	dw	16450
   363  002B50  0000               	dw	0
   364  002B52  3F80               	dw	16256
   365                           
   366                           	psect	idataBANK0
   367  00418E                     __pidataBANK0:
   368                           	callstack 0
   369                           
   370                           ;initializer for _l
   371  00418E  000F               	dw	15
   372                           
   373                           ;initializer for _k
   374  004190  0001               	dw	1
   375                           
   376                           ;initializer for _contador
   377  004192  0001               	dw	1
   378                           
   379                           	psect	smallconst
   380  000800                     __psmallconst:
   381                           	callstack 0
   382  000800  00                 	db	0
   383  000801                     _personaje:
   384                           	callstack 0
   385  000801  1F                 	db	31
   386  000802  15                 	db	21
   387  000803  1F                 	db	31
   388  000804  0E                 	db	14
   389  000805  15                 	db	21
   390  000806  0E                 	db	14
   391  000807  1B                 	db	27
   392  000808  00                 	db	0
   393  000809  00                 	db	0
   394  00080A                     __end_of_personaje:
   395                           	callstack 0
   396  00080A                     _personajeI:
   397                           	callstack 0
   398  00080A  07                 	db	7
   399  00080B  02                 	db	2
   400  00080C  1F                 	db	31
   401  00080D  07                 	db	7
   402  00080E  07                 	db	7
   403  00080F  05                 	db	5
   404  000810  1B                 	db	27
   405  000811  00                 	db	0
   406  000812                     __end_of_personajeI:
   407                           	callstack 0
   408  000812                     _personajeD:
   409                           	callstack 0
   410  000812  1C                 	db	28
   411  000813  08                 	db	8
   412  000814  1F                 	db	31
   413  000815  1C                 	db	28
   414  000816  1C                 	db	28
   415  000817  14                 	db	20
   416  000818  1B                 	db	27
   417  000819  00                 	db	0
   418  00081A                     __end_of_personajeD:
   419                           	callstack 0
   420  00081A                     STR_5:
   421  00081A  50                 	db	80	;'P'
   422  00081B  72                 	db	114	;'r'
   423  00081C  65                 	db	101	;'e'
   424  00081D  73                 	db	115	;'s'
   425  00081E  69                 	db	105	;'i'
   426  00081F  6F                 	db	111	;'o'
   427  000820  6E                 	db	110	;'n'
   428  000821  61                 	db	97	;'a'
   429  000822  72                 	db	114	;'r'
   430  000823  20                 	db	32
   431  000824  62                 	db	98	;'b'
   432  000825  6F                 	db	111	;'o'
   433  000826  74                 	db	116	;'t'
   434  000827  6F                 	db	111	;'o'
   435  000828  6E                 	db	110	;'n'
   436  000829  00                 	db	0
   437  00082A                     STR_1:
   438  00082A  25                 	db	37
   439  00082B  69                 	db	105	;'i'
   440  00082C  00                 	db	0
   441  00082D  00                 	db	0	; dummy byte at the end
   442  0000                     
   443                           	psect	nvBANK0
   444  0000E1                     __pnvBANK0:
   445                           	callstack 0
   446  0000E1                     _vel:
   447                           	callstack 0
   448  0000E1                     	ds	2
   449  0000                     _TMR0	set	4054
   450  0000                     _TRISB	set	3987
   451  0000                     _TRISA	set	3986
   452  0000                     _ADCON0bits	set	4034
   453  0000                     _ADCON0	set	4034
   454  0000                     _ADRESL	set	4035
   455  0000                     _ADRESH	set	4036
   456  0000                     _ADCON2	set	4032
   457  0000                     _ADCON1	set	4033
   458  0000                     _TMR1L	set	4046
   459  0000                     _TMR1H	set	4047
   460  0000                     _T1CONbits	set	4045
   461  0000                     _T0CONbits	set	4053
   462  0000                     _INTCONbits	set	4082
   463  0000                     _PORTBbits	set	3969
   464  0000                     _LATDbits	set	3980
   465  0000                     _TRISDbits	set	3989
   466  0000                     _TRISD	set	3989
   467  0000                     _PORTD	set	3971
   468  0000                     _GO	set	32273
   469  0000                     _ADON	set	32272
   470                           
   471                           ; #config settings
   472                           
   473                           	psect	cinit
   474  003DAC                     __pcinit:
   475                           	callstack 0
   476  003DAC                     start_initialization:
   477                           	callstack 0
   478  003DAC                     __initialization:
   479                           	callstack 0
   480                           
   481                           ; Initialize objects allocated to BIGRAM (528 bytes)
   482                           ; load TBLPTR registers with __pidataBIGRAM
   483  003DAC  0E44               	movlw	low __pidataBIGRAM
   484  003DAE  6EF6               	movwf	tblptrl,c
   485  003DB0  0E29               	movlw	high __pidataBIGRAM
   486  003DB2  6EF7               	movwf	tblptrh,c
   487  003DB4  0E00               	movlw	low (__pidataBIGRAM shr (0+16))
   488  003DB6  6EF8               	movwf	tblptru,c
   489  003DB8  EE05  F0F0         	lfsr	0,__pdataBIGRAM
   490  003DBC  EE12 F010          	lfsr	1,528
   491  003DC0                     copy_data0:
   492  003DC0  0009               	tblrd		*+
   493  003DC2  CFF5 FFEE          	movff	tablat,postinc0
   494  003DC6  50E5               	movf	postdec1,w,c
   495  003DC8  50E1               	movf	fsr1l,w,c
   496  003DCA  E1FA               	bnz	copy_data0
   497  003DCC  50E2               	movf	fsr1h,w,c
   498  003DCE  E1F8               	bnz	copy_data0
   499                           
   500                           ; Initialize objects allocated to BANK0 (6 bytes)
   501                           ; load TBLPTR registers with __pidataBANK0
   502  003DD0  0E8E               	movlw	low __pidataBANK0
   503  003DD2  6EF6               	movwf	tblptrl,c
   504  003DD4  0E41               	movlw	high __pidataBANK0
   505  003DD6  6EF7               	movwf	tblptrh,c
   506  003DD8  0E00               	movlw	low (__pidataBANK0 shr (0+16))
   507  003DDA  6EF8               	movwf	tblptru,c
   508  003DDC  EE00  F0DB         	lfsr	0,__pdataBANK0
   509  003DE0  EE10 F006          	lfsr	1,6
   510  003DE4                     copy_data1:
   511  003DE4  0009               	tblrd		*+
   512  003DE6  CFF5 FFEE          	movff	tablat,postinc0
   513  003DEA  50E5               	movf	postdec1,w,c
   514  003DEC  50E1               	movf	fsr1l,w,c
   515  003DEE  E1FA               	bnz	copy_data1
   516                           
   517                           ; Clear objects allocated to BANK0 (100 bytes)
   518  003DF0  EE00  F060         	lfsr	0,__pbssBANK0
   519  003DF4  0E64               	movlw	100
   520  003DF6                     clear_0:
   521  003DF6  6AEE               	clrf	postinc0,c
   522  003DF8  06E8               	decf	wreg,f,c
   523  003DFA  E1FD               	bnz	clear_0
   524  003DFC                     end_of_initialization:
   525                           	callstack 0
   526  003DFC                     __end_of__initialization:
   527                           	callstack 0
   528  003DFC  0E00               	movlw	low (__Lmediumconst shr (0+16))
   529  003DFE  6EF8               	movwf	tblptru,c
   530  003E00  0100               	movlb	0
   531  003E02  EFE4  F01B         	goto	_main	;jump to C main() function
   532                           
   533                           	psect	bssBANK0
   534  000060                     __pbssBANK0:
   535                           	callstack 0
   536  000060                     _buffer:
   537                           	callstack 0
   538  000060                     	ds	20
   539  000074                     _tiempo:
   540                           	callstack 0
   541  000074                     	ds	4
   542  000078                     _nout:
   543                           	callstack 0
   544  000078                     	ds	2
   545  00007A                     _width:
   546                           	callstack 0
   547  00007A                     	ds	2
   548  00007C                     _prec:
   549                           	callstack 0
   550  00007C                     	ds	2
   551  00007E                     _flags:
   552                           	callstack 0
   553  00007E                     	ds	2
   554  000080                     _s:
   555                           	callstack 0
   556  000080                     	ds	2
   557  000082                     _b:
   558                           	callstack 0
   559  000082                     	ds	2
   560  000084                     _a:
   561                           	callstack 0
   562  000084                     	ds	2
   563  000086                     _i:
   564                           	callstack 0
   565  000086                     	ds	2
   566  000088                     _tiempo2:
   567                           	callstack 0
   568  000088                     	ds	2
   569  00008A                     _puntos:
   570                           	callstack 0
   571  00008A                     	ds	2
   572  00008C                     _f:
   573                           	callstack 0
   574  00008C                     	ds	1
   575  00008D                     _dbuf:
   576                           	callstack 0
   577  00008D                     	ds	32
   578  0000AD                     _buffer1:
   579                           	callstack 0
   580  0000AD                     	ds	23
   581                           
   582                           	psect	dataBANK0
   583  0000DB                     __pdataBANK0:
   584                           	callstack 0
   585  0000DB                     _l:
   586                           	callstack 0
   587  0000DB                     	ds	2
   588  0000DD                     _k:
   589                           	callstack 0
   590  0000DD                     	ds	2
   591  0000DF                     _contador:
   592                           	callstack 0
   593  0000DF                     	ds	2
   594                           
   595                           	psect	dataBIGRAM
   596  0005F0                     __pdataBIGRAM:
   597                           	callstack 0
   598  0005F0                     _cancion:
   599                           	callstack 0
   600  0005F0                     	ds	528
   601                           
   602                           	psect	cstackBANK0
   603  0000C4                     __pcstackBANK0:
   604                           	callstack 0
   605  0000C4                     tocar_nota@duracion:
   606                           	callstack 0
   607  0000C4                     silencio@duracion:
   608                           	callstack 0
   609  0000C4                     sprintf@ap:
   610                           	callstack 0
   611                           
   612                           ; 2 bytes @ 0x0
   613  0000C4                     	ds	2
   614  0000C6                     tocar_nota@tfrec:
   615                           	callstack 0
   616  0000C6                     silencio@tfrec:
   617                           	callstack 0
   618  0000C6                     sprintf@f:
   619                           	callstack 0
   620                           
   621                           ; 6 bytes @ 0x2
   622  0000C6                     	ds	4
   623  0000CA                     _tocar_nota$1329:
   624                           	callstack 0
   625                           
   626                           ; 4 bytes @ 0x6
   627  0000CA                     	ds	4
   628  0000CE                     tocar_nota@duracion2:
   629                           	callstack 0
   630                           
   631                           ; 2 bytes @ 0xA
   632  0000CE                     	ds	2
   633  0000D0                     ??_cancion1:
   634                           
   635                           ; 1 bytes @ 0xC
   636  0000D0                     	ds	1
   637  0000D1                     _cancion1$1331:
   638                           	callstack 0
   639                           
   640                           ; 2 bytes @ 0xD
   641  0000D1                     	ds	2
   642  0000D3                     _cancion1$1332:
   643                           	callstack 0
   644                           
   645                           ; 2 bytes @ 0xF
   646  0000D3                     	ds	2
   647  0000D5                     cancion1@j:
   648                           	callstack 0
   649                           
   650                           ; 2 bytes @ 0x11
   651  0000D5                     	ds	2
   652  0000D7                     ??_main:
   653                           
   654                           ; 1 bytes @ 0x13
   655  0000D7                     	ds	2
   656  0000D9                     main@f:
   657                           	callstack 0
   658                           
   659                           ; 2 bytes @ 0x15
   660  0000D9                     	ds	2
   661                           
   662                           	psect	cstackCOMRAM
   663  000001                     __pcstackCOMRAM:
   664                           	callstack 0
   665  000001                     ??_SetCGRamAddr:
   666  000001                     ??_SetDDRamAddr:
   667  000001                     ??_DelayPORXLCD:
   668  000001                     ?_strlen:
   669                           	callstack 0
   670  000001                     ?___wmul:
   671                           	callstack 0
   672  000001                     ?___awdiv:
   673                           	callstack 0
   674  000001                     ?___xxtofl:
   675                           	callstack 0
   676  000001                     ?___aodiv:
   677                           	callstack 0
   678  000001                     ?___aomod:
   679                           	callstack 0
   680  000001                     WriteCmdXLCD@cmd:
   681                           	callstack 0
   682  000001                     WriteDataXLCD@data:
   683                           	callstack 0
   684  000001                     ___wmul@multiplier:
   685                           	callstack 0
   686  000001                     ___awdiv@dividend:
   687                           	callstack 0
   688  000001                     fputc@c:
   689                           	callstack 0
   690  000001                     strlen@s:
   691                           	callstack 0
   692  000001                     ___flge@ff1:
   693                           	callstack 0
   694  000001                     ___xxtofl@val:
   695                           	callstack 0
   696  000001                     ___aodiv@dividend:
   697                           	callstack 0
   698  000001                     ___aomod@dividend:
   699                           	callstack 0
   700                           
   701                           ; 8 bytes @ 0x0
   702  000001                     	ds	1
   703  000002                     putrsXLCD@buffer:
   704                           	callstack 0
   705                           
   706                           ; 2 bytes @ 0x1
   707  000002                     	ds	1
   708  000003                     ___wmul@multiplicand:
   709                           	callstack 0
   710  000003                     ___awdiv@divisor:
   711                           	callstack 0
   712  000003                     fputc@fp:
   713                           	callstack 0
   714  000003                     strlen@a:
   715                           	callstack 0
   716                           
   717                           ; 2 bytes @ 0x2
   718  000003                     	ds	1
   719  000004                     SetCGRamAddr@CGaddr:
   720                           	callstack 0
   721  000004                     SetDDRamAddr@DDaddr:
   722                           	callstack 0
   723                           
   724                           ; 1 bytes @ 0x3
   725  000004                     	ds	1
   726  000005                     ??_fputc:
   727  000005                     ??___xxtofl:
   728  000005                     OpenXLCD@lcdtype:
   729                           	callstack 0
   730  000005                     ___awdiv@counter:
   731                           	callstack 0
   732  000005                     LCD_WriteChr_CGRAM@buffer:
   733                           	callstack 0
   734  000005                     ___wmul@product:
   735                           	callstack 0
   736  000005                     ___flge@ff2:
   737                           	callstack 0
   738                           
   739                           ; 4 bytes @ 0x4
   740  000005                     	ds	1
   741  000006                     ___awdiv@sign:
   742                           	callstack 0
   743                           
   744                           ; 1 bytes @ 0x5
   745  000006                     	ds	1
   746  000007                     LCD_WriteChr_CGRAM@Addres:
   747                           	callstack 0
   748  000007                     ___awdiv@quotient:
   749                           	callstack 0
   750  000007                     ___fleq@ff1:
   751                           	callstack 0
   752                           
   753                           ; 4 bytes @ 0x6
   754  000007                     	ds	1
   755  000008                     LCD_WriteChr_CGRAM@i:
   756                           	callstack 0
   757                           
   758                           ; 1 bytes @ 0x7
   759  000008                     	ds	1
   760  000009                     ??___flge:
   761  000009                     ?_leerADC:
   762                           	callstack 0
   763  000009                     ___xxtofl@sign:
   764                           	callstack 0
   765  000009                     leerADC@canal:
   766                           	callstack 0
   767  000009                     ___aodiv@divisor:
   768                           	callstack 0
   769  000009                     ___aomod@divisor:
   770                           	callstack 0
   771                           
   772                           ; 8 bytes @ 0x8
   773  000009                     	ds	1
   774  00000A                     ___xxtofl@exp:
   775                           	callstack 0
   776  00000A                     fputs@s:
   777                           	callstack 0
   778                           
   779                           ; 2 bytes @ 0x9
   780  00000A                     	ds	1
   781  00000B                     ??_leerADC:
   782  00000B                     ___fleq@ff2:
   783                           	callstack 0
   784  00000B                     ___xxtofl@arg:
   785                           	callstack 0
   786                           
   787                           ; 4 bytes @ 0xA
   788  00000B                     	ds	1
   789  00000C                     fputs@fp:
   790                           	callstack 0
   791                           
   792                           ; 2 bytes @ 0xB
   793  00000C                     	ds	2
   794  00000E                     fputs@c:
   795                           	callstack 0
   796                           
   797                           ; 1 bytes @ 0xD
   798  00000E                     	ds	1
   799  00000F                     ??___fleq:
   800  00000F                     ?___flmul:
   801                           	callstack 0
   802  00000F                     leerADC@digital:
   803                           	callstack 0
   804  00000F                     fputs@i:
   805                           	callstack 0
   806  00000F                     ___flmul@b:
   807                           	callstack 0
   808                           
   809                           ; 4 bytes @ 0xE
   810  00000F                     	ds	2
   811  000011                     ?_pad:
   812                           	callstack 0
   813  000011                     ___aodiv@counter:
   814                           	callstack 0
   815  000011                     ___aomod@counter:
   816                           	callstack 0
   817  000011                     leerADC@final:
   818                           	callstack 0
   819  000011                     pad@fp:
   820                           	callstack 0
   821                           
   822                           ; 2 bytes @ 0x10
   823  000011                     	ds	1
   824  000012                     ___aodiv@sign:
   825                           	callstack 0
   826  000012                     ___aomod@sign:
   827                           	callstack 0
   828                           
   829                           ; 1 bytes @ 0x11
   830  000012                     	ds	1
   831  000013                     ?_abs:
   832                           	callstack 0
   833  000013                     LCD_gotoXY@x:
   834                           	callstack 0
   835  000013                     pad@buf:
   836                           	callstack 0
   837  000013                     abs@a:
   838                           	callstack 0
   839  000013                     ___flmul@a:
   840                           	callstack 0
   841  000013                     ___aodiv@quotient:
   842                           	callstack 0
   843                           
   844                           ; 8 bytes @ 0x12
   845  000013                     	ds	2
   846  000015                     ??_abs:
   847  000015                     LCD_gotoXY@y:
   848                           	callstack 0
   849  000015                     pad@p:
   850                           	callstack 0
   851                           
   852                           ; 2 bytes @ 0x14
   853  000015                     	ds	2
   854  000017                     ??___flmul:
   855  000017                     ??_pad:
   856                           
   857                           ; 1 bytes @ 0x16
   858  000017                     	ds	1
   859  000018                     pad@i:
   860                           	callstack 0
   861                           
   862                           ; 2 bytes @ 0x17
   863  000018                     	ds	2
   864  00001A                     pad@w:
   865                           	callstack 0
   866                           
   867                           ; 2 bytes @ 0x19
   868  00001A                     	ds	1
   869  00001B                     ___flmul@sign:
   870                           	callstack 0
   871                           
   872                           ; 1 bytes @ 0x1A
   873  00001B                     	ds	1
   874  00001C                     ?_dtoa:
   875                           	callstack 0
   876  00001C                     dtoa@fp:
   877                           	callstack 0
   878  00001C                     ___flmul@grs:
   879                           	callstack 0
   880                           
   881                           ; 4 bytes @ 0x1B
   882  00001C                     	ds	2
   883  00001E                     dtoa@d:
   884                           	callstack 0
   885                           
   886                           ; 8 bytes @ 0x1D
   887  00001E                     	ds	2
   888  000020                     ___flmul@aexp:
   889                           	callstack 0
   890                           
   891                           ; 1 bytes @ 0x1F
   892  000020                     	ds	1
   893  000021                     ___flmul@bexp:
   894                           	callstack 0
   895                           
   896                           ; 1 bytes @ 0x20
   897  000021                     	ds	1
   898  000022                     ___flmul@prod:
   899                           	callstack 0
   900                           
   901                           ; 4 bytes @ 0x21
   902  000022                     	ds	4
   903  000026                     ??_dtoa:
   904  000026                     ___flmul@temp:
   905                           	callstack 0
   906                           
   907                           ; 2 bytes @ 0x25
   908  000026                     	ds	2
   909  000028                     ?___fldiv:
   910                           	callstack 0
   911  000028                     ___fldiv@b:
   912                           	callstack 0
   913                           
   914                           ; 4 bytes @ 0x27
   915  000028                     	ds	4
   916  00002C                     ___fldiv@a:
   917                           	callstack 0
   918                           
   919                           ; 4 bytes @ 0x2B
   920  00002C                     	ds	2
   921  00002E                     _dtoa$1058:
   922                           	callstack 0
   923                           
   924                           ; 2 bytes @ 0x2D
   925  00002E                     	ds	2
   926  000030                     ??___fldiv:
   927  000030                     dtoa@p:
   928                           	callstack 0
   929                           
   930                           ; 2 bytes @ 0x2F
   931  000030                     	ds	2
   932  000032                     dtoa@w:
   933                           	callstack 0
   934                           
   935                           ; 2 bytes @ 0x31
   936  000032                     	ds	2
   937  000034                     dtoa@s:
   938                           	callstack 0
   939  000034                     ___fldiv@rem:
   940                           	callstack 0
   941                           
   942                           ; 4 bytes @ 0x33
   943  000034                     	ds	2
   944  000036                     dtoa@n:
   945                           	callstack 0
   946                           
   947                           ; 8 bytes @ 0x35
   948  000036                     	ds	2
   949  000038                     ___fldiv@sign:
   950                           	callstack 0
   951                           
   952                           ; 1 bytes @ 0x37
   953  000038                     	ds	1
   954  000039                     ___fldiv@new_exp:
   955                           	callstack 0
   956                           
   957                           ; 2 bytes @ 0x38
   958  000039                     	ds	2
   959  00003B                     ___fldiv@grs:
   960                           	callstack 0
   961                           
   962                           ; 4 bytes @ 0x3A
   963  00003B                     	ds	3
   964  00003E                     dtoa@i:
   965                           	callstack 0
   966                           
   967                           ; 2 bytes @ 0x3D
   968  00003E                     	ds	1
   969  00003F                     ___fldiv@bexp:
   970                           	callstack 0
   971                           
   972                           ; 1 bytes @ 0x3E
   973  00003F                     	ds	1
   974  000040                     ?_vfpfcnvrt:
   975                           	callstack 0
   976  000040                     ___fldiv@aexp:
   977                           	callstack 0
   978  000040                     vfpfcnvrt@fp:
   979                           	callstack 0
   980                           
   981                           ; 2 bytes @ 0x3F
   982  000040                     	ds	1
   983  000041                     ?___fladd:
   984                           	callstack 0
   985  000041                     ___fladd@b:
   986                           	callstack 0
   987                           
   988                           ; 4 bytes @ 0x40
   989  000041                     	ds	1
   990  000042                     vfpfcnvrt@fmt:
   991                           	callstack 0
   992                           
   993                           ; 2 bytes @ 0x41
   994  000042                     	ds	2
   995  000044                     vfpfcnvrt@ap:
   996                           	callstack 0
   997                           
   998                           ; 2 bytes @ 0x43
   999  000044                     	ds	1
  1000  000045                     ___fladd@a:
  1001                           	callstack 0
  1002                           
  1003                           ; 4 bytes @ 0x44
  1004  000045                     	ds	1
  1005  000046                     ??_vfpfcnvrt:
  1006                           
  1007                           ; 1 bytes @ 0x45
  1008  000046                     	ds	2
  1009  000048                     vfpfcnvrt@ll:
  1010                           	callstack 0
  1011                           
  1012                           ; 8 bytes @ 0x47
  1013  000048                     	ds	1
  1014  000049                     ??___fladd:
  1015                           
  1016                           ; 1 bytes @ 0x48
  1017  000049                     	ds	4
  1018  00004D                     ___fladd@signs:
  1019                           	callstack 0
  1020                           
  1021                           ; 1 bytes @ 0x4C
  1022  00004D                     	ds	1
  1023  00004E                     ___fladd@aexp:
  1024                           	callstack 0
  1025                           
  1026                           ; 1 bytes @ 0x4D
  1027  00004E                     	ds	1
  1028  00004F                     ___fladd@bexp:
  1029                           	callstack 0
  1030                           
  1031                           ; 1 bytes @ 0x4E
  1032  00004F                     	ds	1
  1033  000050                     ?_vfprintf:
  1034                           	callstack 0
  1035  000050                     ___fladd@grs:
  1036                           	callstack 0
  1037  000050                     vfprintf@fp:
  1038                           	callstack 0
  1039                           
  1040                           ; 2 bytes @ 0x4F
  1041  000050                     	ds	1
  1042  000051                     ?___flsub:
  1043                           	callstack 0
  1044  000051                     ?___fltol:
  1045                           	callstack 0
  1046  000051                     ___fltol@f1:
  1047                           	callstack 0
  1048  000051                     ___flsub@b:
  1049                           	callstack 0
  1050                           
  1051                           ; 4 bytes @ 0x50
  1052  000051                     	ds	1
  1053  000052                     vfprintf@fmt:
  1054                           	callstack 0
  1055                           
  1056                           ; 2 bytes @ 0x51
  1057  000052                     	ds	2
  1058  000054                     vfprintf@ap:
  1059                           	callstack 0
  1060                           
  1061                           ; 2 bytes @ 0x53
  1062  000054                     	ds	1
  1063  000055                     ??___fltol:
  1064  000055                     ___flsub@a:
  1065                           	callstack 0
  1066                           
  1067                           ; 4 bytes @ 0x54
  1068  000055                     	ds	1
  1069  000056                     vfprintf@cfmt:
  1070                           	callstack 0
  1071                           
  1072                           ; 2 bytes @ 0x55
  1073  000056                     	ds	2
  1074  000058                     ?_sprintf:
  1075                           	callstack 0
  1076  000058                     sprintf@s:
  1077                           	callstack 0
  1078                           
  1079                           ; 2 bytes @ 0x57
  1080  000058                     	ds	1
  1081  000059                     ___fltol@sign1:
  1082                           	callstack 0
  1083                           
  1084                           ; 1 bytes @ 0x58
  1085  000059                     	ds	1
  1086  00005A                     ___fltol@exp1:
  1087                           	callstack 0
  1088  00005A                     sprintf@fmt:
  1089                           	callstack 0
  1090                           
  1091                           ; 2 bytes @ 0x59
  1092  00005A                     	ds	1
  1093  00005B                     ??_tocar_nota:
  1094  00005B                     ??_silencio:
  1095                           
  1096                           ; 1 bytes @ 0x5A
  1097  00005B                     	ds	1
  1098  00005C                     _silencio$1330:
  1099                           	callstack 0
  1100                           
  1101                           ; 4 bytes @ 0x5B
  1102  00005C                     	ds	2
  1103  00005E                     
  1104                           ; 1 bytes @ 0x5D
  1105  00005E                     	ds	2
  1106                           
  1107 ;;
  1108 ;;Main: autosize = 0, tempsize = 2, incstack = 0, save=0
  1109 ;;
  1110 ;; *************** function _main *****************
  1111 ;; Defined at:
  1112 ;;		line 346 in file "main.c"
  1113 ;; Parameters:    Size  Location     Type
  1114 ;;		None
  1115 ;; Auto vars:     Size  Location     Type
  1116 ;;  f               2   21[BANK0 ] int 
  1117 ;;  i               2    0        int 
  1118 ;; Return value:  Size  Location     Type
  1119 ;;                  1    wreg      void 
  1120 ;; Registers used:
  1121 ;;		wreg, fsr1l, fsr1h, fsr2l, fsr2h, status,2, status,0, tblptrl, tblptrh, tblptru, prodl, prodh, cstack
  1122 ;; Tracked objects:
  1123 ;;		On entry : 0/0
  1124 ;;		On exit  : 0/0
  1125 ;;		Unchanged: 0/0
  1126 ;; Data sizes:     COMRAM   BANK0   BANK1   BANK2   BANK3   BANK4   BANK5   BANK6   BANK7
  1127 ;;      Params:         0       0       0       0       0       0       0       0       0
  1128 ;;      Locals:         0       2       0       0       0       0       0       0       0
  1129 ;;      Temps:          0       2       0       0       0       0       0       0       0
  1130 ;;      Totals:         0       4       0       0       0       0       0       0       0
  1131 ;;Total ram usage:        4 bytes
  1132 ;; Hardware stack levels required when called: 9
  1133 ;; This function calls:
  1134 ;;		_LCD_Init
  1135 ;;		_LCD_WriteChr_CGRAM
  1136 ;;		_WriteCmdXLCD
  1137 ;;		_cancion1
  1138 ;;		_confADC
  1139 ;;		_confT0
  1140 ;;		_putrsXLCD
  1141 ;; This function is called by:
  1142 ;;		Startup code after reset
  1143 ;; This function uses a non-reentrant model
  1144 ;;
  1145                           
  1146                           	psect	text0
  1147  0037C8                     __ptext0:
  1148                           	callstack 0
  1149  0037C8                     _main:
  1150                           	callstack 22
  1151  0037C8                     
  1152                           ;main.c: 347:      ADCON1= 15;
  1153  0037C8  0E0F               	movlw	15
  1154  0037CA  6EC1               	movwf	193,c	;volatile
  1155                           
  1156                           ;main.c: 349:      int f = 0;
  1157  0037CC  0E00               	movlw	0
  1158  0037CE  0100               	movlb	0	; () banked
  1159  0037D0  6FDA               	movwf	(main@f+1)& (0+255),b
  1160  0037D2  0E00               	movlw	0
  1161  0037D4  6FD9               	movwf	main@f& (0+255),b
  1162  0037D6                     
  1163                           ; BSR set to: 0
  1164                           ;main.c: 350:        confT0();
  1165  0037D6  ECAB  F020         	call	_confT0	;wreg free
  1166  0037DA                     
  1167                           ;main.c: 351:        confADC();
  1168  0037DA  ECB6  F020         	call	_confADC	;wreg free
  1169                           
  1170                           ;main.c: 353:     TRISA = 0b00010001;
  1171  0037DE  0E11               	movlw	17
  1172  0037E0  6E92               	movwf	146,c	;volatile
  1173                           
  1174                           ;main.c: 354:     TRISB = 0b11111101;
  1175  0037E2  0EFD               	movlw	253
  1176  0037E4  6E93               	movwf	147,c	;volatile
  1177                           
  1178                           ;main.c: 355:      vel = 2000;
  1179  0037E6  0E07               	movlw	7
  1180  0037E8  0100               	movlb	0	; () banked
  1181  0037EA  6FE2               	movwf	(_vel+1)& (0+255),b
  1182  0037EC  0ED0               	movlw	208
  1183  0037EE  6FE1               	movwf	_vel& (0+255),b
  1184  0037F0                     
  1185                           ; BSR set to: 0
  1186                           ;main.c: 357:     LCD_Init();
  1187  0037F0  EC77  F020         	call	_LCD_Init	;wreg free
  1188  0037F4                     
  1189                           ;main.c: 359:         WriteCmdXLCD(0x01);
  1190  0037F4  0E01               	movlw	1
  1191  0037F6  EC0A  F020         	call	_WriteCmdXLCD
  1192  0037FA                     
  1193                           ;main.c: 360:         LCD_WriteChr_CGRAM(personaje,0);
  1194  0037FA  0E01               	movlw	low _personaje
  1195  0037FC  6E05               	movwf	LCD_WriteChr_CGRAM@buffer^0,c
  1196  0037FE  0E08               	movlw	high _personaje
  1197  003800  6E06               	movwf	(LCD_WriteChr_CGRAM@buffer+1)^0,c
  1198  003802  0E00               	movlw	0
  1199  003804  6E07               	movwf	LCD_WriteChr_CGRAM@Addres^0,c
  1200  003806  EC44  F020         	call	_LCD_WriteChr_CGRAM	;wreg free
  1201  00380A                     
  1202                           ;main.c: 361:         LCD_WriteChr_CGRAM(personajeD,1);
  1203  00380A  0E12               	movlw	low _personajeD
  1204  00380C  6E05               	movwf	LCD_WriteChr_CGRAM@buffer^0,c
  1205  00380E  0E08               	movlw	high _personajeD
  1206  003810  6E06               	movwf	(LCD_WriteChr_CGRAM@buffer+1)^0,c
  1207  003812  0E01               	movlw	1
  1208  003814  6E07               	movwf	LCD_WriteChr_CGRAM@Addres^0,c
  1209  003816  EC44  F020         	call	_LCD_WriteChr_CGRAM	;wreg free
  1210  00381A                     
  1211                           ;main.c: 362:         LCD_WriteChr_CGRAM(personajeI,3);
  1212  00381A  0E0A               	movlw	low _personajeI
  1213  00381C  6E05               	movwf	LCD_WriteChr_CGRAM@buffer^0,c
  1214  00381E  0E08               	movlw	high _personajeI
  1215  003820  6E06               	movwf	(LCD_WriteChr_CGRAM@buffer+1)^0,c
  1216  003822  0E03               	movlw	3
  1217  003824  6E07               	movwf	LCD_WriteChr_CGRAM@Addres^0,c
  1218  003826  EC44  F020         	call	_LCD_WriteChr_CGRAM	;wreg free
  1219  00382A                     
  1220                           ;main.c: 363:         _delay((unsigned long)((500)*(20000000/4000.0)));
  1221  00382A  0E0D               	movlw	13
  1222  00382C  0100               	movlb	0	; () banked
  1223  00382E  6FD8               	movwf	(??_main+1)& (0+255),b
  1224  003830  0EAF               	movlw	175
  1225  003832  6FD7               	movwf	??_main& (0+255),b
  1226  003834  0EB6               	movlw	182
  1227  003836                     u4497:
  1228  003836  2EE8               	decfsz	wreg,f,c
  1229  003838  D7FE               	bra	u4497
  1230  00383A  2FD7               	decfsz	??_main& (0+255),f,b
  1231  00383C  D7FC               	bra	u4497
  1232  00383E  2FD8               	decfsz	(??_main+1)& (0+255),f,b
  1233  003840  D7FA               	bra	u4497
  1234  003842  F000               	nop	
  1235  003844                     l4168:
  1236                           
  1237                           ;main.c: 368:                           WriteCmdXLCD(0x01);
  1238  003844  0E01               	movlw	1
  1239  003846  EC0A  F020         	call	_WriteCmdXLCD
  1240  00384A                     
  1241                           ;main.c: 369:             _delay((unsigned long)((1)*(20000000/4000.0)));
  1242  00384A  0E07               	movlw	7
  1243  00384C  0100               	movlb	0	; () banked
  1244  00384E  6FD7               	movwf	??_main& (0+255),b
  1245  003850  0E7D               	movlw	125
  1246  003852                     u4507:
  1247  003852  2EE8               	decfsz	wreg,f,c
  1248  003854  D7FE               	bra	u4507
  1249  003856  2FD7               	decfsz	??_main& (0+255),f,b
  1250  003858  D7FC               	bra	u4507
  1251  00385A                     
  1252                           ;main.c: 370:             putrsXLCD("Presionar boton");
  1253  00385A  0E1A               	movlw	low STR_5
  1254  00385C  6E02               	movwf	putrsXLCD@buffer^0,c
  1255  00385E  0E08               	movlw	high STR_5
  1256  003860  6E03               	movwf	(putrsXLCD@buffer+1)^0,c
  1257  003862  EC6C  F01E         	call	_putrsXLCD	;wreg free
  1258                           
  1259                           ;main.c: 371:             while(f == 0){
  1260  003866  EF4A  F01C         	goto	l4182
  1261  00386A                     l4174:
  1262                           
  1263                           ; BSR set to: 0
  1264                           ;main.c: 372:                 cancion1();
  1265  00386A  EC17  F004         	call	_cancion1	;wreg free
  1266  00386E                     
  1267                           ;main.c: 373:                              if(PORTBbits.RB0 == 1){
  1268  00386E  A081               	btfss	129,0,c	;volatile
  1269  003870  EF3C  F01C         	goto	u4471
  1270  003874  EF3E  F01C         	goto	u4470
  1271  003878                     u4471:
  1272  003878  EF45  F01C         	goto	l4180
  1273  00387C                     u4470:
  1274  00387C                     
  1275                           ;main.c: 374:                                     f = 0;
  1276  00387C  0E00               	movlw	0
  1277  00387E  0100               	movlb	0	; () banked
  1278  003880  6FDA               	movwf	(main@f+1)& (0+255),b
  1279  003882  0E00               	movlw	0
  1280  003884  6FD9               	movwf	main@f& (0+255),b
  1281                           
  1282                           ;main.c: 375:                                 }
  1283  003886  EF4A  F01C         	goto	l4182
  1284  00388A                     l4180:
  1285                           
  1286                           ;main.c: 377:                                     f = 2;
  1287  00388A  0E00               	movlw	0
  1288  00388C  0100               	movlb	0	; () banked
  1289  00388E  6FDA               	movwf	(main@f+1)& (0+255),b
  1290  003890  0E02               	movlw	2
  1291  003892  6FD9               	movwf	main@f& (0+255),b
  1292  003894                     l4182:
  1293                           
  1294                           ;main.c: 371:             while(f == 0){
  1295  003894  0100               	movlb	0	; () banked
  1296  003896  51D9               	movf	main@f& (0+255),w,b
  1297  003898  11DA               	iorwf	(main@f+1)& (0+255),w,b
  1298  00389A  B4D8               	btfsc	status,2,c
  1299  00389C  EF52  F01C         	goto	u4481
  1300  0038A0  EF54  F01C         	goto	u4480
  1301  0038A4                     u4481:
  1302  0038A4  EF35  F01C         	goto	l4174
  1303  0038A8                     u4480:
  1304  0038A8  EF22  F01C         	goto	l4168
  1305  0038AC  EF00  F000         	goto	start
  1306  0038B0                     __end_of_main:
  1307                           	callstack 0
  1308                           
  1309 ;; *************** function _confT0 *****************
  1310 ;; Defined at:
  1311 ;;		line 78 in file "main.c"
  1312 ;; Parameters:    Size  Location     Type
  1313 ;;		None
  1314 ;; Auto vars:     Size  Location     Type
  1315 ;;		None
  1316 ;; Return value:  Size  Location     Type
  1317 ;;                  1    wreg      void 
  1318 ;; Registers used:
  1319 ;;		wreg, status,2
  1320 ;; Tracked objects:
  1321 ;;		On entry : 0/0
  1322 ;;		On exit  : 0/0
  1323 ;;		Unchanged: 0/0
  1324 ;; Data sizes:     COMRAM   BANK0   BANK1   BANK2   BANK3   BANK4   BANK5   BANK6   BANK7
  1325 ;;      Params:         0       0       0       0       0       0       0       0       0
  1326 ;;      Locals:         0       0       0       0       0       0       0       0       0
  1327 ;;      Temps:          0       0       0       0       0       0       0       0       0
  1328 ;;      Totals:         0       0       0       0       0       0       0       0       0
  1329 ;;Total ram usage:        0 bytes
  1330 ;; Hardware stack levels used: 1
  1331 ;; This function calls:
  1332 ;;		Nothing
  1333 ;; This function is called by:
  1334 ;;		_main
  1335 ;; This function uses a non-reentrant model
  1336 ;;
  1337                           
  1338                           	psect	text1
  1339  004156                     __ptext1:
  1340                           	callstack 0
  1341  004156                     _confT0:
  1342                           	callstack 30
  1343  004156                     
  1344                           ;main.c: 80:     T0CONbits.TMR0ON = 1;
  1345  004156  8ED5               	bsf	213,7,c	;volatile
  1346                           
  1347                           ;main.c: 81:       T0CONbits.T08BIT = 1;
  1348  004158  8CD5               	bsf	213,6,c	;volatile
  1349                           
  1350                           ;main.c: 82:       T0CONbits.T0CS = 0;
  1351  00415A  9AD5               	bcf	213,5,c	;volatile
  1352                           
  1353                           ;main.c: 83:       T0CONbits.T0SE = 0;
  1354  00415C  98D5               	bcf	213,4,c	;volatile
  1355                           
  1356                           ;main.c: 84:       T0CONbits.PSA = 0;
  1357  00415E  96D5               	bcf	213,3,c	;volatile
  1358  004160                     
  1359                           ;main.c: 85:       T0CONbits.T0PS = 0b110;
  1360  004160  50D5               	movf	213,w,c	;volatile
  1361  004162  0BF8               	andlw	-8
  1362  004164  0906               	iorlw	6
  1363  004166  6ED5               	movwf	213,c	;volatile
  1364  004168                     
  1365                           ;main.c: 87:       INTCONbits.TMR0IE = 1;
  1366  004168  8AF2               	bsf	242,5,c	;volatile
  1367  00416A  0012               	return		;funcret
  1368  00416C                     __end_of_confT0:
  1369                           	callstack 0
  1370                           
  1371 ;; *************** function _confADC *****************
  1372 ;; Defined at:
  1373 ;;		line 104 in file "main.c"
  1374 ;; Parameters:    Size  Location     Type
  1375 ;;		None
  1376 ;; Auto vars:     Size  Location     Type
  1377 ;;		None
  1378 ;; Return value:  Size  Location     Type
  1379 ;;                  1    wreg      void 
  1380 ;; Registers used:
  1381 ;;		wreg, status,2
  1382 ;; Tracked objects:
  1383 ;;		On entry : 0/0
  1384 ;;		On exit  : 0/0
  1385 ;;		Unchanged: 0/0
  1386 ;; Data sizes:     COMRAM   BANK0   BANK1   BANK2   BANK3   BANK4   BANK5   BANK6   BANK7
  1387 ;;      Params:         0       0       0       0       0       0       0       0       0
  1388 ;;      Locals:         0       0       0       0       0       0       0       0       0
  1389 ;;      Temps:          0       0       0       0       0       0       0       0       0
  1390 ;;      Totals:         0       0       0       0       0       0       0       0       0
  1391 ;;Total ram usage:        0 bytes
  1392 ;; Hardware stack levels used: 1
  1393 ;; This function calls:
  1394 ;;		Nothing
  1395 ;; This function is called by:
  1396 ;;		_main
  1397 ;; This function uses a non-reentrant model
  1398 ;;
  1399                           
  1400                           	psect	text2
  1401  00416C                     __ptext2:
  1402                           	callstack 0
  1403  00416C                     _confADC:
  1404                           	callstack 30
  1405  00416C                     
  1406                           ;main.c: 105:      ADCON1 = 0b00001110;
  1407  00416C  0E0E               	movlw	14
  1408  00416E  6EC1               	movwf	193,c	;volatile
  1409                           
  1410                           ;main.c: 106:     ADCON2 = 0b10111010;
  1411  004170  0EBA               	movlw	186
  1412  004172  6EC0               	movwf	192,c	;volatile
  1413                           
  1414                           ;main.c: 107:     ADRESH=0;
  1415  004174  0E00               	movlw	0
  1416  004176  6EC4               	movwf	196,c	;volatile
  1417                           
  1418                           ;main.c: 108:     ADRESL=0;
  1419  004178  0E00               	movlw	0
  1420  00417A  6EC3               	movwf	195,c	;volatile
  1421  00417C  0012               	return		;funcret
  1422  00417E                     __end_of_confADC:
  1423                           	callstack 0
  1424                           
  1425 ;; *************** function _cancion1 *****************
  1426 ;; Defined at:
  1427 ;;		line 131 in file "main.c"
  1428 ;; Parameters:    Size  Location     Type
  1429 ;;		None
  1430 ;; Auto vars:     Size  Location     Type
  1431 ;;  j               2   17[BANK0 ] int 
  1432 ;; Return value:  Size  Location     Type
  1433 ;;                  2  239[None  ] int 
  1434 ;; Registers used:
  1435 ;;		wreg, fsr1l, fsr1h, fsr2l, fsr2h, status,2, status,0, tblptrl, tblptrh, tblptru, prodl, prodh, cstack
  1436 ;; Tracked objects:
  1437 ;;		On entry : 0/0
  1438 ;;		On exit  : 0/0
  1439 ;;		Unchanged: 0/0
  1440 ;; Data sizes:     COMRAM   BANK0   BANK1   BANK2   BANK3   BANK4   BANK5   BANK6   BANK7
  1441 ;;      Params:         0       0       0       0       0       0       0       0       0
  1442 ;;      Locals:         0       6       0       0       0       0       0       0       0
  1443 ;;      Temps:          0       1       0       0       0       0       0       0       0
  1444 ;;      Totals:         0       7       0       0       0       0       0       0       0
  1445 ;;Total ram usage:        7 bytes
  1446 ;; Hardware stack levels used: 1
  1447 ;; Hardware stack levels required when called: 8
  1448 ;; This function calls:
  1449 ;;		_LCD_gotoXY
  1450 ;;		_WriteCmdXLCD
  1451 ;;		_WriteDataXLCD
  1452 ;;		___awdiv
  1453 ;;		___fladd
  1454 ;;		___fldiv
  1455 ;;		___fleq
  1456 ;;		___flge
  1457 ;;		___flmul
  1458 ;;		___fltol
  1459 ;;		___wmul
  1460 ;;		___xxtofl
  1461 ;;		_leerADC
  1462 ;;		_putrsXLCD
  1463 ;;		_silencio
  1464 ;;		_sprintf
  1465 ;;		_tocar_nota
  1466 ;; This function is called by:
  1467 ;;		_main
  1468 ;; This function uses a non-reentrant model
  1469 ;;
  1470                           
  1471                           	psect	text3
  1472  00082E                     __ptext3:
  1473                           	callstack 0
  1474  00082E                     _cancion1:
  1475                           	callstack 22
  1476  00082E                     
  1477                           ;main.c: 133:     while(puntos >= 0){
  1478  00082E  EFE6  F00C         	goto	l4082
  1479  000832                     l3852:
  1480                           
  1481                           ; BSR set to: 0
  1482                           ;main.c: 134:         for( int j = 0; j < 44; j ++){
  1483  000832  0E00               	movlw	0
  1484  000834  6FD6               	movwf	(cancion1@j+1)& (0+255),b
  1485  000836  0E00               	movlw	0
  1486  000838  6FD5               	movwf	cancion1@j& (0+255),b
  1487  00083A                     l3858:
  1488                           
  1489                           ; BSR set to: 0
  1490                           ;main.c: 136: if(i < 15 && l >= 0 && f == 0){
  1491  00083A  BF87               	btfsc	(_i+1)& (0+255),7,b
  1492  00083C  EF2B  F004         	goto	u4140
  1493  000840  5187               	movf	(_i+1)& (0+255),w,b
  1494  000842  E107               	bnz	u4141
  1495  000844  0E0F               	movlw	15
  1496  000846  5D86               	subwf	_i& (0+255),w,b
  1497  000848  B0D8               	btfsc	status,0,c
  1498  00084A  EF29  F004         	goto	u4141
  1499  00084E  EF2B  F004         	goto	u4140
  1500  000852                     u4141:
  1501  000852  EF7B  F008         	goto	l3968
  1502  000856                     u4140:
  1503  000856                     
  1504                           ; BSR set to: 0
  1505  000856  BFDC               	btfsc	(_l+1)& (0+255),7,b
  1506  000858  EF30  F004         	goto	u4151
  1507  00085C  EF32  F004         	goto	u4150
  1508  000860                     u4151:
  1509  000860  EF7B  F008         	goto	l3968
  1510  000864                     u4150:
  1511  000864                     
  1512                           ; BSR set to: 0
  1513  000864  518C               	movf	_f& (0+255),w,b
  1514  000866  A4D8               	btfss	status,2,c
  1515  000868  EF38  F004         	goto	u4161
  1516  00086C  EF3A  F004         	goto	u4160
  1517  000870                     u4161:
  1518  000870  EF7B  F008         	goto	l3968
  1519  000874                     u4160:
  1520  000874                     
  1521                           ; BSR set to: 0
  1522                           ;main.c: 139:                         if(cancion[j][2] == 1){
  1523  000874  C0D5  F001         	movff	cancion1@j,___wmul@multiplier
  1524  000878  C0D6  F002         	movff	cancion1@j+1,___wmul@multiplier+1
  1525  00087C  0E00               	movlw	0
  1526  00087E  6E04               	movwf	(___wmul@multiplicand+1)^0,c
  1527  000880  0E0C               	movlw	12
  1528  000882  6E03               	movwf	___wmul@multiplicand^0,c
  1529  000884  EC8B  F020         	call	___wmul	;wreg free
  1530  000888  0EF8               	movlw	low (_cancion+8)
  1531  00088A  2401               	addwf	?___wmul^0,w,c
  1532  00088C  6ED9               	movwf	fsr2l,c
  1533  00088E  0E05               	movlw	high (_cancion+8)
  1534  000890  2002               	addwfc	(?___wmul+1)^0,w,c
  1535  000892  6EDA               	movwf	fsr2h,c
  1536  000894  CFDE F007          	movff	postinc2,___fleq@ff1
  1537  000898  CFDE F008          	movff	postinc2,___fleq@ff1+1
  1538  00089C  CFDE F009          	movff	postinc2,___fleq@ff1+2
  1539  0008A0  CFDE F00A          	movff	postinc2,___fleq@ff1+3
  1540  0008A4  0E00               	movlw	0
  1541  0008A6  6E0B               	movwf	___fleq@ff2^0,c
  1542  0008A8  0E00               	movlw	0
  1543  0008AA  6E0C               	movwf	(___fleq@ff2+1)^0,c
  1544  0008AC  0E80               	movlw	128
  1545  0008AE  6E0D               	movwf	(___fleq@ff2+2)^0,c
  1546  0008B0  0E3F               	movlw	63
  1547  0008B2  6E0E               	movwf	(___fleq@ff2+3)^0,c
  1548  0008B4  ECDC  F01D         	call	___fleq	;wreg free
  1549  0008B8  A0D8               	btfss	status,0,c
  1550  0008BA  EF61  F004         	goto	u4171
  1551  0008BE  EF63  F004         	goto	u4170
  1552  0008C2                     u4171:
  1553  0008C2  EF4B  F006         	goto	l3910
  1554  0008C6                     u4170:
  1555  0008C6                     
  1556                           ;main.c: 141:                             WriteCmdXLCD(0x01);
  1557  0008C6  0E01               	movlw	1
  1558  0008C8  EC0A  F020         	call	_WriteCmdXLCD
  1559  0008CC                     
  1560                           ;main.c: 142:                             _delay((unsigned long)((1)*(20000000/4000.0)))
      +                          ;
  1561  0008CC  0E07               	movlw	7
  1562  0008CE  0100               	movlb	0	; () banked
  1563  0008D0  6FD0               	movwf	??_cancion1& (0+255),b
  1564  0008D2  0E7D               	movlw	125
  1565  0008D4                     u4517:
  1566  0008D4  2EE8               	decfsz	wreg,f,c
  1567  0008D6  D7FE               	bra	u4517
  1568  0008D8  2FD0               	decfsz	??_cancion1& (0+255),f,b
  1569  0008DA  D7FC               	bra	u4517
  1570  0008DC                     
  1571                           ;main.c: 143:                            LCD_gotoXY(k,leerADC(0));
  1572  0008DC  C0DD  F013         	movff	_k,LCD_gotoXY@x
  1573  0008E0  C0DE  F014         	movff	_k+1,LCD_gotoXY@x+1
  1574  0008E4  0E00               	movlw	0
  1575  0008E6  6E0A               	movwf	(leerADC@canal+1)^0,c
  1576  0008E8  0E00               	movlw	0
  1577  0008EA  6E09               	movwf	leerADC@canal^0,c
  1578  0008EC  EC82  F01D         	call	_leerADC	;wreg free
  1579  0008F0  C009  F015         	movff	?_leerADC,LCD_gotoXY@y
  1580  0008F4  C00A  F016         	movff	?_leerADC+1,LCD_gotoXY@y+1
  1581  0008F8  EC5F  F020         	call	_LCD_gotoXY	;wreg free
  1582  0008FC                     
  1583                           ;main.c: 144:                             WriteDataXLCD(0);
  1584  0008FC  0E00               	movlw	0
  1585  0008FE  EC59  F01F         	call	_WriteDataXLCD
  1586  000902                     
  1587                           ;main.c: 145:                             _delay((unsigned long)((1)*(20000000/4000.0)))
      +                          ;
  1588  000902  0E07               	movlw	7
  1589  000904  0100               	movlb	0	; () banked
  1590  000906  6FD0               	movwf	??_cancion1& (0+255),b
  1591  000908  0E7D               	movlw	125
  1592  00090A                     u4527:
  1593  00090A  2EE8               	decfsz	wreg,f,c
  1594  00090C  D7FE               	bra	u4527
  1595  00090E  2FD0               	decfsz	??_cancion1& (0+255),f,b
  1596  000910  D7FC               	bra	u4527
  1597                           
  1598                           ;main.c: 146:                             LCD_gotoXY(1,l);
  1599  000912  0E00               	movlw	0
  1600  000914  6E14               	movwf	(LCD_gotoXY@x+1)^0,c
  1601  000916  0E01               	movlw	1
  1602  000918  6E13               	movwf	LCD_gotoXY@x^0,c
  1603  00091A  C0DB  F015         	movff	_l,LCD_gotoXY@y
  1604  00091E  C0DC  F016         	movff	_l+1,LCD_gotoXY@y+1
  1605  000922  EC5F  F020         	call	_LCD_gotoXY	;wreg free
  1606                           
  1607                           ;main.c: 147:                             WriteDataXLCD(3);
  1608  000926  0E03               	movlw	3
  1609  000928  EC59  F01F         	call	_WriteDataXLCD
  1610  00092C                     
  1611                           ;main.c: 148:                             _delay((unsigned long)((1)*(20000000/4000.0)))
      +                          ;
  1612  00092C  0E07               	movlw	7
  1613  00092E  0100               	movlb	0	; () banked
  1614  000930  6FD0               	movwf	??_cancion1& (0+255),b
  1615  000932  0E7D               	movlw	125
  1616  000934                     u4537:
  1617  000934  2EE8               	decfsz	wreg,f,c
  1618  000936  D7FE               	bra	u4537
  1619  000938  2FD0               	decfsz	??_cancion1& (0+255),f,b
  1620  00093A  D7FC               	bra	u4537
  1621  00093C                     
  1622                           ;main.c: 149:                             LCD_gotoXY(1,12);
  1623  00093C  0E00               	movlw	0
  1624  00093E  6E14               	movwf	(LCD_gotoXY@x+1)^0,c
  1625  000940  0E01               	movlw	1
  1626  000942  6E13               	movwf	LCD_gotoXY@x^0,c
  1627  000944  0E00               	movlw	0
  1628  000946  6E16               	movwf	(LCD_gotoXY@y+1)^0,c
  1629  000948  0E0C               	movlw	12
  1630  00094A  6E15               	movwf	LCD_gotoXY@y^0,c
  1631  00094C  EC5F  F020         	call	_LCD_gotoXY	;wreg free
  1632  000950                     
  1633                           ;main.c: 150:                             sprintf(buffer1,"%i",puntos);
  1634  000950  0EAD               	movlw	low _buffer1
  1635  000952  6E58               	movwf	sprintf@s^0,c
  1636  000954  0E00               	movlw	high _buffer1
  1637  000956  6E59               	movwf	(sprintf@s+1)^0,c
  1638  000958  0E2A               	movlw	low STR_1
  1639  00095A  6E5A               	movwf	sprintf@fmt^0,c
  1640  00095C  0E08               	movlw	high STR_1
  1641  00095E  6E5B               	movwf	(sprintf@fmt+1)^0,c
  1642  000960  C08A  F05C         	movff	_puntos,?_sprintf+4
  1643  000964  C08B  F05D         	movff	_puntos+1,?_sprintf+5
  1644  000968  EC30  F01F         	call	_sprintf	;wreg free
  1645  00096C                     
  1646                           ;main.c: 151:                              putrsXLCD(buffer1);
  1647  00096C  0EAD               	movlw	low _buffer1
  1648  00096E  6E02               	movwf	putrsXLCD@buffer^0,c
  1649  000970  0E00               	movlw	high _buffer1
  1650  000972  6E03               	movwf	(putrsXLCD@buffer+1)^0,c
  1651  000974  EC6C  F01E         	call	_putrsXLCD	;wreg free
  1652  000978                     
  1653                           ;main.c: 153:                                  if(leerADC(0) == l && k == 1){
  1654  000978  0E00               	movlw	0
  1655  00097A  6E0A               	movwf	(leerADC@canal+1)^0,c
  1656  00097C  0E00               	movlw	0
  1657  00097E  6E09               	movwf	leerADC@canal^0,c
  1658  000980  EC82  F01D         	call	_leerADC	;wreg free
  1659  000984  0100               	movlb	0	; () banked
  1660  000986  51DB               	movf	_l& (0+255),w,b
  1661  000988  1809               	xorwf	?_leerADC^0,w,c
  1662  00098A  E107               	bnz	u4181
  1663  00098C  51DC               	movf	(_l+1)& (0+255),w,b
  1664  00098E  180A               	xorwf	(?_leerADC+1)^0,w,c
  1665  000990  A4D8               	btfss	status,2,c
  1666  000992  EFCD  F004         	goto	u4181
  1667  000996  EFCF  F004         	goto	u4180
  1668  00099A                     u4181:
  1669  00099A  EFDE  F004         	goto	l3890
  1670  00099E                     u4180:
  1671  00099E                     
  1672                           ; BSR set to: 0
  1673  00099E  05DD               	decf	_k& (0+255),w,b
  1674  0009A0  11DE               	iorwf	(_k+1)& (0+255),w,b
  1675  0009A2  A4D8               	btfss	status,2,c
  1676  0009A4  EFD6  F004         	goto	u4191
  1677  0009A8  EFD8  F004         	goto	u4190
  1678  0009AC                     u4191:
  1679  0009AC  EFDE  F004         	goto	l3890
  1680  0009B0                     u4190:
  1681  0009B0                     
  1682                           ; BSR set to: 0
  1683                           ;main.c: 154:                                    puntos = puntos - contador;
  1684  0009B0  51DF               	movf	_contador& (0+255),w,b
  1685  0009B2  5D8A               	subwf	_puntos& (0+255),w,b
  1686  0009B4  6F8A               	movwf	_puntos& (0+255),b
  1687  0009B6  51E0               	movf	(_contador+1)& (0+255),w,b
  1688  0009B8  598B               	subwfb	(_puntos+1)& (0+255),w,b
  1689  0009BA  6F8B               	movwf	(_puntos+1)& (0+255),b
  1690  0009BC                     l3890:
  1691                           
  1692                           ; BSR set to: 0
  1693                           ;main.c: 156:                          tocar_nota(vel*cancion[j][0],cancion[j][1]);
  1694  0009BC  0E00               	movlw	0
  1695  0009BE  6E04               	movwf	(___wmul@multiplicand+1)^0,c
  1696  0009C0  0E0C               	movlw	12
  1697  0009C2  6E03               	movwf	___wmul@multiplicand^0,c
  1698  0009C4  C0D5  F001         	movff	cancion1@j,___wmul@multiplier
  1699  0009C8  C0D6  F002         	movff	cancion1@j+1,___wmul@multiplier+1
  1700  0009CC  EC8B  F020         	call	___wmul	;wreg free
  1701  0009D0  0EF0               	movlw	low _cancion
  1702  0009D2  2401               	addwf	?___wmul^0,w,c
  1703  0009D4  6ED9               	movwf	fsr2l,c
  1704  0009D6  0E05               	movlw	high _cancion
  1705  0009D8  2002               	addwfc	(?___wmul+1)^0,w,c
  1706  0009DA  6EDA               	movwf	fsr2h,c
  1707  0009DC  CFDE F013          	movff	postinc2,___flmul@a
  1708  0009E0  CFDE F014          	movff	postinc2,___flmul@a+1
  1709  0009E4  CFDE F015          	movff	postinc2,___flmul@a+2
  1710  0009E8  CFDE F016          	movff	postinc2,___flmul@a+3
  1711  0009EC  C0E1  F001         	movff	_vel,___xxtofl@val
  1712  0009F0  C0E2  F002         	movff	_vel+1,___xxtofl@val+1
  1713  0009F4  0E00               	movlw	0
  1714  0009F6  BE02               	btfsc	(___xxtofl@val+1)^0,7,c
  1715  0009F8  0EFF               	movlw	-1
  1716  0009FA  6E03               	movwf	(___xxtofl@val+2)^0,c
  1717  0009FC  6E04               	movwf	(___xxtofl@val+3)^0,c
  1718  0009FE  0E01               	movlw	1
  1719  000A00  EC84  F016         	call	___xxtofl
  1720  000A04  C001  F00F         	movff	?___xxtofl,___flmul@b
  1721  000A08  C002  F010         	movff	?___xxtofl+1,___flmul@b+1
  1722  000A0C  C003  F011         	movff	?___xxtofl+2,___flmul@b+2
  1723  000A10  C004  F012         	movff	?___xxtofl+3,___flmul@b+3
  1724  000A14  EC4F  F00F         	call	___flmul	;wreg free
  1725  000A18  C00F  F051         	movff	?___flmul,___fltol@f1
  1726  000A1C  C010  F052         	movff	?___flmul+1,___fltol@f1+1
  1727  000A20  C011  F053         	movff	?___flmul+2,___fltol@f1+2
  1728  000A24  C012  F054         	movff	?___flmul+3,___fltol@f1+3
  1729  000A28  EC6A  F01A         	call	___fltol	;wreg free
  1730  000A2C  C051  F0D1         	movff	?___fltol,_cancion1$1331
  1731  000A30  C052  F0D2         	movff	?___fltol+1,_cancion1$1331+1
  1732  000A34                     
  1733                           ;main.c: 156:                          tocar_nota(vel*cancion[j][0],cancion[j][1]);
  1734  000A34  C0D1  F0C4         	movff	_cancion1$1331,tocar_nota@duracion
  1735  000A38  C0D2  F0C5         	movff	_cancion1$1331+1,tocar_nota@duracion+1
  1736  000A3C  C0D5  F001         	movff	cancion1@j,___wmul@multiplier
  1737  000A40  C0D6  F002         	movff	cancion1@j+1,___wmul@multiplier+1
  1738  000A44  0E00               	movlw	0
  1739  000A46  6E04               	movwf	(___wmul@multiplicand+1)^0,c
  1740  000A48  0E0C               	movlw	12
  1741  000A4A  6E03               	movwf	___wmul@multiplicand^0,c
  1742  000A4C  EC8B  F020         	call	___wmul	;wreg free
  1743  000A50  0EF4               	movlw	low (_cancion+4)
  1744  000A52  2401               	addwf	?___wmul^0,w,c
  1745  000A54  6ED9               	movwf	fsr2l,c
  1746  000A56  0E05               	movlw	high (_cancion+4)
  1747  000A58  2002               	addwfc	(?___wmul+1)^0,w,c
  1748  000A5A  6EDA               	movwf	fsr2h,c
  1749  000A5C  CFDE F0C6          	movff	postinc2,tocar_nota@tfrec
  1750  000A60  CFDE F0C7          	movff	postinc2,tocar_nota@tfrec+1
  1751  000A64  CFDE F0C8          	movff	postinc2,tocar_nota@tfrec+2
  1752  000A68  CFDE F0C9          	movff	postinc2,tocar_nota@tfrec+3
  1753  000A6C  EC5E  F017         	call	_tocar_nota	;wreg free
  1754  000A70                     
  1755                           ;main.c: 157:                           tiempo = tiempo + ((vel*cancion[j][0])/1000);
  1756  000A70  0E00               	movlw	0
  1757  000A72  6E2C               	movwf	___fldiv@a^0,c
  1758  000A74  0E00               	movlw	0
  1759  000A76  6E2D               	movwf	(___fldiv@a+1)^0,c
  1760  000A78  0E7A               	movlw	122
  1761  000A7A  6E2E               	movwf	(___fldiv@a+2)^0,c
  1762  000A7C  0E44               	movlw	68
  1763  000A7E  6E2F               	movwf	(___fldiv@a+3)^0,c
  1764  000A80  0E00               	movlw	0
  1765  000A82  6E04               	movwf	(___wmul@multiplicand+1)^0,c
  1766  000A84  0E0C               	movlw	12
  1767  000A86  6E03               	movwf	___wmul@multiplicand^0,c
  1768  000A88  C0D5  F001         	movff	cancion1@j,___wmul@multiplier
  1769  000A8C  C0D6  F002         	movff	cancion1@j+1,___wmul@multiplier+1
  1770  000A90  EC8B  F020         	call	___wmul	;wreg free
  1771  000A94  0EF0               	movlw	low _cancion
  1772  000A96  2401               	addwf	?___wmul^0,w,c
  1773  000A98  6ED9               	movwf	fsr2l,c
  1774  000A9A  0E05               	movlw	high _cancion
  1775  000A9C  2002               	addwfc	(?___wmul+1)^0,w,c
  1776  000A9E  6EDA               	movwf	fsr2h,c
  1777  000AA0  CFDE F013          	movff	postinc2,___flmul@a
  1778  000AA4  CFDE F014          	movff	postinc2,___flmul@a+1
  1779  000AA8  CFDE F015          	movff	postinc2,___flmul@a+2
  1780  000AAC  CFDE F016          	movff	postinc2,___flmul@a+3
  1781  000AB0  C0E1  F001         	movff	_vel,___xxtofl@val
  1782  000AB4  C0E2  F002         	movff	_vel+1,___xxtofl@val+1
  1783  000AB8  0E00               	movlw	0
  1784  000ABA  BE02               	btfsc	(___xxtofl@val+1)^0,7,c
  1785  000ABC  0EFF               	movlw	-1
  1786  000ABE  6E03               	movwf	(___xxtofl@val+2)^0,c
  1787  000AC0  6E04               	movwf	(___xxtofl@val+3)^0,c
  1788  000AC2  0E01               	movlw	1
  1789  000AC4  EC84  F016         	call	___xxtofl
  1790  000AC8  C001  F00F         	movff	?___xxtofl,___flmul@b
  1791  000ACC  C002  F010         	movff	?___xxtofl+1,___flmul@b+1
  1792  000AD0  C003  F011         	movff	?___xxtofl+2,___flmul@b+2
  1793  000AD4  C004  F012         	movff	?___xxtofl+3,___flmul@b+3
  1794  000AD8  EC4F  F00F         	call	___flmul	;wreg free
  1795  000ADC  C00F  F028         	movff	?___flmul,___fldiv@b
  1796  000AE0  C010  F029         	movff	?___flmul+1,___fldiv@b+1
  1797  000AE4  C011  F02A         	movff	?___flmul+2,___fldiv@b+2
  1798  000AE8  C012  F02B         	movff	?___flmul+3,___fldiv@b+3
  1799  000AEC  EC64  F011         	call	___fldiv	;wreg free
  1800  000AF0  C028  F041         	movff	?___fldiv,___fladd@b
  1801  000AF4  C029  F042         	movff	?___fldiv+1,___fladd@b+1
  1802  000AF8  C02A  F043         	movff	?___fldiv+2,___fladd@b+2
  1803  000AFC  C02B  F044         	movff	?___fldiv+3,___fladd@b+3
  1804  000B00  C074  F045         	movff	_tiempo,___fladd@a
  1805  000B04  C075  F046         	movff	_tiempo+1,___fladd@a+1
  1806  000B08  C076  F047         	movff	_tiempo+2,___fladd@a+2
  1807  000B0C  C077  F048         	movff	_tiempo+3,___fladd@a+3
  1808  000B10  ECEF  F00C         	call	___fladd	;wreg free
  1809  000B14  C041  F074         	movff	?___fladd,_tiempo
  1810  000B18  C042  F075         	movff	?___fladd+1,_tiempo+1
  1811  000B1C  C043  F076         	movff	?___fladd+2,_tiempo+2
  1812  000B20  C044  F077         	movff	?___fladd+3,_tiempo+3
  1813  000B24                     
  1814                           ;main.c: 158:                           tiempo2 = tiempo2 + ((vel*cancion[j][0])/1000);
  1815  000B24  0E00               	movlw	0
  1816  000B26  6E2C               	movwf	___fldiv@a^0,c
  1817  000B28  0E00               	movlw	0
  1818  000B2A  6E2D               	movwf	(___fldiv@a+1)^0,c
  1819  000B2C  0E7A               	movlw	122
  1820  000B2E  6E2E               	movwf	(___fldiv@a+2)^0,c
  1821  000B30  0E44               	movlw	68
  1822  000B32  6E2F               	movwf	(___fldiv@a+3)^0,c
  1823  000B34  0E00               	movlw	0
  1824  000B36  6E04               	movwf	(___wmul@multiplicand+1)^0,c
  1825  000B38  0E0C               	movlw	12
  1826  000B3A  6E03               	movwf	___wmul@multiplicand^0,c
  1827  000B3C  C0D5  F001         	movff	cancion1@j,___wmul@multiplier
  1828  000B40  C0D6  F002         	movff	cancion1@j+1,___wmul@multiplier+1
  1829  000B44  EC8B  F020         	call	___wmul	;wreg free
  1830  000B48  0EF0               	movlw	low _cancion
  1831  000B4A  2401               	addwf	?___wmul^0,w,c
  1832  000B4C  6ED9               	movwf	fsr2l,c
  1833  000B4E  0E05               	movlw	high _cancion
  1834  000B50  2002               	addwfc	(?___wmul+1)^0,w,c
  1835  000B52  6EDA               	movwf	fsr2h,c
  1836  000B54  CFDE F013          	movff	postinc2,___flmul@a
  1837  000B58  CFDE F014          	movff	postinc2,___flmul@a+1
  1838  000B5C  CFDE F015          	movff	postinc2,___flmul@a+2
  1839  000B60  CFDE F016          	movff	postinc2,___flmul@a+3
  1840  000B64  C0E1  F001         	movff	_vel,___xxtofl@val
  1841  000B68  C0E2  F002         	movff	_vel+1,___xxtofl@val+1
  1842  000B6C  0E00               	movlw	0
  1843  000B6E  BE02               	btfsc	(___xxtofl@val+1)^0,7,c
  1844  000B70  0EFF               	movlw	-1
  1845  000B72  6E03               	movwf	(___xxtofl@val+2)^0,c
  1846  000B74  6E04               	movwf	(___xxtofl@val+3)^0,c
  1847  000B76  0E01               	movlw	1
  1848  000B78  EC84  F016         	call	___xxtofl
  1849  000B7C  C001  F00F         	movff	?___xxtofl,___flmul@b
  1850  000B80  C002  F010         	movff	?___xxtofl+1,___flmul@b+1
  1851  000B84  C003  F011         	movff	?___xxtofl+2,___flmul@b+2
  1852  000B88  C004  F012         	movff	?___xxtofl+3,___flmul@b+3
  1853  000B8C  EC4F  F00F         	call	___flmul	;wreg free
  1854  000B90  C00F  F028         	movff	?___flmul,___fldiv@b
  1855  000B94  C010  F029         	movff	?___flmul+1,___fldiv@b+1
  1856  000B98  C011  F02A         	movff	?___flmul+2,___fldiv@b+2
  1857  000B9C  C012  F02B         	movff	?___flmul+3,___fldiv@b+3
  1858  000BA0  EC64  F011         	call	___fldiv	;wreg free
  1859  000BA4  C028  F045         	movff	?___fldiv,___fladd@a
  1860  000BA8  C029  F046         	movff	?___fldiv+1,___fladd@a+1
  1861  000BAC  C02A  F047         	movff	?___fldiv+2,___fladd@a+2
  1862  000BB0  C02B  F048         	movff	?___fldiv+3,___fladd@a+3
  1863  000BB4  C088  F001         	movff	_tiempo2,___xxtofl@val
  1864  000BB8  C089  F002         	movff	_tiempo2+1,___xxtofl@val+1
  1865  000BBC  0E00               	movlw	0
  1866  000BBE  BE02               	btfsc	(___xxtofl@val+1)^0,7,c
  1867  000BC0  0EFF               	movlw	-1
  1868  000BC2  6E03               	movwf	(___xxtofl@val+2)^0,c
  1869  000BC4  6E04               	movwf	(___xxtofl@val+3)^0,c
  1870  000BC6  0E01               	movlw	1
  1871  000BC8  EC84  F016         	call	___xxtofl
  1872  000BCC  C001  F041         	movff	?___xxtofl,___fladd@b
  1873  000BD0  C002  F042         	movff	?___xxtofl+1,___fladd@b+1
  1874  000BD4  C003  F043         	movff	?___xxtofl+2,___fladd@b+2
  1875  000BD8  C004  F044         	movff	?___xxtofl+3,___fladd@b+3
  1876  000BDC  ECEF  F00C         	call	___fladd	;wreg free
  1877  000BE0  C041  F051         	movff	?___fladd,___fltol@f1
  1878  000BE4  C042  F052         	movff	?___fladd+1,___fltol@f1+1
  1879  000BE8  C043  F053         	movff	?___fladd+2,___fltol@f1+2
  1880  000BEC  C044  F054         	movff	?___fladd+3,___fltol@f1+3
  1881  000BF0  EC6A  F01A         	call	___fltol	;wreg free
  1882  000BF4  C051  F088         	movff	?___fltol,_tiempo2
  1883  000BF8  C052  F089         	movff	?___fltol+1,_tiempo2+1
  1884                           
  1885                           ;main.c: 160:                           if(tiempo2 >= 1){
  1886  000BFC  0100               	movlb	0	; () banked
  1887  000BFE  BF89               	btfsc	(_tiempo2+1)& (0+255),7,b
  1888  000C00  EF0A  F006         	goto	u4201
  1889  000C04  5189               	movf	(_tiempo2+1)& (0+255),w,b
  1890  000C06  E108               	bnz	u4200
  1891  000C08  0588               	decf	_tiempo2& (0+255),w,b
  1892  000C0A  A0D8               	btfss	status,0,c
  1893  000C0C  EF0A  F006         	goto	u4201
  1894  000C10  EF0C  F006         	goto	u4200
  1895  000C14                     u4201:
  1896  000C14  EF16  F006         	goto	l3902
  1897  000C18                     u4200:
  1898  000C18                     
  1899                           ; BSR set to: 0
  1900                           ;main.c: 161:                               puntos = puntos + contador;
  1901  000C18  51DF               	movf	_contador& (0+255),w,b
  1902  000C1A  258A               	addwf	_puntos& (0+255),w,b
  1903  000C1C  6F8A               	movwf	_puntos& (0+255),b
  1904  000C1E  51E0               	movf	(_contador+1)& (0+255),w,b
  1905  000C20  218B               	addwfc	(_puntos+1)& (0+255),w,b
  1906  000C22  6F8B               	movwf	(_puntos+1)& (0+255),b
  1907  000C24                     
  1908                           ; BSR set to: 0
  1909                           ;main.c: 162:                               tiempo2 = 0;
  1910  000C24  0E00               	movlw	0
  1911  000C26  6F89               	movwf	(_tiempo2+1)& (0+255),b
  1912  000C28  0E00               	movlw	0
  1913  000C2A  6F88               	movwf	_tiempo2& (0+255),b
  1914  000C2C                     l3902:
  1915                           
  1916                           ; BSR set to: 0
  1917                           ;main.c: 164:                             if(tiempo >= 15){
  1918  000C2C  C074  F001         	movff	_tiempo,___flge@ff1
  1919  000C30  C075  F002         	movff	_tiempo+1,___flge@ff1+1
  1920  000C34  C076  F003         	movff	_tiempo+2,___flge@ff1+2
  1921  000C38  C077  F004         	movff	_tiempo+3,___flge@ff1+3
  1922  000C3C  0E00               	movlw	0
  1923  000C3E  6E05               	movwf	___flge@ff2^0,c
  1924  000C40  0E00               	movlw	0
  1925  000C42  6E06               	movwf	(___flge@ff2+1)^0,c
  1926  000C44  0E70               	movlw	112
  1927  000C46  6E07               	movwf	(___flge@ff2+2)^0,c
  1928  000C48  0E41               	movlw	65
  1929  000C4A  6E08               	movwf	(___flge@ff2+3)^0,c
  1930  000C4C  ECED  F01A         	call	___flge	;wreg free
  1931  000C50  A0D8               	btfss	status,0,c
  1932  000C52  EF2D  F006         	goto	u4211
  1933  000C56  EF2F  F006         	goto	u4210
  1934  000C5A                     u4211:
  1935  000C5A  EF5A  F008         	goto	l3956
  1936  000C5E                     u4210:
  1937  000C5E                     
  1938                           ;main.c: 165:                                 contador ++;
  1939  000C5E  0100               	movlb	0	; () banked
  1940  000C60  4BDF               	infsnz	_contador& (0+255),f,b
  1941  000C62  2BE0               	incf	(_contador+1)& (0+255),f,b
  1942  000C64                     
  1943                           ; BSR set to: 0
  1944                           ;main.c: 166:                               vel = vel/contador;
  1945  000C64  C0E1  F001         	movff	_vel,___awdiv@dividend
  1946  000C68  C0E2  F002         	movff	_vel+1,___awdiv@dividend+1
  1947  000C6C  C0DF  F003         	movff	_contador,___awdiv@divisor
  1948  000C70  C0E0  F004         	movff	_contador+1,___awdiv@divisor+1
  1949  000C74  EC20  F01D         	call	___awdiv	;wreg free
  1950  000C78  C001  F0E1         	movff	?___awdiv,_vel
  1951  000C7C  C002  F0E2         	movff	?___awdiv+1,_vel+1
  1952  000C80                     
  1953                           ;main.c: 167:                                 tiempo = 0;
  1954  000C80  0E00               	movlw	0
  1955  000C82  0100               	movlb	0	; () banked
  1956  000C84  6F74               	movwf	_tiempo& (0+255),b
  1957  000C86  0E00               	movlw	0
  1958  000C88  6F75               	movwf	(_tiempo+1)& (0+255),b
  1959  000C8A  0E00               	movlw	0
  1960  000C8C  6F76               	movwf	(_tiempo+2)& (0+255),b
  1961  000C8E  0E00               	movlw	0
  1962  000C90  6F77               	movwf	(_tiempo+3)& (0+255),b
  1963  000C92  EF5A  F008         	goto	l3956
  1964  000C96                     l3910:
  1965  000C96  C0D5  F001         	movff	cancion1@j,___wmul@multiplier
  1966  000C9A  C0D6  F002         	movff	cancion1@j+1,___wmul@multiplier+1
  1967  000C9E  0E00               	movlw	0
  1968  000CA0  6E04               	movwf	(___wmul@multiplicand+1)^0,c
  1969  000CA2  0E0C               	movlw	12
  1970  000CA4  6E03               	movwf	___wmul@multiplicand^0,c
  1971  000CA6  EC8B  F020         	call	___wmul	;wreg free
  1972  000CAA  0EF8               	movlw	low (_cancion+8)
  1973  000CAC  2401               	addwf	?___wmul^0,w,c
  1974  000CAE  6ED9               	movwf	fsr2l,c
  1975  000CB0  0E05               	movlw	high (_cancion+8)
  1976  000CB2  2002               	addwfc	(?___wmul+1)^0,w,c
  1977  000CB4  6EDA               	movwf	fsr2h,c
  1978  000CB6  CFDE F007          	movff	postinc2,___fleq@ff1
  1979  000CBA  CFDE F008          	movff	postinc2,___fleq@ff1+1
  1980  000CBE  CFDE F009          	movff	postinc2,___fleq@ff1+2
  1981  000CC2  CFDE F00A          	movff	postinc2,___fleq@ff1+3
  1982  000CC6  0E00               	movlw	0
  1983  000CC8  6E0B               	movwf	___fleq@ff2^0,c
  1984  000CCA  0E00               	movlw	0
  1985  000CCC  6E0C               	movwf	(___fleq@ff2+1)^0,c
  1986  000CCE  0E00               	movlw	0
  1987  000CD0  6E0D               	movwf	(___fleq@ff2+2)^0,c
  1988  000CD2  0E00               	movlw	0
  1989  000CD4  6E0E               	movwf	(___fleq@ff2+3)^0,c
  1990  000CD6  ECDC  F01D         	call	___fleq	;wreg free
  1991  000CDA  A0D8               	btfss	status,0,c
  1992  000CDC  EF72  F006         	goto	u4221
  1993  000CE0  EF74  F006         	goto	u4220
  1994  000CE4                     u4221:
  1995  000CE4  EF5A  F008         	goto	l3956
  1996  000CE8                     u4220:
  1997  000CE8                     
  1998                           ;main.c: 174:                             WriteCmdXLCD(0x01);
  1999  000CE8  0E01               	movlw	1
  2000  000CEA  EC0A  F020         	call	_WriteCmdXLCD
  2001  000CEE                     
  2002                           ;main.c: 175:                             _delay((unsigned long)((1)*(20000000/4000.0)))
      +                          ;
  2003  000CEE  0E07               	movlw	7
  2004  000CF0  0100               	movlb	0	; () banked
  2005  000CF2  6FD0               	movwf	??_cancion1& (0+255),b
  2006  000CF4  0E7D               	movlw	125
  2007  000CF6                     u4547:
  2008  000CF6  2EE8               	decfsz	wreg,f,c
  2009  000CF8  D7FE               	bra	u4547
  2010  000CFA  2FD0               	decfsz	??_cancion1& (0+255),f,b
  2011  000CFC  D7FC               	bra	u4547
  2012  000CFE                     
  2013                           ;main.c: 176:                            LCD_gotoXY(k,leerADC(0));
  2014  000CFE  C0DD  F013         	movff	_k,LCD_gotoXY@x
  2015  000D02  C0DE  F014         	movff	_k+1,LCD_gotoXY@x+1
  2016  000D06  0E00               	movlw	0
  2017  000D08  6E0A               	movwf	(leerADC@canal+1)^0,c
  2018  000D0A  0E00               	movlw	0
  2019  000D0C  6E09               	movwf	leerADC@canal^0,c
  2020  000D0E  EC82  F01D         	call	_leerADC	;wreg free
  2021  000D12  C009  F015         	movff	?_leerADC,LCD_gotoXY@y
  2022  000D16  C00A  F016         	movff	?_leerADC+1,LCD_gotoXY@y+1
  2023  000D1A  EC5F  F020         	call	_LCD_gotoXY	;wreg free
  2024  000D1E                     
  2025                           ;main.c: 177:                             WriteDataXLCD(0);
  2026  000D1E  0E00               	movlw	0
  2027  000D20  EC59  F01F         	call	_WriteDataXLCD
  2028  000D24                     
  2029                           ;main.c: 178:                             _delay((unsigned long)((1)*(20000000/4000.0)))
      +                          ;
  2030  000D24  0E07               	movlw	7
  2031  000D26  0100               	movlb	0	; () banked
  2032  000D28  6FD0               	movwf	??_cancion1& (0+255),b
  2033  000D2A  0E7D               	movlw	125
  2034  000D2C                     u4557:
  2035  000D2C  2EE8               	decfsz	wreg,f,c
  2036  000D2E  D7FE               	bra	u4557
  2037  000D30  2FD0               	decfsz	??_cancion1& (0+255),f,b
  2038  000D32  D7FC               	bra	u4557
  2039                           
  2040                           ;main.c: 179:                             LCD_gotoXY(1,l);
  2041  000D34  0E00               	movlw	0
  2042  000D36  6E14               	movwf	(LCD_gotoXY@x+1)^0,c
  2043  000D38  0E01               	movlw	1
  2044  000D3A  6E13               	movwf	LCD_gotoXY@x^0,c
  2045  000D3C  C0DB  F015         	movff	_l,LCD_gotoXY@y
  2046  000D40  C0DC  F016         	movff	_l+1,LCD_gotoXY@y+1
  2047  000D44  EC5F  F020         	call	_LCD_gotoXY	;wreg free
  2048                           
  2049                           ;main.c: 180:                             WriteDataXLCD(3);
  2050  000D48  0E03               	movlw	3
  2051  000D4A  EC59  F01F         	call	_WriteDataXLCD
  2052  000D4E                     
  2053                           ;main.c: 181:                             _delay((unsigned long)((1)*(20000000/4000.0)))
      +                          ;
  2054  000D4E  0E07               	movlw	7
  2055  000D50  0100               	movlb	0	; () banked
  2056  000D52  6FD0               	movwf	??_cancion1& (0+255),b
  2057  000D54  0E7D               	movlw	125
  2058  000D56                     u4567:
  2059  000D56  2EE8               	decfsz	wreg,f,c
  2060  000D58  D7FE               	bra	u4567
  2061  000D5A  2FD0               	decfsz	??_cancion1& (0+255),f,b
  2062  000D5C  D7FC               	bra	u4567
  2063  000D5E                     
  2064                           ;main.c: 182:                             LCD_gotoXY(1,12);
  2065  000D5E  0E00               	movlw	0
  2066  000D60  6E14               	movwf	(LCD_gotoXY@x+1)^0,c
  2067  000D62  0E01               	movlw	1
  2068  000D64  6E13               	movwf	LCD_gotoXY@x^0,c
  2069  000D66  0E00               	movlw	0
  2070  000D68  6E16               	movwf	(LCD_gotoXY@y+1)^0,c
  2071  000D6A  0E0C               	movlw	12
  2072  000D6C  6E15               	movwf	LCD_gotoXY@y^0,c
  2073  000D6E  EC5F  F020         	call	_LCD_gotoXY	;wreg free
  2074  000D72                     
  2075                           ;main.c: 183:                             sprintf(buffer1,"%i",puntos);
  2076  000D72  0EAD               	movlw	low _buffer1
  2077  000D74  6E58               	movwf	sprintf@s^0,c
  2078  000D76  0E00               	movlw	high _buffer1
  2079  000D78  6E59               	movwf	(sprintf@s+1)^0,c
  2080  000D7A  0E2A               	movlw	low STR_1
  2081  000D7C  6E5A               	movwf	sprintf@fmt^0,c
  2082  000D7E  0E08               	movlw	high STR_1
  2083  000D80  6E5B               	movwf	(sprintf@fmt+1)^0,c
  2084  000D82  C08A  F05C         	movff	_puntos,?_sprintf+4
  2085  000D86  C08B  F05D         	movff	_puntos+1,?_sprintf+5
  2086  000D8A  EC30  F01F         	call	_sprintf	;wreg free
  2087  000D8E                     
  2088                           ;main.c: 184:                              putrsXLCD(buffer1);
  2089  000D8E  0EAD               	movlw	low _buffer1
  2090  000D90  6E02               	movwf	putrsXLCD@buffer^0,c
  2091  000D92  0E00               	movlw	high _buffer1
  2092  000D94  6E03               	movwf	(putrsXLCD@buffer+1)^0,c
  2093  000D96  EC6C  F01E         	call	_putrsXLCD	;wreg free
  2094  000D9A                     
  2095                           ;main.c: 186:                                 if(leerADC(0) == l && k == 1){
  2096  000D9A  0E00               	movlw	0
  2097  000D9C  6E0A               	movwf	(leerADC@canal+1)^0,c
  2098  000D9E  0E00               	movlw	0
  2099  000DA0  6E09               	movwf	leerADC@canal^0,c
  2100  000DA2  EC82  F01D         	call	_leerADC	;wreg free
  2101  000DA6  0100               	movlb	0	; () banked
  2102  000DA8  51DB               	movf	_l& (0+255),w,b
  2103  000DAA  1809               	xorwf	?_leerADC^0,w,c
  2104  000DAC  E107               	bnz	u4231
  2105  000DAE  51DC               	movf	(_l+1)& (0+255),w,b
  2106  000DB0  180A               	xorwf	(?_leerADC+1)^0,w,c
  2107  000DB2  A4D8               	btfss	status,2,c
  2108  000DB4  EFDE  F006         	goto	u4231
  2109  000DB8  EFE0  F006         	goto	u4230
  2110  000DBC                     u4231:
  2111  000DBC  EFEF  F006         	goto	l3936
  2112  000DC0                     u4230:
  2113  000DC0                     
  2114                           ; BSR set to: 0
  2115  000DC0  05DD               	decf	_k& (0+255),w,b
  2116  000DC2  11DE               	iorwf	(_k+1)& (0+255),w,b
  2117  000DC4  A4D8               	btfss	status,2,c
  2118  000DC6  EFE7  F006         	goto	u4241
  2119  000DCA  EFE9  F006         	goto	u4240
  2120  000DCE                     u4241:
  2121  000DCE  EFEF  F006         	goto	l3936
  2122  000DD2                     u4240:
  2123  000DD2                     
  2124                           ; BSR set to: 0
  2125                           ;main.c: 187:                                    puntos = puntos - contador;
  2126  000DD2  51DF               	movf	_contador& (0+255),w,b
  2127  000DD4  5D8A               	subwf	_puntos& (0+255),w,b
  2128  000DD6  6F8A               	movwf	_puntos& (0+255),b
  2129  000DD8  51E0               	movf	(_contador+1)& (0+255),w,b
  2130  000DDA  598B               	subwfb	(_puntos+1)& (0+255),w,b
  2131  000DDC  6F8B               	movwf	(_puntos+1)& (0+255),b
  2132  000DDE                     l3936:
  2133                           
  2134                           ; BSR set to: 0
  2135                           ;main.c: 189:                   silencio(vel*cancion[j][0],cancion[j][1]);
  2136  000DDE  0E00               	movlw	0
  2137  000DE0  6E04               	movwf	(___wmul@multiplicand+1)^0,c
  2138  000DE2  0E0C               	movlw	12
  2139  000DE4  6E03               	movwf	___wmul@multiplicand^0,c
  2140  000DE6  C0D5  F001         	movff	cancion1@j,___wmul@multiplier
  2141  000DEA  C0D6  F002         	movff	cancion1@j+1,___wmul@multiplier+1
  2142  000DEE  EC8B  F020         	call	___wmul	;wreg free
  2143  000DF2  0EF0               	movlw	low _cancion
  2144  000DF4  2401               	addwf	?___wmul^0,w,c
  2145  000DF6  6ED9               	movwf	fsr2l,c
  2146  000DF8  0E05               	movlw	high _cancion
  2147  000DFA  2002               	addwfc	(?___wmul+1)^0,w,c
  2148  000DFC  6EDA               	movwf	fsr2h,c
  2149  000DFE  CFDE F013          	movff	postinc2,___flmul@a
  2150  000E02  CFDE F014          	movff	postinc2,___flmul@a+1
  2151  000E06  CFDE F015          	movff	postinc2,___flmul@a+2
  2152  000E0A  CFDE F016          	movff	postinc2,___flmul@a+3
  2153  000E0E  C0E1  F001         	movff	_vel,___xxtofl@val
  2154  000E12  C0E2  F002         	movff	_vel+1,___xxtofl@val+1
  2155  000E16  0E00               	movlw	0
  2156  000E18  BE02               	btfsc	(___xxtofl@val+1)^0,7,c
  2157  000E1A  0EFF               	movlw	-1
  2158  000E1C  6E03               	movwf	(___xxtofl@val+2)^0,c
  2159  000E1E  6E04               	movwf	(___xxtofl@val+3)^0,c
  2160  000E20  0E01               	movlw	1
  2161  000E22  EC84  F016         	call	___xxtofl
  2162  000E26  C001  F00F         	movff	?___xxtofl,___flmul@b
  2163  000E2A  C002  F010         	movff	?___xxtofl+1,___flmul@b+1
  2164  000E2E  C003  F011         	movff	?___xxtofl+2,___flmul@b+2
  2165  000E32  C004  F012         	movff	?___xxtofl+3,___flmul@b+3
  2166  000E36  EC4F  F00F         	call	___flmul	;wreg free
  2167  000E3A  C00F  F051         	movff	?___flmul,___fltol@f1
  2168  000E3E  C010  F052         	movff	?___flmul+1,___fltol@f1+1
  2169  000E42  C011  F053         	movff	?___flmul+2,___fltol@f1+2
  2170  000E46  C012  F054         	movff	?___flmul+3,___fltol@f1+3
  2171  000E4A  EC6A  F01A         	call	___fltol	;wreg free
  2172  000E4E  C051  F0D3         	movff	?___fltol,_cancion1$1332
  2173  000E52  C052  F0D4         	movff	?___fltol+1,_cancion1$1332+1
  2174  000E56                     
  2175                           ;main.c: 189:                   silencio(vel*cancion[j][0],cancion[j][1]);
  2176  000E56  C0D3  F0C4         	movff	_cancion1$1332,silencio@duracion
  2177  000E5A  C0D4  F0C5         	movff	_cancion1$1332+1,silencio@duracion+1
  2178  000E5E  C0D5  F001         	movff	cancion1@j,___wmul@multiplier
  2179  000E62  C0D6  F002         	movff	cancion1@j+1,___wmul@multiplier+1
  2180  000E66  0E00               	movlw	0
  2181  000E68  6E04               	movwf	(___wmul@multiplicand+1)^0,c
  2182  000E6A  0E0C               	movlw	12
  2183  000E6C  6E03               	movwf	___wmul@multiplicand^0,c
  2184  000E6E  EC8B  F020         	call	___wmul	;wreg free
  2185  000E72  0EF4               	movlw	low (_cancion+4)
  2186  000E74  2401               	addwf	?___wmul^0,w,c
  2187  000E76  6ED9               	movwf	fsr2l,c
  2188  000E78  0E05               	movlw	high (_cancion+4)
  2189  000E7A  2002               	addwfc	(?___wmul+1)^0,w,c
  2190  000E7C  6EDA               	movwf	fsr2h,c
  2191  000E7E  CFDE F0C6          	movff	postinc2,silencio@tfrec
  2192  000E82  CFDE F0C7          	movff	postinc2,silencio@tfrec+1
  2193  000E86  CFDE F0C8          	movff	postinc2,silencio@tfrec+2
  2194  000E8A  CFDE F0C9          	movff	postinc2,silencio@tfrec+3
  2195  000E8E  EC29  F018         	call	_silencio	;wreg free
  2196  000E92                     
  2197                           ;main.c: 190:                  tiempo = tiempo + ((vel*cancion[j][0])/1000);
  2198  000E92  0E00               	movlw	0
  2199  000E94  6E2C               	movwf	___fldiv@a^0,c
  2200  000E96  0E00               	movlw	0
  2201  000E98  6E2D               	movwf	(___fldiv@a+1)^0,c
  2202  000E9A  0E7A               	movlw	122
  2203  000E9C  6E2E               	movwf	(___fldiv@a+2)^0,c
  2204  000E9E  0E44               	movlw	68
  2205  000EA0  6E2F               	movwf	(___fldiv@a+3)^0,c
  2206  000EA2  0E00               	movlw	0
  2207  000EA4  6E04               	movwf	(___wmul@multiplicand+1)^0,c
  2208  000EA6  0E0C               	movlw	12
  2209  000EA8  6E03               	movwf	___wmul@multiplicand^0,c
  2210  000EAA  C0D5  F001         	movff	cancion1@j,___wmul@multiplier
  2211  000EAE  C0D6  F002         	movff	cancion1@j+1,___wmul@multiplier+1
  2212  000EB2  EC8B  F020         	call	___wmul	;wreg free
  2213  000EB6  0EF0               	movlw	low _cancion
  2214  000EB8  2401               	addwf	?___wmul^0,w,c
  2215  000EBA  6ED9               	movwf	fsr2l,c
  2216  000EBC  0E05               	movlw	high _cancion
  2217  000EBE  2002               	addwfc	(?___wmul+1)^0,w,c
  2218  000EC0  6EDA               	movwf	fsr2h,c
  2219  000EC2  CFDE F013          	movff	postinc2,___flmul@a
  2220  000EC6  CFDE F014          	movff	postinc2,___flmul@a+1
  2221  000ECA  CFDE F015          	movff	postinc2,___flmul@a+2
  2222  000ECE  CFDE F016          	movff	postinc2,___flmul@a+3
  2223  000ED2  C0E1  F001         	movff	_vel,___xxtofl@val
  2224  000ED6  C0E2  F002         	movff	_vel+1,___xxtofl@val+1
  2225  000EDA  0E00               	movlw	0
  2226  000EDC  BE02               	btfsc	(___xxtofl@val+1)^0,7,c
  2227  000EDE  0EFF               	movlw	-1
  2228  000EE0  6E03               	movwf	(___xxtofl@val+2)^0,c
  2229  000EE2  6E04               	movwf	(___xxtofl@val+3)^0,c
  2230  000EE4  0E01               	movlw	1
  2231  000EE6  EC84  F016         	call	___xxtofl
  2232  000EEA  C001  F00F         	movff	?___xxtofl,___flmul@b
  2233  000EEE  C002  F010         	movff	?___xxtofl+1,___flmul@b+1
  2234  000EF2  C003  F011         	movff	?___xxtofl+2,___flmul@b+2
  2235  000EF6  C004  F012         	movff	?___xxtofl+3,___flmul@b+3
  2236  000EFA  EC4F  F00F         	call	___flmul	;wreg free
  2237  000EFE  C00F  F028         	movff	?___flmul,___fldiv@b
  2238  000F02  C010  F029         	movff	?___flmul+1,___fldiv@b+1
  2239  000F06  C011  F02A         	movff	?___flmul+2,___fldiv@b+2
  2240  000F0A  C012  F02B         	movff	?___flmul+3,___fldiv@b+3
  2241  000F0E  EC64  F011         	call	___fldiv	;wreg free
  2242  000F12  C028  F041         	movff	?___fldiv,___fladd@b
  2243  000F16  C029  F042         	movff	?___fldiv+1,___fladd@b+1
  2244  000F1A  C02A  F043         	movff	?___fldiv+2,___fladd@b+2
  2245  000F1E  C02B  F044         	movff	?___fldiv+3,___fladd@b+3
  2246  000F22  C074  F045         	movff	_tiempo,___fladd@a
  2247  000F26  C075  F046         	movff	_tiempo+1,___fladd@a+1
  2248  000F2A  C076  F047         	movff	_tiempo+2,___fladd@a+2
  2249  000F2E  C077  F048         	movff	_tiempo+3,___fladd@a+3
  2250  000F32  ECEF  F00C         	call	___fladd	;wreg free
  2251  000F36  C041  F074         	movff	?___fladd,_tiempo
  2252  000F3A  C042  F075         	movff	?___fladd+1,_tiempo+1
  2253  000F3E  C043  F076         	movff	?___fladd+2,_tiempo+2
  2254  000F42  C044  F077         	movff	?___fladd+3,_tiempo+3
  2255  000F46                     
  2256                           ;main.c: 191:                  tiempo2 = tiempo2 + ((vel*cancion[j][0])/1000);
  2257  000F46  0E00               	movlw	0
  2258  000F48  6E2C               	movwf	___fldiv@a^0,c
  2259  000F4A  0E00               	movlw	0
  2260  000F4C  6E2D               	movwf	(___fldiv@a+1)^0,c
  2261  000F4E  0E7A               	movlw	122
  2262  000F50  6E2E               	movwf	(___fldiv@a+2)^0,c
  2263  000F52  0E44               	movlw	68
  2264  000F54  6E2F               	movwf	(___fldiv@a+3)^0,c
  2265  000F56  0E00               	movlw	0
  2266  000F58  6E04               	movwf	(___wmul@multiplicand+1)^0,c
  2267  000F5A  0E0C               	movlw	12
  2268  000F5C  6E03               	movwf	___wmul@multiplicand^0,c
  2269  000F5E  C0D5  F001         	movff	cancion1@j,___wmul@multiplier
  2270  000F62  C0D6  F002         	movff	cancion1@j+1,___wmul@multiplier+1
  2271  000F66  EC8B  F020         	call	___wmul	;wreg free
  2272  000F6A  0EF0               	movlw	low _cancion
  2273  000F6C  2401               	addwf	?___wmul^0,w,c
  2274  000F6E  6ED9               	movwf	fsr2l,c
  2275  000F70  0E05               	movlw	high _cancion
  2276  000F72  2002               	addwfc	(?___wmul+1)^0,w,c
  2277  000F74  6EDA               	movwf	fsr2h,c
  2278  000F76  CFDE F013          	movff	postinc2,___flmul@a
  2279  000F7A  CFDE F014          	movff	postinc2,___flmul@a+1
  2280  000F7E  CFDE F015          	movff	postinc2,___flmul@a+2
  2281  000F82  CFDE F016          	movff	postinc2,___flmul@a+3
  2282  000F86  C0E1  F001         	movff	_vel,___xxtofl@val
  2283  000F8A  C0E2  F002         	movff	_vel+1,___xxtofl@val+1
  2284  000F8E  0E00               	movlw	0
  2285  000F90  BE02               	btfsc	(___xxtofl@val+1)^0,7,c
  2286  000F92  0EFF               	movlw	-1
  2287  000F94  6E03               	movwf	(___xxtofl@val+2)^0,c
  2288  000F96  6E04               	movwf	(___xxtofl@val+3)^0,c
  2289  000F98  0E01               	movlw	1
  2290  000F9A  EC84  F016         	call	___xxtofl
  2291  000F9E  C001  F00F         	movff	?___xxtofl,___flmul@b
  2292  000FA2  C002  F010         	movff	?___xxtofl+1,___flmul@b+1
  2293  000FA6  C003  F011         	movff	?___xxtofl+2,___flmul@b+2
  2294  000FAA  C004  F012         	movff	?___xxtofl+3,___flmul@b+3
  2295  000FAE  EC4F  F00F         	call	___flmul	;wreg free
  2296  000FB2  C00F  F028         	movff	?___flmul,___fldiv@b
  2297  000FB6  C010  F029         	movff	?___flmul+1,___fldiv@b+1
  2298  000FBA  C011  F02A         	movff	?___flmul+2,___fldiv@b+2
  2299  000FBE  C012  F02B         	movff	?___flmul+3,___fldiv@b+3
  2300  000FC2  EC64  F011         	call	___fldiv	;wreg free
  2301  000FC6  C028  F045         	movff	?___fldiv,___fladd@a
  2302  000FCA  C029  F046         	movff	?___fldiv+1,___fladd@a+1
  2303  000FCE  C02A  F047         	movff	?___fldiv+2,___fladd@a+2
  2304  000FD2  C02B  F048         	movff	?___fldiv+3,___fladd@a+3
  2305  000FD6  C088  F001         	movff	_tiempo2,___xxtofl@val
  2306  000FDA  C089  F002         	movff	_tiempo2+1,___xxtofl@val+1
  2307  000FDE  0E00               	movlw	0
  2308  000FE0  BE02               	btfsc	(___xxtofl@val+1)^0,7,c
  2309  000FE2  0EFF               	movlw	-1
  2310  000FE4  6E03               	movwf	(___xxtofl@val+2)^0,c
  2311  000FE6  6E04               	movwf	(___xxtofl@val+3)^0,c
  2312  000FE8  0E01               	movlw	1
  2313  000FEA  EC84  F016         	call	___xxtofl
  2314  000FEE  C001  F041         	movff	?___xxtofl,___fladd@b
  2315  000FF2  C002  F042         	movff	?___xxtofl+1,___fladd@b+1
  2316  000FF6  C003  F043         	movff	?___xxtofl+2,___fladd@b+2
  2317  000FFA  C004  F044         	movff	?___xxtofl+3,___fladd@b+3
  2318  000FFE  ECEF  F00C         	call	___fladd	;wreg free
  2319  001002  C041  F051         	movff	?___fladd,___fltol@f1
  2320  001006  C042  F052         	movff	?___fladd+1,___fltol@f1+1
  2321  00100A  C043  F053         	movff	?___fladd+2,___fltol@f1+2
  2322  00100E  C044  F054         	movff	?___fladd+3,___fltol@f1+3
  2323  001012  EC6A  F01A         	call	___fltol	;wreg free
  2324  001016  C051  F088         	movff	?___fltol,_tiempo2
  2325  00101A  C052  F089         	movff	?___fltol+1,_tiempo2+1
  2326                           
  2327                           ;main.c: 193:                           if(tiempo2 >= 1){
  2328  00101E  0100               	movlb	0	; () banked
  2329  001020  BF89               	btfsc	(_tiempo2+1)& (0+255),7,b
  2330  001022  EF1B  F008         	goto	u4251
  2331  001026  5189               	movf	(_tiempo2+1)& (0+255),w,b
  2332  001028  E108               	bnz	u4250
  2333  00102A  0588               	decf	_tiempo2& (0+255),w,b
  2334  00102C  A0D8               	btfss	status,0,c
  2335  00102E  EF1B  F008         	goto	u4251
  2336  001032  EF1D  F008         	goto	u4250
  2337  001036                     u4251:
  2338  001036  EF27  F008         	goto	l3948
  2339  00103A                     u4250:
  2340  00103A                     
  2341                           ; BSR set to: 0
  2342                           ;main.c: 194:                               puntos = puntos + contador;
  2343  00103A  51DF               	movf	_contador& (0+255),w,b
  2344  00103C  258A               	addwf	_puntos& (0+255),w,b
  2345  00103E  6F8A               	movwf	_puntos& (0+255),b
  2346  001040  51E0               	movf	(_contador+1)& (0+255),w,b
  2347  001042  218B               	addwfc	(_puntos+1)& (0+255),w,b
  2348  001044  6F8B               	movwf	(_puntos+1)& (0+255),b
  2349  001046                     
  2350                           ; BSR set to: 0
  2351                           ;main.c: 195:                               tiempo2 = 0;
  2352  001046  0E00               	movlw	0
  2353  001048  6F89               	movwf	(_tiempo2+1)& (0+255),b
  2354  00104A  0E00               	movlw	0
  2355  00104C  6F88               	movwf	_tiempo2& (0+255),b
  2356  00104E                     l3948:
  2357                           
  2358                           ; BSR set to: 0
  2359                           ;main.c: 197:                             if(tiempo >= 15){
  2360  00104E  C074  F001         	movff	_tiempo,___flge@ff1
  2361  001052  C075  F002         	movff	_tiempo+1,___flge@ff1+1
  2362  001056  C076  F003         	movff	_tiempo+2,___flge@ff1+2
  2363  00105A  C077  F004         	movff	_tiempo+3,___flge@ff1+3
  2364  00105E  0E00               	movlw	0
  2365  001060  6E05               	movwf	___flge@ff2^0,c
  2366  001062  0E00               	movlw	0
  2367  001064  6E06               	movwf	(___flge@ff2+1)^0,c
  2368  001066  0E70               	movlw	112
  2369  001068  6E07               	movwf	(___flge@ff2+2)^0,c
  2370  00106A  0E41               	movlw	65
  2371  00106C  6E08               	movwf	(___flge@ff2+3)^0,c
  2372  00106E  ECED  F01A         	call	___flge	;wreg free
  2373  001072  A0D8               	btfss	status,0,c
  2374  001074  EF3E  F008         	goto	u4261
  2375  001078  EF40  F008         	goto	u4260
  2376  00107C                     u4261:
  2377  00107C  EF5A  F008         	goto	l3956
  2378  001080                     u4260:
  2379  001080                     
  2380                           ;main.c: 198:                                 contador ++;
  2381  001080  0100               	movlb	0	; () banked
  2382  001082  4BDF               	infsnz	_contador& (0+255),f,b
  2383  001084  2BE0               	incf	(_contador+1)& (0+255),f,b
  2384  001086                     
  2385                           ; BSR set to: 0
  2386                           ;main.c: 199:                               vel = vel/contador;
  2387  001086  C0E1  F001         	movff	_vel,___awdiv@dividend
  2388  00108A  C0E2  F002         	movff	_vel+1,___awdiv@dividend+1
  2389  00108E  C0DF  F003         	movff	_contador,___awdiv@divisor
  2390  001092  C0E0  F004         	movff	_contador+1,___awdiv@divisor+1
  2391  001096  EC20  F01D         	call	___awdiv	;wreg free
  2392  00109A  C001  F0E1         	movff	?___awdiv,_vel
  2393  00109E  C002  F0E2         	movff	?___awdiv+1,_vel+1
  2394  0010A2                     
  2395                           ;main.c: 200:                                 tiempo = 0;
  2396  0010A2  0E00               	movlw	0
  2397  0010A4  0100               	movlb	0	; () banked
  2398  0010A6  6F74               	movwf	_tiempo& (0+255),b
  2399  0010A8  0E00               	movlw	0
  2400  0010AA  6F75               	movwf	(_tiempo+1)& (0+255),b
  2401  0010AC  0E00               	movlw	0
  2402  0010AE  6F76               	movwf	(_tiempo+2)& (0+255),b
  2403  0010B0  0E00               	movlw	0
  2404  0010B2  6F77               	movwf	(_tiempo+3)& (0+255),b
  2405  0010B4                     l3956:
  2406                           
  2407                           ;main.c: 206:                             WriteCmdXLCD(0x01);
  2408  0010B4  0E01               	movlw	1
  2409  0010B6  EC0A  F020         	call	_WriteCmdXLCD
  2410  0010BA                     
  2411                           ;main.c: 207:                             _delay((unsigned long)((1)*(20000000/4000.0)))
      +                          ;
  2412  0010BA  0E07               	movlw	7
  2413  0010BC  0100               	movlb	0	; () banked
  2414  0010BE  6FD0               	movwf	??_cancion1& (0+255),b
  2415  0010C0  0E7D               	movlw	125
  2416  0010C2                     u4577:
  2417  0010C2  2EE8               	decfsz	wreg,f,c
  2418  0010C4  D7FE               	bra	u4577
  2419  0010C6  2FD0               	decfsz	??_cancion1& (0+255),f,b
  2420  0010C8  D7FC               	bra	u4577
  2421  0010CA                     
  2422                           ;main.c: 208:             i++;
  2423  0010CA  0100               	movlb	0	; () banked
  2424  0010CC  4B86               	infsnz	_i& (0+255),f,b
  2425  0010CE  2B87               	incf	(_i+1)& (0+255),f,b
  2426  0010D0                     
  2427                           ; BSR set to: 0
  2428                           ;main.c: 209:             l--;
  2429  0010D0  07DB               	decf	_l& (0+255),f,b
  2430  0010D2  A0D8               	btfss	status,0,c
  2431  0010D4  07DC               	decf	(_l+1)& (0+255),f,b
  2432  0010D6                     
  2433                           ; BSR set to: 0
  2434                           ;main.c: 210:          f = 0;
  2435  0010D6  0E00               	movlw	0
  2436  0010D8  6F8C               	movwf	_f& (0+255),b
  2437                           
  2438                           ;main.c: 211:          if(i == 14){
  2439  0010DA  0E0E               	movlw	14
  2440  0010DC  1986               	xorwf	_i& (0+255),w,b
  2441  0010DE  1187               	iorwf	(_i+1)& (0+255),w,b
  2442  0010E0  A4D8               	btfss	status,2,c
  2443  0010E2  EF75  F008         	goto	u4271
  2444  0010E6  EF77  F008         	goto	u4270
  2445  0010EA                     u4271:
  2446  0010EA  EFD6  F00C         	goto	l4078
  2447  0010EE                     u4270:
  2448  0010EE                     
  2449                           ; BSR set to: 0
  2450                           ;main.c: 212:              f = 1;
  2451  0010EE  0E01               	movlw	1
  2452  0010F0  6F8C               	movwf	_f& (0+255),b
  2453  0010F2  EFD6  F00C         	goto	l4078
  2454  0010F6                     l3968:
  2455                           
  2456                           ; BSR set to: 0
  2457  0010F6  BF87               	btfsc	(_i+1)& (0+255),7,b
  2458  0010F8  EF80  F008         	goto	u4281
  2459  0010FC  EF82  F008         	goto	u4280
  2460  001100                     u4281:
  2461  001100  EFD6  F00C         	goto	l4078
  2462  001104                     u4280:
  2463  001104                     
  2464                           ; BSR set to: 0
  2465  001104  BFDC               	btfsc	(_l+1)& (0+255),7,b
  2466  001106  EF90  F008         	goto	u4290
  2467  00110A  51DC               	movf	(_l+1)& (0+255),w,b
  2468  00110C  E107               	bnz	u4291
  2469  00110E  0E0F               	movlw	15
  2470  001110  5DDB               	subwf	_l& (0+255),w,b
  2471  001112  B0D8               	btfsc	status,0,c
  2472  001114  EF8E  F008         	goto	u4291
  2473  001118  EF90  F008         	goto	u4290
  2474  00111C                     u4291:
  2475  00111C  EFD6  F00C         	goto	l4078
  2476  001120                     u4290:
  2477  001120                     
  2478                           ; BSR set to: 0
  2479  001120  058C               	decf	_f& (0+255),w,b
  2480  001122  A4D8               	btfss	status,2,c
  2481  001124  EF96  F008         	goto	u4301
  2482  001128  EF98  F008         	goto	u4300
  2483  00112C                     u4301:
  2484  00112C  EFD6  F00C         	goto	l4078
  2485  001130                     u4300:
  2486  001130                     
  2487                           ; BSR set to: 0
  2488                           ;main.c: 221:                       if(cancion[j][2] == 1){
  2489  001130  C0D5  F001         	movff	cancion1@j,___wmul@multiplier
  2490  001134  C0D6  F002         	movff	cancion1@j+1,___wmul@multiplier+1
  2491  001138  0E00               	movlw	0
  2492  00113A  6E04               	movwf	(___wmul@multiplicand+1)^0,c
  2493  00113C  0E0C               	movlw	12
  2494  00113E  6E03               	movwf	___wmul@multiplicand^0,c
  2495  001140  EC8B  F020         	call	___wmul	;wreg free
  2496  001144  0EF8               	movlw	low (_cancion+8)
  2497  001146  2401               	addwf	?___wmul^0,w,c
  2498  001148  6ED9               	movwf	fsr2l,c
  2499  00114A  0E05               	movlw	high (_cancion+8)
  2500  00114C  2002               	addwfc	(?___wmul+1)^0,w,c
  2501  00114E  6EDA               	movwf	fsr2h,c
  2502  001150  CFDE F007          	movff	postinc2,___fleq@ff1
  2503  001154  CFDE F008          	movff	postinc2,___fleq@ff1+1
  2504  001158  CFDE F009          	movff	postinc2,___fleq@ff1+2
  2505  00115C  CFDE F00A          	movff	postinc2,___fleq@ff1+3
  2506  001160  0E00               	movlw	0
  2507  001162  6E0B               	movwf	___fleq@ff2^0,c
  2508  001164  0E00               	movlw	0
  2509  001166  6E0C               	movwf	(___fleq@ff2+1)^0,c
  2510  001168  0E80               	movlw	128
  2511  00116A  6E0D               	movwf	(___fleq@ff2+2)^0,c
  2512  00116C  0E3F               	movlw	63
  2513  00116E  6E0E               	movwf	(___fleq@ff2+3)^0,c
  2514  001170  ECDC  F01D         	call	___fleq	;wreg free
  2515  001174  A0D8               	btfss	status,0,c
  2516  001176  EFBF  F008         	goto	u4311
  2517  00117A  EFC1  F008         	goto	u4310
  2518  00117E                     u4311:
  2519  00117E  EFA9  F00A         	goto	l4020
  2520  001182                     u4310:
  2521  001182                     
  2522                           ;main.c: 222:                              WriteCmdXLCD(0x01);
  2523  001182  0E01               	movlw	1
  2524  001184  EC0A  F020         	call	_WriteCmdXLCD
  2525  001188                     
  2526                           ;main.c: 223:                             _delay((unsigned long)((1)*(20000000/4000.0)))
      +                          ;
  2527  001188  0E07               	movlw	7
  2528  00118A  0100               	movlb	0	; () banked
  2529  00118C  6FD0               	movwf	??_cancion1& (0+255),b
  2530  00118E  0E7D               	movlw	125
  2531  001190                     u4587:
  2532  001190  2EE8               	decfsz	wreg,f,c
  2533  001192  D7FE               	bra	u4587
  2534  001194  2FD0               	decfsz	??_cancion1& (0+255),f,b
  2535  001196  D7FC               	bra	u4587
  2536  001198                     
  2537                           ;main.c: 224:                            LCD_gotoXY(k,leerADC(0));
  2538  001198  C0DD  F013         	movff	_k,LCD_gotoXY@x
  2539  00119C  C0DE  F014         	movff	_k+1,LCD_gotoXY@x+1
  2540  0011A0  0E00               	movlw	0
  2541  0011A2  6E0A               	movwf	(leerADC@canal+1)^0,c
  2542  0011A4  0E00               	movlw	0
  2543  0011A6  6E09               	movwf	leerADC@canal^0,c
  2544  0011A8  EC82  F01D         	call	_leerADC	;wreg free
  2545  0011AC  C009  F015         	movff	?_leerADC,LCD_gotoXY@y
  2546  0011B0  C00A  F016         	movff	?_leerADC+1,LCD_gotoXY@y+1
  2547  0011B4  EC5F  F020         	call	_LCD_gotoXY	;wreg free
  2548  0011B8                     
  2549                           ;main.c: 225:                             WriteDataXLCD(0);
  2550  0011B8  0E00               	movlw	0
  2551  0011BA  EC59  F01F         	call	_WriteDataXLCD
  2552  0011BE                     
  2553                           ;main.c: 226:                             _delay((unsigned long)((1)*(20000000/4000.0)))
      +                          ;
  2554  0011BE  0E07               	movlw	7
  2555  0011C0  0100               	movlb	0	; () banked
  2556  0011C2  6FD0               	movwf	??_cancion1& (0+255),b
  2557  0011C4  0E7D               	movlw	125
  2558  0011C6                     u4597:
  2559  0011C6  2EE8               	decfsz	wreg,f,c
  2560  0011C8  D7FE               	bra	u4597
  2561  0011CA  2FD0               	decfsz	??_cancion1& (0+255),f,b
  2562  0011CC  D7FC               	bra	u4597
  2563                           
  2564                           ;main.c: 227:                             LCD_gotoXY(1,l);
  2565  0011CE  0E00               	movlw	0
  2566  0011D0  6E14               	movwf	(LCD_gotoXY@x+1)^0,c
  2567  0011D2  0E01               	movlw	1
  2568  0011D4  6E13               	movwf	LCD_gotoXY@x^0,c
  2569  0011D6  C0DB  F015         	movff	_l,LCD_gotoXY@y
  2570  0011DA  C0DC  F016         	movff	_l+1,LCD_gotoXY@y+1
  2571  0011DE  EC5F  F020         	call	_LCD_gotoXY	;wreg free
  2572                           
  2573                           ;main.c: 228:                             WriteDataXLCD(1);
  2574  0011E2  0E01               	movlw	1
  2575  0011E4  EC59  F01F         	call	_WriteDataXLCD
  2576  0011E8                     
  2577                           ;main.c: 229:                             _delay((unsigned long)((1)*(20000000/4000.0)))
      +                          ;
  2578  0011E8  0E07               	movlw	7
  2579  0011EA  0100               	movlb	0	; () banked
  2580  0011EC  6FD0               	movwf	??_cancion1& (0+255),b
  2581  0011EE  0E7D               	movlw	125
  2582  0011F0                     u4607:
  2583  0011F0  2EE8               	decfsz	wreg,f,c
  2584  0011F2  D7FE               	bra	u4607
  2585  0011F4  2FD0               	decfsz	??_cancion1& (0+255),f,b
  2586  0011F6  D7FC               	bra	u4607
  2587  0011F8                     
  2588                           ;main.c: 230:                             LCD_gotoXY(1,12);
  2589  0011F8  0E00               	movlw	0
  2590  0011FA  6E14               	movwf	(LCD_gotoXY@x+1)^0,c
  2591  0011FC  0E01               	movlw	1
  2592  0011FE  6E13               	movwf	LCD_gotoXY@x^0,c
  2593  001200  0E00               	movlw	0
  2594  001202  6E16               	movwf	(LCD_gotoXY@y+1)^0,c
  2595  001204  0E0C               	movlw	12
  2596  001206  6E15               	movwf	LCD_gotoXY@y^0,c
  2597  001208  EC5F  F020         	call	_LCD_gotoXY	;wreg free
  2598  00120C                     
  2599                           ;main.c: 231:                             sprintf(buffer1,"%i",puntos);
  2600  00120C  0EAD               	movlw	low _buffer1
  2601  00120E  6E58               	movwf	sprintf@s^0,c
  2602  001210  0E00               	movlw	high _buffer1
  2603  001212  6E59               	movwf	(sprintf@s+1)^0,c
  2604  001214  0E2A               	movlw	low STR_1
  2605  001216  6E5A               	movwf	sprintf@fmt^0,c
  2606  001218  0E08               	movlw	high STR_1
  2607  00121A  6E5B               	movwf	(sprintf@fmt+1)^0,c
  2608  00121C  C08A  F05C         	movff	_puntos,?_sprintf+4
  2609  001220  C08B  F05D         	movff	_puntos+1,?_sprintf+5
  2610  001224  EC30  F01F         	call	_sprintf	;wreg free
  2611  001228                     
  2612                           ;main.c: 232:                              putrsXLCD(buffer1);
  2613  001228  0EAD               	movlw	low _buffer1
  2614  00122A  6E02               	movwf	putrsXLCD@buffer^0,c
  2615  00122C  0E00               	movlw	high _buffer1
  2616  00122E  6E03               	movwf	(putrsXLCD@buffer+1)^0,c
  2617  001230  EC6C  F01E         	call	_putrsXLCD	;wreg free
  2618  001234                     
  2619                           ;main.c: 234:                                 if(leerADC(0) == l && k == 1){
  2620  001234  0E00               	movlw	0
  2621  001236  6E0A               	movwf	(leerADC@canal+1)^0,c
  2622  001238  0E00               	movlw	0
  2623  00123A  6E09               	movwf	leerADC@canal^0,c
  2624  00123C  EC82  F01D         	call	_leerADC	;wreg free
  2625  001240  0100               	movlb	0	; () banked
  2626  001242  51DB               	movf	_l& (0+255),w,b
  2627  001244  1809               	xorwf	?_leerADC^0,w,c
  2628  001246  E107               	bnz	u4321
  2629  001248  51DC               	movf	(_l+1)& (0+255),w,b
  2630  00124A  180A               	xorwf	(?_leerADC+1)^0,w,c
  2631  00124C  A4D8               	btfss	status,2,c
  2632  00124E  EF2B  F009         	goto	u4321
  2633  001252  EF2D  F009         	goto	u4320
  2634  001256                     u4321:
  2635  001256  EF3C  F009         	goto	l4000
  2636  00125A                     u4320:
  2637  00125A                     
  2638                           ; BSR set to: 0
  2639  00125A  05DD               	decf	_k& (0+255),w,b
  2640  00125C  11DE               	iorwf	(_k+1)& (0+255),w,b
  2641  00125E  A4D8               	btfss	status,2,c
  2642  001260  EF34  F009         	goto	u4331
  2643  001264  EF36  F009         	goto	u4330
  2644  001268                     u4331:
  2645  001268  EF3C  F009         	goto	l4000
  2646  00126C                     u4330:
  2647  00126C                     
  2648                           ; BSR set to: 0
  2649                           ;main.c: 235:                                    puntos = puntos - contador;
  2650  00126C  51DF               	movf	_contador& (0+255),w,b
  2651  00126E  5D8A               	subwf	_puntos& (0+255),w,b
  2652  001270  6F8A               	movwf	_puntos& (0+255),b
  2653  001272  51E0               	movf	(_contador+1)& (0+255),w,b
  2654  001274  598B               	subwfb	(_puntos+1)& (0+255),w,b
  2655  001276  6F8B               	movwf	(_puntos+1)& (0+255),b
  2656  001278                     l4000:
  2657                           
  2658                           ; BSR set to: 0
  2659                           ;main.c: 237:                             tocar_nota(vel*cancion[j][0],cancion[j][1]);
  2660  001278  0E00               	movlw	0
  2661  00127A  6E04               	movwf	(___wmul@multiplicand+1)^0,c
  2662  00127C  0E0C               	movlw	12
  2663  00127E  6E03               	movwf	___wmul@multiplicand^0,c
  2664  001280  C0D5  F001         	movff	cancion1@j,___wmul@multiplier
  2665  001284  C0D6  F002         	movff	cancion1@j+1,___wmul@multiplier+1
  2666  001288  EC8B  F020         	call	___wmul	;wreg free
  2667  00128C  0EF0               	movlw	low _cancion
  2668  00128E  2401               	addwf	?___wmul^0,w,c
  2669  001290  6ED9               	movwf	fsr2l,c
  2670  001292  0E05               	movlw	high _cancion
  2671  001294  2002               	addwfc	(?___wmul+1)^0,w,c
  2672  001296  6EDA               	movwf	fsr2h,c
  2673  001298  CFDE F013          	movff	postinc2,___flmul@a
  2674  00129C  CFDE F014          	movff	postinc2,___flmul@a+1
  2675  0012A0  CFDE F015          	movff	postinc2,___flmul@a+2
  2676  0012A4  CFDE F016          	movff	postinc2,___flmul@a+3
  2677  0012A8  C0E1  F001         	movff	_vel,___xxtofl@val
  2678  0012AC  C0E2  F002         	movff	_vel+1,___xxtofl@val+1
  2679  0012B0  0E00               	movlw	0
  2680  0012B2  BE02               	btfsc	(___xxtofl@val+1)^0,7,c
  2681  0012B4  0EFF               	movlw	-1
  2682  0012B6  6E03               	movwf	(___xxtofl@val+2)^0,c
  2683  0012B8  6E04               	movwf	(___xxtofl@val+3)^0,c
  2684  0012BA  0E01               	movlw	1
  2685  0012BC  EC84  F016         	call	___xxtofl
  2686  0012C0  C001  F00F         	movff	?___xxtofl,___flmul@b
  2687  0012C4  C002  F010         	movff	?___xxtofl+1,___flmul@b+1
  2688  0012C8  C003  F011         	movff	?___xxtofl+2,___flmul@b+2
  2689  0012CC  C004  F012         	movff	?___xxtofl+3,___flmul@b+3
  2690  0012D0  EC4F  F00F         	call	___flmul	;wreg free
  2691  0012D4  C00F  F051         	movff	?___flmul,___fltol@f1
  2692  0012D8  C010  F052         	movff	?___flmul+1,___fltol@f1+1
  2693  0012DC  C011  F053         	movff	?___flmul+2,___fltol@f1+2
  2694  0012E0  C012  F054         	movff	?___flmul+3,___fltol@f1+3
  2695  0012E4  EC6A  F01A         	call	___fltol	;wreg free
  2696  0012E8  C051  F0D1         	movff	?___fltol,_cancion1$1331
  2697  0012EC  C052  F0D2         	movff	?___fltol+1,_cancion1$1331+1
  2698  0012F0                     
  2699                           ;main.c: 237:                             tocar_nota(vel*cancion[j][0],cancion[j][1]);
  2700  0012F0  C0D1  F0C4         	movff	_cancion1$1331,tocar_nota@duracion
  2701  0012F4  C0D2  F0C5         	movff	_cancion1$1331+1,tocar_nota@duracion+1
  2702  0012F8  C0D5  F001         	movff	cancion1@j,___wmul@multiplier
  2703  0012FC  C0D6  F002         	movff	cancion1@j+1,___wmul@multiplier+1
  2704  001300  0E00               	movlw	0
  2705  001302  6E04               	movwf	(___wmul@multiplicand+1)^0,c
  2706  001304  0E0C               	movlw	12
  2707  001306  6E03               	movwf	___wmul@multiplicand^0,c
  2708  001308  EC8B  F020         	call	___wmul	;wreg free
  2709  00130C  0EF4               	movlw	low (_cancion+4)
  2710  00130E  2401               	addwf	?___wmul^0,w,c
  2711  001310  6ED9               	movwf	fsr2l,c
  2712  001312  0E05               	movlw	high (_cancion+4)
  2713  001314  2002               	addwfc	(?___wmul+1)^0,w,c
  2714  001316  6EDA               	movwf	fsr2h,c
  2715  001318  CFDE F0C6          	movff	postinc2,tocar_nota@tfrec
  2716  00131C  CFDE F0C7          	movff	postinc2,tocar_nota@tfrec+1
  2717  001320  CFDE F0C8          	movff	postinc2,tocar_nota@tfrec+2
  2718  001324  CFDE F0C9          	movff	postinc2,tocar_nota@tfrec+3
  2719  001328  EC5E  F017         	call	_tocar_nota	;wreg free
  2720  00132C                     
  2721                           ;main.c: 239:                  tiempo = tiempo + ((vel*cancion[j][0])/1000);
  2722  00132C  0E00               	movlw	0
  2723  00132E  6E2C               	movwf	___fldiv@a^0,c
  2724  001330  0E00               	movlw	0
  2725  001332  6E2D               	movwf	(___fldiv@a+1)^0,c
  2726  001334  0E7A               	movlw	122
  2727  001336  6E2E               	movwf	(___fldiv@a+2)^0,c
  2728  001338  0E44               	movlw	68
  2729  00133A  6E2F               	movwf	(___fldiv@a+3)^0,c
  2730  00133C  0E00               	movlw	0
  2731  00133E  6E04               	movwf	(___wmul@multiplicand+1)^0,c
  2732  001340  0E0C               	movlw	12
  2733  001342  6E03               	movwf	___wmul@multiplicand^0,c
  2734  001344  C0D5  F001         	movff	cancion1@j,___wmul@multiplier
  2735  001348  C0D6  F002         	movff	cancion1@j+1,___wmul@multiplier+1
  2736  00134C  EC8B  F020         	call	___wmul	;wreg free
  2737  001350  0EF0               	movlw	low _cancion
  2738  001352  2401               	addwf	?___wmul^0,w,c
  2739  001354  6ED9               	movwf	fsr2l,c
  2740  001356  0E05               	movlw	high _cancion
  2741  001358  2002               	addwfc	(?___wmul+1)^0,w,c
  2742  00135A  6EDA               	movwf	fsr2h,c
  2743  00135C  CFDE F013          	movff	postinc2,___flmul@a
  2744  001360  CFDE F014          	movff	postinc2,___flmul@a+1
  2745  001364  CFDE F015          	movff	postinc2,___flmul@a+2
  2746  001368  CFDE F016          	movff	postinc2,___flmul@a+3
  2747  00136C  C0E1  F001         	movff	_vel,___xxtofl@val
  2748  001370  C0E2  F002         	movff	_vel+1,___xxtofl@val+1
  2749  001374  0E00               	movlw	0
  2750  001376  BE02               	btfsc	(___xxtofl@val+1)^0,7,c
  2751  001378  0EFF               	movlw	-1
  2752  00137A  6E03               	movwf	(___xxtofl@val+2)^0,c
  2753  00137C  6E04               	movwf	(___xxtofl@val+3)^0,c
  2754  00137E  0E01               	movlw	1
  2755  001380  EC84  F016         	call	___xxtofl
  2756  001384  C001  F00F         	movff	?___xxtofl,___flmul@b
  2757  001388  C002  F010         	movff	?___xxtofl+1,___flmul@b+1
  2758  00138C  C003  F011         	movff	?___xxtofl+2,___flmul@b+2
  2759  001390  C004  F012         	movff	?___xxtofl+3,___flmul@b+3
  2760  001394  EC4F  F00F         	call	___flmul	;wreg free
  2761  001398  C00F  F028         	movff	?___flmul,___fldiv@b
  2762  00139C  C010  F029         	movff	?___flmul+1,___fldiv@b+1
  2763  0013A0  C011  F02A         	movff	?___flmul+2,___fldiv@b+2
  2764  0013A4  C012  F02B         	movff	?___flmul+3,___fldiv@b+3
  2765  0013A8  EC64  F011         	call	___fldiv	;wreg free
  2766  0013AC  C028  F041         	movff	?___fldiv,___fladd@b
  2767  0013B0  C029  F042         	movff	?___fldiv+1,___fladd@b+1
  2768  0013B4  C02A  F043         	movff	?___fldiv+2,___fladd@b+2
  2769  0013B8  C02B  F044         	movff	?___fldiv+3,___fladd@b+3
  2770  0013BC  C074  F045         	movff	_tiempo,___fladd@a
  2771  0013C0  C075  F046         	movff	_tiempo+1,___fladd@a+1
  2772  0013C4  C076  F047         	movff	_tiempo+2,___fladd@a+2
  2773  0013C8  C077  F048         	movff	_tiempo+3,___fladd@a+3
  2774  0013CC  ECEF  F00C         	call	___fladd	;wreg free
  2775  0013D0  C041  F074         	movff	?___fladd,_tiempo
  2776  0013D4  C042  F075         	movff	?___fladd+1,_tiempo+1
  2777  0013D8  C043  F076         	movff	?___fladd+2,_tiempo+2
  2778  0013DC  C044  F077         	movff	?___fladd+3,_tiempo+3
  2779  0013E0                     
  2780                           ;main.c: 240:                  tiempo2 = tiempo2 + ((vel*cancion[j][0])/1000);
  2781  0013E0  0E00               	movlw	0
  2782  0013E2  6E2C               	movwf	___fldiv@a^0,c
  2783  0013E4  0E00               	movlw	0
  2784  0013E6  6E2D               	movwf	(___fldiv@a+1)^0,c
  2785  0013E8  0E7A               	movlw	122
  2786  0013EA  6E2E               	movwf	(___fldiv@a+2)^0,c
  2787  0013EC  0E44               	movlw	68
  2788  0013EE  6E2F               	movwf	(___fldiv@a+3)^0,c
  2789  0013F0  0E00               	movlw	0
  2790  0013F2  6E04               	movwf	(___wmul@multiplicand+1)^0,c
  2791  0013F4  0E0C               	movlw	12
  2792  0013F6  6E03               	movwf	___wmul@multiplicand^0,c
  2793  0013F8  C0D5  F001         	movff	cancion1@j,___wmul@multiplier
  2794  0013FC  C0D6  F002         	movff	cancion1@j+1,___wmul@multiplier+1
  2795  001400  EC8B  F020         	call	___wmul	;wreg free
  2796  001404  0EF0               	movlw	low _cancion
  2797  001406  2401               	addwf	?___wmul^0,w,c
  2798  001408  6ED9               	movwf	fsr2l,c
  2799  00140A  0E05               	movlw	high _cancion
  2800  00140C  2002               	addwfc	(?___wmul+1)^0,w,c
  2801  00140E  6EDA               	movwf	fsr2h,c
  2802  001410  CFDE F013          	movff	postinc2,___flmul@a
  2803  001414  CFDE F014          	movff	postinc2,___flmul@a+1
  2804  001418  CFDE F015          	movff	postinc2,___flmul@a+2
  2805  00141C  CFDE F016          	movff	postinc2,___flmul@a+3
  2806  001420  C0E1  F001         	movff	_vel,___xxtofl@val
  2807  001424  C0E2  F002         	movff	_vel+1,___xxtofl@val+1
  2808  001428  0E00               	movlw	0
  2809  00142A  BE02               	btfsc	(___xxtofl@val+1)^0,7,c
  2810  00142C  0EFF               	movlw	-1
  2811  00142E  6E03               	movwf	(___xxtofl@val+2)^0,c
  2812  001430  6E04               	movwf	(___xxtofl@val+3)^0,c
  2813  001432  0E01               	movlw	1
  2814  001434  EC84  F016         	call	___xxtofl
  2815  001438  C001  F00F         	movff	?___xxtofl,___flmul@b
  2816  00143C  C002  F010         	movff	?___xxtofl+1,___flmul@b+1
  2817  001440  C003  F011         	movff	?___xxtofl+2,___flmul@b+2
  2818  001444  C004  F012         	movff	?___xxtofl+3,___flmul@b+3
  2819  001448  EC4F  F00F         	call	___flmul	;wreg free
  2820  00144C  C00F  F028         	movff	?___flmul,___fldiv@b
  2821  001450  C010  F029         	movff	?___flmul+1,___fldiv@b+1
  2822  001454  C011  F02A         	movff	?___flmul+2,___fldiv@b+2
  2823  001458  C012  F02B         	movff	?___flmul+3,___fldiv@b+3
  2824  00145C  EC64  F011         	call	___fldiv	;wreg free
  2825  001460  C028  F045         	movff	?___fldiv,___fladd@a
  2826  001464  C029  F046         	movff	?___fldiv+1,___fladd@a+1
  2827  001468  C02A  F047         	movff	?___fldiv+2,___fladd@a+2
  2828  00146C  C02B  F048         	movff	?___fldiv+3,___fladd@a+3
  2829  001470  C088  F001         	movff	_tiempo2,___xxtofl@val
  2830  001474  C089  F002         	movff	_tiempo2+1,___xxtofl@val+1
  2831  001478  0E00               	movlw	0
  2832  00147A  BE02               	btfsc	(___xxtofl@val+1)^0,7,c
  2833  00147C  0EFF               	movlw	-1
  2834  00147E  6E03               	movwf	(___xxtofl@val+2)^0,c
  2835  001480  6E04               	movwf	(___xxtofl@val+3)^0,c
  2836  001482  0E01               	movlw	1
  2837  001484  EC84  F016         	call	___xxtofl
  2838  001488  C001  F041         	movff	?___xxtofl,___fladd@b
  2839  00148C  C002  F042         	movff	?___xxtofl+1,___fladd@b+1
  2840  001490  C003  F043         	movff	?___xxtofl+2,___fladd@b+2
  2841  001494  C004  F044         	movff	?___xxtofl+3,___fladd@b+3
  2842  001498  ECEF  F00C         	call	___fladd	;wreg free
  2843  00149C  C041  F051         	movff	?___fladd,___fltol@f1
  2844  0014A0  C042  F052         	movff	?___fladd+1,___fltol@f1+1
  2845  0014A4  C043  F053         	movff	?___fladd+2,___fltol@f1+2
  2846  0014A8  C044  F054         	movff	?___fladd+3,___fltol@f1+3
  2847  0014AC  EC6A  F01A         	call	___fltol	;wreg free
  2848  0014B0  C051  F088         	movff	?___fltol,_tiempo2
  2849  0014B4  C052  F089         	movff	?___fltol+1,_tiempo2+1
  2850                           
  2851                           ;main.c: 242:                           if(tiempo2 >= 1){
  2852  0014B8  0100               	movlb	0	; () banked
  2853  0014BA  BF89               	btfsc	(_tiempo2+1)& (0+255),7,b
  2854  0014BC  EF68  F00A         	goto	u4341
  2855  0014C0  5189               	movf	(_tiempo2+1)& (0+255),w,b
  2856  0014C2  E108               	bnz	u4340
  2857  0014C4  0588               	decf	_tiempo2& (0+255),w,b
  2858  0014C6  A0D8               	btfss	status,0,c
  2859  0014C8  EF68  F00A         	goto	u4341
  2860  0014CC  EF6A  F00A         	goto	u4340
  2861  0014D0                     u4341:
  2862  0014D0  EF74  F00A         	goto	l4012
  2863  0014D4                     u4340:
  2864  0014D4                     
  2865                           ; BSR set to: 0
  2866                           ;main.c: 243:                               puntos = puntos + contador;
  2867  0014D4  51DF               	movf	_contador& (0+255),w,b
  2868  0014D6  258A               	addwf	_puntos& (0+255),w,b
  2869  0014D8  6F8A               	movwf	_puntos& (0+255),b
  2870  0014DA  51E0               	movf	(_contador+1)& (0+255),w,b
  2871  0014DC  218B               	addwfc	(_puntos+1)& (0+255),w,b
  2872  0014DE  6F8B               	movwf	(_puntos+1)& (0+255),b
  2873  0014E0                     
  2874                           ; BSR set to: 0
  2875                           ;main.c: 244:                               tiempo2 = 0;
  2876  0014E0  0E00               	movlw	0
  2877  0014E2  6F89               	movwf	(_tiempo2+1)& (0+255),b
  2878  0014E4  0E00               	movlw	0
  2879  0014E6  6F88               	movwf	_tiempo2& (0+255),b
  2880  0014E8                     l4012:
  2881                           
  2882                           ; BSR set to: 0
  2883                           ;main.c: 246:                             if(tiempo >= 15){
  2884  0014E8  C074  F001         	movff	_tiempo,___flge@ff1
  2885  0014EC  C075  F002         	movff	_tiempo+1,___flge@ff1+1
  2886  0014F0  C076  F003         	movff	_tiempo+2,___flge@ff1+2
  2887  0014F4  C077  F004         	movff	_tiempo+3,___flge@ff1+3
  2888  0014F8  0E00               	movlw	0
  2889  0014FA  6E05               	movwf	___flge@ff2^0,c
  2890  0014FC  0E00               	movlw	0
  2891  0014FE  6E06               	movwf	(___flge@ff2+1)^0,c
  2892  001500  0E70               	movlw	112
  2893  001502  6E07               	movwf	(___flge@ff2+2)^0,c
  2894  001504  0E41               	movlw	65
  2895  001506  6E08               	movwf	(___flge@ff2+3)^0,c
  2896  001508  ECED  F01A         	call	___flge	;wreg free
  2897  00150C  A0D8               	btfss	status,0,c
  2898  00150E  EF8B  F00A         	goto	u4351
  2899  001512  EF8D  F00A         	goto	u4350
  2900  001516                     u4351:
  2901  001516  EFB8  F00C         	goto	l4066
  2902  00151A                     u4350:
  2903  00151A                     
  2904                           ;main.c: 247:                                 contador ++;
  2905  00151A  0100               	movlb	0	; () banked
  2906  00151C  4BDF               	infsnz	_contador& (0+255),f,b
  2907  00151E  2BE0               	incf	(_contador+1)& (0+255),f,b
  2908  001520                     
  2909                           ; BSR set to: 0
  2910                           ;main.c: 248:                               vel = vel/contador;
  2911  001520  C0E1  F001         	movff	_vel,___awdiv@dividend
  2912  001524  C0E2  F002         	movff	_vel+1,___awdiv@dividend+1
  2913  001528  C0DF  F003         	movff	_contador,___awdiv@divisor
  2914  00152C  C0E0  F004         	movff	_contador+1,___awdiv@divisor+1
  2915  001530  EC20  F01D         	call	___awdiv	;wreg free
  2916  001534  C001  F0E1         	movff	?___awdiv,_vel
  2917  001538  C002  F0E2         	movff	?___awdiv+1,_vel+1
  2918  00153C                     
  2919                           ;main.c: 249:                                 tiempo = 0;
  2920  00153C  0E00               	movlw	0
  2921  00153E  0100               	movlb	0	; () banked
  2922  001540  6F74               	movwf	_tiempo& (0+255),b
  2923  001542  0E00               	movlw	0
  2924  001544  6F75               	movwf	(_tiempo+1)& (0+255),b
  2925  001546  0E00               	movlw	0
  2926  001548  6F76               	movwf	(_tiempo+2)& (0+255),b
  2927  00154A  0E00               	movlw	0
  2928  00154C  6F77               	movwf	(_tiempo+3)& (0+255),b
  2929  00154E  EFB8  F00C         	goto	l4066
  2930  001552                     l4020:
  2931  001552  C0D5  F001         	movff	cancion1@j,___wmul@multiplier
  2932  001556  C0D6  F002         	movff	cancion1@j+1,___wmul@multiplier+1
  2933  00155A  0E00               	movlw	0
  2934  00155C  6E04               	movwf	(___wmul@multiplicand+1)^0,c
  2935  00155E  0E0C               	movlw	12
  2936  001560  6E03               	movwf	___wmul@multiplicand^0,c
  2937  001562  EC8B  F020         	call	___wmul	;wreg free
  2938  001566  0EF8               	movlw	low (_cancion+8)
  2939  001568  2401               	addwf	?___wmul^0,w,c
  2940  00156A  6ED9               	movwf	fsr2l,c
  2941  00156C  0E05               	movlw	high (_cancion+8)
  2942  00156E  2002               	addwfc	(?___wmul+1)^0,w,c
  2943  001570  6EDA               	movwf	fsr2h,c
  2944  001572  CFDE F007          	movff	postinc2,___fleq@ff1
  2945  001576  CFDE F008          	movff	postinc2,___fleq@ff1+1
  2946  00157A  CFDE F009          	movff	postinc2,___fleq@ff1+2
  2947  00157E  CFDE F00A          	movff	postinc2,___fleq@ff1+3
  2948  001582  0E00               	movlw	0
  2949  001584  6E0B               	movwf	___fleq@ff2^0,c
  2950  001586  0E00               	movlw	0
  2951  001588  6E0C               	movwf	(___fleq@ff2+1)^0,c
  2952  00158A  0E00               	movlw	0
  2953  00158C  6E0D               	movwf	(___fleq@ff2+2)^0,c
  2954  00158E  0E00               	movlw	0
  2955  001590  6E0E               	movwf	(___fleq@ff2+3)^0,c
  2956  001592  ECDC  F01D         	call	___fleq	;wreg free
  2957  001596  A0D8               	btfss	status,0,c
  2958  001598  EFD0  F00A         	goto	u4361
  2959  00159C  EFD2  F00A         	goto	u4360
  2960  0015A0                     u4361:
  2961  0015A0  EFB8  F00C         	goto	l4066
  2962  0015A4                     u4360:
  2963  0015A4                     
  2964                           ;main.c: 257:                         WriteCmdXLCD(0x01);
  2965  0015A4  0E01               	movlw	1
  2966  0015A6  EC0A  F020         	call	_WriteCmdXLCD
  2967  0015AA                     
  2968                           ;main.c: 258:                             _delay((unsigned long)((1)*(20000000/4000.0)))
      +                          ;
  2969  0015AA  0E07               	movlw	7
  2970  0015AC  0100               	movlb	0	; () banked
  2971  0015AE  6FD0               	movwf	??_cancion1& (0+255),b
  2972  0015B0  0E7D               	movlw	125
  2973  0015B2                     u4617:
  2974  0015B2  2EE8               	decfsz	wreg,f,c
  2975  0015B4  D7FE               	bra	u4617
  2976  0015B6  2FD0               	decfsz	??_cancion1& (0+255),f,b
  2977  0015B8  D7FC               	bra	u4617
  2978  0015BA                     
  2979                           ;main.c: 259:                            LCD_gotoXY(k,leerADC(0));
  2980  0015BA  C0DD  F013         	movff	_k,LCD_gotoXY@x
  2981  0015BE  C0DE  F014         	movff	_k+1,LCD_gotoXY@x+1
  2982  0015C2  0E00               	movlw	0
  2983  0015C4  6E0A               	movwf	(leerADC@canal+1)^0,c
  2984  0015C6  0E00               	movlw	0
  2985  0015C8  6E09               	movwf	leerADC@canal^0,c
  2986  0015CA  EC82  F01D         	call	_leerADC	;wreg free
  2987  0015CE  C009  F015         	movff	?_leerADC,LCD_gotoXY@y
  2988  0015D2  C00A  F016         	movff	?_leerADC+1,LCD_gotoXY@y+1
  2989  0015D6  EC5F  F020         	call	_LCD_gotoXY	;wreg free
  2990  0015DA                     
  2991                           ;main.c: 260:                             WriteDataXLCD(0);
  2992  0015DA  0E00               	movlw	0
  2993  0015DC  EC59  F01F         	call	_WriteDataXLCD
  2994  0015E0                     
  2995                           ;main.c: 261:                             _delay((unsigned long)((1)*(20000000/4000.0)))
      +                          ;
  2996  0015E0  0E07               	movlw	7
  2997  0015E2  0100               	movlb	0	; () banked
  2998  0015E4  6FD0               	movwf	??_cancion1& (0+255),b
  2999  0015E6  0E7D               	movlw	125
  3000  0015E8                     u4627:
  3001  0015E8  2EE8               	decfsz	wreg,f,c
  3002  0015EA  D7FE               	bra	u4627
  3003  0015EC  2FD0               	decfsz	??_cancion1& (0+255),f,b
  3004  0015EE  D7FC               	bra	u4627
  3005                           
  3006                           ;main.c: 262:                             LCD_gotoXY(1,l);
  3007  0015F0  0E00               	movlw	0
  3008  0015F2  6E14               	movwf	(LCD_gotoXY@x+1)^0,c
  3009  0015F4  0E01               	movlw	1
  3010  0015F6  6E13               	movwf	LCD_gotoXY@x^0,c
  3011  0015F8  C0DB  F015         	movff	_l,LCD_gotoXY@y
  3012  0015FC  C0DC  F016         	movff	_l+1,LCD_gotoXY@y+1
  3013  001600  EC5F  F020         	call	_LCD_gotoXY	;wreg free
  3014                           
  3015                           ;main.c: 263:                             WriteDataXLCD(1);
  3016  001604  0E01               	movlw	1
  3017  001606  EC59  F01F         	call	_WriteDataXLCD
  3018  00160A                     
  3019                           ;main.c: 264:                             _delay((unsigned long)((1)*(20000000/4000.0)))
      +                          ;
  3020  00160A  0E07               	movlw	7
  3021  00160C  0100               	movlb	0	; () banked
  3022  00160E  6FD0               	movwf	??_cancion1& (0+255),b
  3023  001610  0E7D               	movlw	125
  3024  001612                     u4637:
  3025  001612  2EE8               	decfsz	wreg,f,c
  3026  001614  D7FE               	bra	u4637
  3027  001616  2FD0               	decfsz	??_cancion1& (0+255),f,b
  3028  001618  D7FC               	bra	u4637
  3029  00161A                     
  3030                           ;main.c: 265:                             LCD_gotoXY(1,12);
  3031  00161A  0E00               	movlw	0
  3032  00161C  6E14               	movwf	(LCD_gotoXY@x+1)^0,c
  3033  00161E  0E01               	movlw	1
  3034  001620  6E13               	movwf	LCD_gotoXY@x^0,c
  3035  001622  0E00               	movlw	0
  3036  001624  6E16               	movwf	(LCD_gotoXY@y+1)^0,c
  3037  001626  0E0C               	movlw	12
  3038  001628  6E15               	movwf	LCD_gotoXY@y^0,c
  3039  00162A  EC5F  F020         	call	_LCD_gotoXY	;wreg free
  3040  00162E                     
  3041                           ;main.c: 266:                             sprintf(buffer1,"%i",puntos);
  3042  00162E  0EAD               	movlw	low _buffer1
  3043  001630  6E58               	movwf	sprintf@s^0,c
  3044  001632  0E00               	movlw	high _buffer1
  3045  001634  6E59               	movwf	(sprintf@s+1)^0,c
  3046  001636  0E2A               	movlw	low STR_1
  3047  001638  6E5A               	movwf	sprintf@fmt^0,c
  3048  00163A  0E08               	movlw	high STR_1
  3049  00163C  6E5B               	movwf	(sprintf@fmt+1)^0,c
  3050  00163E  C08A  F05C         	movff	_puntos,?_sprintf+4
  3051  001642  C08B  F05D         	movff	_puntos+1,?_sprintf+5
  3052  001646  EC30  F01F         	call	_sprintf	;wreg free
  3053  00164A                     
  3054                           ;main.c: 267:                              putrsXLCD(buffer1);
  3055  00164A  0EAD               	movlw	low _buffer1
  3056  00164C  6E02               	movwf	putrsXLCD@buffer^0,c
  3057  00164E  0E00               	movlw	high _buffer1
  3058  001650  6E03               	movwf	(putrsXLCD@buffer+1)^0,c
  3059  001652  EC6C  F01E         	call	_putrsXLCD	;wreg free
  3060  001656                     
  3061                           ;main.c: 269:                                if(leerADC(0) == l && k == 1){
  3062  001656  0E00               	movlw	0
  3063  001658  6E0A               	movwf	(leerADC@canal+1)^0,c
  3064  00165A  0E00               	movlw	0
  3065  00165C  6E09               	movwf	leerADC@canal^0,c
  3066  00165E  EC82  F01D         	call	_leerADC	;wreg free
  3067  001662  0100               	movlb	0	; () banked
  3068  001664  51DB               	movf	_l& (0+255),w,b
  3069  001666  1809               	xorwf	?_leerADC^0,w,c
  3070  001668  E107               	bnz	u4371
  3071  00166A  51DC               	movf	(_l+1)& (0+255),w,b
  3072  00166C  180A               	xorwf	(?_leerADC+1)^0,w,c
  3073  00166E  A4D8               	btfss	status,2,c
  3074  001670  EF3C  F00B         	goto	u4371
  3075  001674  EF3E  F00B         	goto	u4370
  3076  001678                     u4371:
  3077  001678  EF4D  F00B         	goto	l4046
  3078  00167C                     u4370:
  3079  00167C                     
  3080                           ; BSR set to: 0
  3081  00167C  05DD               	decf	_k& (0+255),w,b
  3082  00167E  11DE               	iorwf	(_k+1)& (0+255),w,b
  3083  001680  A4D8               	btfss	status,2,c
  3084  001682  EF45  F00B         	goto	u4381
  3085  001686  EF47  F00B         	goto	u4380
  3086  00168A                     u4381:
  3087  00168A  EF4D  F00B         	goto	l4046
  3088  00168E                     u4380:
  3089  00168E                     
  3090                           ; BSR set to: 0
  3091                           ;main.c: 270:                                    puntos = puntos - contador;
  3092  00168E  51DF               	movf	_contador& (0+255),w,b
  3093  001690  5D8A               	subwf	_puntos& (0+255),w,b
  3094  001692  6F8A               	movwf	_puntos& (0+255),b
  3095  001694  51E0               	movf	(_contador+1)& (0+255),w,b
  3096  001696  598B               	subwfb	(_puntos+1)& (0+255),w,b
  3097  001698  6F8B               	movwf	(_puntos+1)& (0+255),b
  3098  00169A                     l4046:
  3099                           
  3100                           ; BSR set to: 0
  3101                           ;main.c: 273:                          silencio(vel*cancion[j][0],cancion[j][1]);
  3102  00169A  0E00               	movlw	0
  3103  00169C  6E04               	movwf	(___wmul@multiplicand+1)^0,c
  3104  00169E  0E0C               	movlw	12
  3105  0016A0  6E03               	movwf	___wmul@multiplicand^0,c
  3106  0016A2  C0D5  F001         	movff	cancion1@j,___wmul@multiplier
  3107  0016A6  C0D6  F002         	movff	cancion1@j+1,___wmul@multiplier+1
  3108  0016AA  EC8B  F020         	call	___wmul	;wreg free
  3109  0016AE  0EF0               	movlw	low _cancion
  3110  0016B0  2401               	addwf	?___wmul^0,w,c
  3111  0016B2  6ED9               	movwf	fsr2l,c
  3112  0016B4  0E05               	movlw	high _cancion
  3113  0016B6  2002               	addwfc	(?___wmul+1)^0,w,c
  3114  0016B8  6EDA               	movwf	fsr2h,c
  3115  0016BA  CFDE F013          	movff	postinc2,___flmul@a
  3116  0016BE  CFDE F014          	movff	postinc2,___flmul@a+1
  3117  0016C2  CFDE F015          	movff	postinc2,___flmul@a+2
  3118  0016C6  CFDE F016          	movff	postinc2,___flmul@a+3
  3119  0016CA  C0E1  F001         	movff	_vel,___xxtofl@val
  3120  0016CE  C0E2  F002         	movff	_vel+1,___xxtofl@val+1
  3121  0016D2  0E00               	movlw	0
  3122  0016D4  BE02               	btfsc	(___xxtofl@val+1)^0,7,c
  3123  0016D6  0EFF               	movlw	-1
  3124  0016D8  6E03               	movwf	(___xxtofl@val+2)^0,c
  3125  0016DA  6E04               	movwf	(___xxtofl@val+3)^0,c
  3126  0016DC  0E01               	movlw	1
  3127  0016DE  EC84  F016         	call	___xxtofl
  3128  0016E2  C001  F00F         	movff	?___xxtofl,___flmul@b
  3129  0016E6  C002  F010         	movff	?___xxtofl+1,___flmul@b+1
  3130  0016EA  C003  F011         	movff	?___xxtofl+2,___flmul@b+2
  3131  0016EE  C004  F012         	movff	?___xxtofl+3,___flmul@b+3
  3132  0016F2  EC4F  F00F         	call	___flmul	;wreg free
  3133  0016F6  C00F  F051         	movff	?___flmul,___fltol@f1
  3134  0016FA  C010  F052         	movff	?___flmul+1,___fltol@f1+1
  3135  0016FE  C011  F053         	movff	?___flmul+2,___fltol@f1+2
  3136  001702  C012  F054         	movff	?___flmul+3,___fltol@f1+3
  3137  001706  EC6A  F01A         	call	___fltol	;wreg free
  3138  00170A  C051  F0D3         	movff	?___fltol,_cancion1$1332
  3139  00170E  C052  F0D4         	movff	?___fltol+1,_cancion1$1332+1
  3140  001712                     
  3141                           ;main.c: 273:                          silencio(vel*cancion[j][0],cancion[j][1]);
  3142  001712  C0D3  F0C4         	movff	_cancion1$1332,silencio@duracion
  3143  001716  C0D4  F0C5         	movff	_cancion1$1332+1,silencio@duracion+1
  3144  00171A  C0D5  F001         	movff	cancion1@j,___wmul@multiplier
  3145  00171E  C0D6  F002         	movff	cancion1@j+1,___wmul@multiplier+1
  3146  001722  0E00               	movlw	0
  3147  001724  6E04               	movwf	(___wmul@multiplicand+1)^0,c
  3148  001726  0E0C               	movlw	12
  3149  001728  6E03               	movwf	___wmul@multiplicand^0,c
  3150  00172A  EC8B  F020         	call	___wmul	;wreg free
  3151  00172E  0EF4               	movlw	low (_cancion+4)
  3152  001730  2401               	addwf	?___wmul^0,w,c
  3153  001732  6ED9               	movwf	fsr2l,c
  3154  001734  0E05               	movlw	high (_cancion+4)
  3155  001736  2002               	addwfc	(?___wmul+1)^0,w,c
  3156  001738  6EDA               	movwf	fsr2h,c
  3157  00173A  CFDE F0C6          	movff	postinc2,silencio@tfrec
  3158  00173E  CFDE F0C7          	movff	postinc2,silencio@tfrec+1
  3159  001742  CFDE F0C8          	movff	postinc2,silencio@tfrec+2
  3160  001746  CFDE F0C9          	movff	postinc2,silencio@tfrec+3
  3161  00174A  EC29  F018         	call	_silencio	;wreg free
  3162  00174E                     
  3163                           ;main.c: 276:                  tiempo = tiempo + ((vel*cancion[j][0])/1000);
  3164  00174E  0E00               	movlw	0
  3165  001750  6E2C               	movwf	___fldiv@a^0,c
  3166  001752  0E00               	movlw	0
  3167  001754  6E2D               	movwf	(___fldiv@a+1)^0,c
  3168  001756  0E7A               	movlw	122
  3169  001758  6E2E               	movwf	(___fldiv@a+2)^0,c
  3170  00175A  0E44               	movlw	68
  3171  00175C  6E2F               	movwf	(___fldiv@a+3)^0,c
  3172  00175E  0E00               	movlw	0
  3173  001760  6E04               	movwf	(___wmul@multiplicand+1)^0,c
  3174  001762  0E0C               	movlw	12
  3175  001764  6E03               	movwf	___wmul@multiplicand^0,c
  3176  001766  C0D5  F001         	movff	cancion1@j,___wmul@multiplier
  3177  00176A  C0D6  F002         	movff	cancion1@j+1,___wmul@multiplier+1
  3178  00176E  EC8B  F020         	call	___wmul	;wreg free
  3179  001772  0EF0               	movlw	low _cancion
  3180  001774  2401               	addwf	?___wmul^0,w,c
  3181  001776  6ED9               	movwf	fsr2l,c
  3182  001778  0E05               	movlw	high _cancion
  3183  00177A  2002               	addwfc	(?___wmul+1)^0,w,c
  3184  00177C  6EDA               	movwf	fsr2h,c
  3185  00177E  CFDE F013          	movff	postinc2,___flmul@a
  3186  001782  CFDE F014          	movff	postinc2,___flmul@a+1
  3187  001786  CFDE F015          	movff	postinc2,___flmul@a+2
  3188  00178A  CFDE F016          	movff	postinc2,___flmul@a+3
  3189  00178E  C0E1  F001         	movff	_vel,___xxtofl@val
  3190  001792  C0E2  F002         	movff	_vel+1,___xxtofl@val+1
  3191  001796  0E00               	movlw	0
  3192  001798  BE02               	btfsc	(___xxtofl@val+1)^0,7,c
  3193  00179A  0EFF               	movlw	-1
  3194  00179C  6E03               	movwf	(___xxtofl@val+2)^0,c
  3195  00179E  6E04               	movwf	(___xxtofl@val+3)^0,c
  3196  0017A0  0E01               	movlw	1
  3197  0017A2  EC84  F016         	call	___xxtofl
  3198  0017A6  C001  F00F         	movff	?___xxtofl,___flmul@b
  3199  0017AA  C002  F010         	movff	?___xxtofl+1,___flmul@b+1
  3200  0017AE  C003  F011         	movff	?___xxtofl+2,___flmul@b+2
  3201  0017B2  C004  F012         	movff	?___xxtofl+3,___flmul@b+3
  3202  0017B6  EC4F  F00F         	call	___flmul	;wreg free
  3203  0017BA  C00F  F028         	movff	?___flmul,___fldiv@b
  3204  0017BE  C010  F029         	movff	?___flmul+1,___fldiv@b+1
  3205  0017C2  C011  F02A         	movff	?___flmul+2,___fldiv@b+2
  3206  0017C6  C012  F02B         	movff	?___flmul+3,___fldiv@b+3
  3207  0017CA  EC64  F011         	call	___fldiv	;wreg free
  3208  0017CE  C028  F041         	movff	?___fldiv,___fladd@b
  3209  0017D2  C029  F042         	movff	?___fldiv+1,___fladd@b+1
  3210  0017D6  C02A  F043         	movff	?___fldiv+2,___fladd@b+2
  3211  0017DA  C02B  F044         	movff	?___fldiv+3,___fladd@b+3
  3212  0017DE  C074  F045         	movff	_tiempo,___fladd@a
  3213  0017E2  C075  F046         	movff	_tiempo+1,___fladd@a+1
  3214  0017E6  C076  F047         	movff	_tiempo+2,___fladd@a+2
  3215  0017EA  C077  F048         	movff	_tiempo+3,___fladd@a+3
  3216  0017EE  ECEF  F00C         	call	___fladd	;wreg free
  3217  0017F2  C041  F074         	movff	?___fladd,_tiempo
  3218  0017F6  C042  F075         	movff	?___fladd+1,_tiempo+1
  3219  0017FA  C043  F076         	movff	?___fladd+2,_tiempo+2
  3220  0017FE  C044  F077         	movff	?___fladd+3,_tiempo+3
  3221  001802                     
  3222                           ;main.c: 277:                  tiempo2 = tiempo2 + ((vel*cancion[j][0])/1000);
  3223  001802  0E00               	movlw	0
  3224  001804  6E2C               	movwf	___fldiv@a^0,c
  3225  001806  0E00               	movlw	0
  3226  001808  6E2D               	movwf	(___fldiv@a+1)^0,c
  3227  00180A  0E7A               	movlw	122
  3228  00180C  6E2E               	movwf	(___fldiv@a+2)^0,c
  3229  00180E  0E44               	movlw	68
  3230  001810  6E2F               	movwf	(___fldiv@a+3)^0,c
  3231  001812  0E00               	movlw	0
  3232  001814  6E04               	movwf	(___wmul@multiplicand+1)^0,c
  3233  001816  0E0C               	movlw	12
  3234  001818  6E03               	movwf	___wmul@multiplicand^0,c
  3235  00181A  C0D5  F001         	movff	cancion1@j,___wmul@multiplier
  3236  00181E  C0D6  F002         	movff	cancion1@j+1,___wmul@multiplier+1
  3237  001822  EC8B  F020         	call	___wmul	;wreg free
  3238  001826  0EF0               	movlw	low _cancion
  3239  001828  2401               	addwf	?___wmul^0,w,c
  3240  00182A  6ED9               	movwf	fsr2l,c
  3241  00182C  0E05               	movlw	high _cancion
  3242  00182E  2002               	addwfc	(?___wmul+1)^0,w,c
  3243  001830  6EDA               	movwf	fsr2h,c
  3244  001832  CFDE F013          	movff	postinc2,___flmul@a
  3245  001836  CFDE F014          	movff	postinc2,___flmul@a+1
  3246  00183A  CFDE F015          	movff	postinc2,___flmul@a+2
  3247  00183E  CFDE F016          	movff	postinc2,___flmul@a+3
  3248  001842  C0E1  F001         	movff	_vel,___xxtofl@val
  3249  001846  C0E2  F002         	movff	_vel+1,___xxtofl@val+1
  3250  00184A  0E00               	movlw	0
  3251  00184C  BE02               	btfsc	(___xxtofl@val+1)^0,7,c
  3252  00184E  0EFF               	movlw	-1
  3253  001850  6E03               	movwf	(___xxtofl@val+2)^0,c
  3254  001852  6E04               	movwf	(___xxtofl@val+3)^0,c
  3255  001854  0E01               	movlw	1
  3256  001856  EC84  F016         	call	___xxtofl
  3257  00185A  C001  F00F         	movff	?___xxtofl,___flmul@b
  3258  00185E  C002  F010         	movff	?___xxtofl+1,___flmul@b+1
  3259  001862  C003  F011         	movff	?___xxtofl+2,___flmul@b+2
  3260  001866  C004  F012         	movff	?___xxtofl+3,___flmul@b+3
  3261  00186A  EC4F  F00F         	call	___flmul	;wreg free
  3262  00186E  C00F  F028         	movff	?___flmul,___fldiv@b
  3263  001872  C010  F029         	movff	?___flmul+1,___fldiv@b+1
  3264  001876  C011  F02A         	movff	?___flmul+2,___fldiv@b+2
  3265  00187A  C012  F02B         	movff	?___flmul+3,___fldiv@b+3
  3266  00187E  EC64  F011         	call	___fldiv	;wreg free
  3267  001882  C028  F045         	movff	?___fldiv,___fladd@a
  3268  001886  C029  F046         	movff	?___fldiv+1,___fladd@a+1
  3269  00188A  C02A  F047         	movff	?___fldiv+2,___fladd@a+2
  3270  00188E  C02B  F048         	movff	?___fldiv+3,___fladd@a+3
  3271  001892  C088  F001         	movff	_tiempo2,___xxtofl@val
  3272  001896  C089  F002         	movff	_tiempo2+1,___xxtofl@val+1
  3273  00189A  0E00               	movlw	0
  3274  00189C  BE02               	btfsc	(___xxtofl@val+1)^0,7,c
  3275  00189E  0EFF               	movlw	-1
  3276  0018A0  6E03               	movwf	(___xxtofl@val+2)^0,c
  3277  0018A2  6E04               	movwf	(___xxtofl@val+3)^0,c
  3278  0018A4  0E01               	movlw	1
  3279  0018A6  EC84  F016         	call	___xxtofl
  3280  0018AA  C001  F041         	movff	?___xxtofl,___fladd@b
  3281  0018AE  C002  F042         	movff	?___xxtofl+1,___fladd@b+1
  3282  0018B2  C003  F043         	movff	?___xxtofl+2,___fladd@b+2
  3283  0018B6  C004  F044         	movff	?___xxtofl+3,___fladd@b+3
  3284  0018BA  ECEF  F00C         	call	___fladd	;wreg free
  3285  0018BE  C041  F051         	movff	?___fladd,___fltol@f1
  3286  0018C2  C042  F052         	movff	?___fladd+1,___fltol@f1+1
  3287  0018C6  C043  F053         	movff	?___fladd+2,___fltol@f1+2
  3288  0018CA  C044  F054         	movff	?___fladd+3,___fltol@f1+3
  3289  0018CE  EC6A  F01A         	call	___fltol	;wreg free
  3290  0018D2  C051  F088         	movff	?___fltol,_tiempo2
  3291  0018D6  C052  F089         	movff	?___fltol+1,_tiempo2+1
  3292                           
  3293                           ;main.c: 279:                           if(tiempo2 >= 1){
  3294  0018DA  0100               	movlb	0	; () banked
  3295  0018DC  BF89               	btfsc	(_tiempo2+1)& (0+255),7,b
  3296  0018DE  EF79  F00C         	goto	u4391
  3297  0018E2  5189               	movf	(_tiempo2+1)& (0+255),w,b
  3298  0018E4  E108               	bnz	u4390
  3299  0018E6  0588               	decf	_tiempo2& (0+255),w,b
  3300  0018E8  A0D8               	btfss	status,0,c
  3301  0018EA  EF79  F00C         	goto	u4391
  3302  0018EE  EF7B  F00C         	goto	u4390
  3303  0018F2                     u4391:
  3304  0018F2  EF85  F00C         	goto	l4058
  3305  0018F6                     u4390:
  3306  0018F6                     
  3307                           ; BSR set to: 0
  3308                           ;main.c: 280:                               puntos = puntos + contador;
  3309  0018F6  51DF               	movf	_contador& (0+255),w,b
  3310  0018F8  258A               	addwf	_puntos& (0+255),w,b
  3311  0018FA  6F8A               	movwf	_puntos& (0+255),b
  3312  0018FC  51E0               	movf	(_contador+1)& (0+255),w,b
  3313  0018FE  218B               	addwfc	(_puntos+1)& (0+255),w,b
  3314  001900  6F8B               	movwf	(_puntos+1)& (0+255),b
  3315  001902                     
  3316                           ; BSR set to: 0
  3317                           ;main.c: 281:                               tiempo2 = 0;
  3318  001902  0E00               	movlw	0
  3319  001904  6F89               	movwf	(_tiempo2+1)& (0+255),b
  3320  001906  0E00               	movlw	0
  3321  001908  6F88               	movwf	_tiempo2& (0+255),b
  3322  00190A                     l4058:
  3323                           
  3324                           ; BSR set to: 0
  3325                           ;main.c: 283:                             if(tiempo >= 15){
  3326  00190A  C074  F001         	movff	_tiempo,___flge@ff1
  3327  00190E  C075  F002         	movff	_tiempo+1,___flge@ff1+1
  3328  001912  C076  F003         	movff	_tiempo+2,___flge@ff1+2
  3329  001916  C077  F004         	movff	_tiempo+3,___flge@ff1+3
  3330  00191A  0E00               	movlw	0
  3331  00191C  6E05               	movwf	___flge@ff2^0,c
  3332  00191E  0E00               	movlw	0
  3333  001920  6E06               	movwf	(___flge@ff2+1)^0,c
  3334  001922  0E70               	movlw	112
  3335  001924  6E07               	movwf	(___flge@ff2+2)^0,c
  3336  001926  0E41               	movlw	65
  3337  001928  6E08               	movwf	(___flge@ff2+3)^0,c
  3338  00192A  ECED  F01A         	call	___flge	;wreg free
  3339  00192E  A0D8               	btfss	status,0,c
  3340  001930  EF9C  F00C         	goto	u4401
  3341  001934  EF9E  F00C         	goto	u4400
  3342  001938                     u4401:
  3343  001938  EFB8  F00C         	goto	l4066
  3344  00193C                     u4400:
  3345  00193C                     
  3346                           ;main.c: 284:                                 contador ++;
  3347  00193C  0100               	movlb	0	; () banked
  3348  00193E  4BDF               	infsnz	_contador& (0+255),f,b
  3349  001940  2BE0               	incf	(_contador+1)& (0+255),f,b
  3350  001942                     
  3351                           ; BSR set to: 0
  3352                           ;main.c: 285:                               vel = vel/contador;
  3353  001942  C0E1  F001         	movff	_vel,___awdiv@dividend
  3354  001946  C0E2  F002         	movff	_vel+1,___awdiv@dividend+1
  3355  00194A  C0DF  F003         	movff	_contador,___awdiv@divisor
  3356  00194E  C0E0  F004         	movff	_contador+1,___awdiv@divisor+1
  3357  001952  EC20  F01D         	call	___awdiv	;wreg free
  3358  001956  C001  F0E1         	movff	?___awdiv,_vel
  3359  00195A  C002  F0E2         	movff	?___awdiv+1,_vel+1
  3360  00195E                     
  3361                           ;main.c: 286:                                 tiempo = 0;
  3362  00195E  0E00               	movlw	0
  3363  001960  0100               	movlb	0	; () banked
  3364  001962  6F74               	movwf	_tiempo& (0+255),b
  3365  001964  0E00               	movlw	0
  3366  001966  6F75               	movwf	(_tiempo+1)& (0+255),b
  3367  001968  0E00               	movlw	0
  3368  00196A  6F76               	movwf	(_tiempo+2)& (0+255),b
  3369  00196C  0E00               	movlw	0
  3370  00196E  6F77               	movwf	(_tiempo+3)& (0+255),b
  3371  001970                     l4066:
  3372                           
  3373                           ;main.c: 293:               WriteCmdXLCD(0x01);
  3374  001970  0E01               	movlw	1
  3375  001972  EC0A  F020         	call	_WriteCmdXLCD
  3376  001976                     
  3377                           ;main.c: 294:                             _delay((unsigned long)((1)*(20000000/4000.0)))
      +                          ;
  3378  001976  0E07               	movlw	7
  3379  001978  0100               	movlb	0	; () banked
  3380  00197A  6FD0               	movwf	??_cancion1& (0+255),b
  3381  00197C  0E7D               	movlw	125
  3382  00197E                     u4647:
  3383  00197E  2EE8               	decfsz	wreg,f,c
  3384  001980  D7FE               	bra	u4647
  3385  001982  2FD0               	decfsz	??_cancion1& (0+255),f,b
  3386  001984  D7FC               	bra	u4647
  3387  001986                     
  3388                           ;main.c: 295:             i--;
  3389  001986  0100               	movlb	0	; () banked
  3390  001988  0786               	decf	_i& (0+255),f,b
  3391  00198A  A0D8               	btfss	status,0,c
  3392  00198C  0787               	decf	(_i+1)& (0+255),f,b
  3393  00198E                     
  3394                           ; BSR set to: 0
  3395                           ;main.c: 296:             l++;
  3396  00198E  4BDB               	infsnz	_l& (0+255),f,b
  3397  001990  2BDC               	incf	(_l+1)& (0+255),f,b
  3398  001992                     
  3399                           ; BSR set to: 0
  3400                           ;main.c: 297:             f = 1;
  3401  001992  0E01               	movlw	1
  3402  001994  6F8C               	movwf	_f& (0+255),b
  3403                           
  3404                           ;main.c: 299:              if(i == 0){
  3405  001996  5186               	movf	_i& (0+255),w,b
  3406  001998  1187               	iorwf	(_i+1)& (0+255),w,b
  3407  00199A  A4D8               	btfss	status,2,c
  3408  00199C  EFD2  F00C         	goto	u4411
  3409  0019A0  EFD4  F00C         	goto	u4410
  3410  0019A4                     u4411:
  3411  0019A4  EFD6  F00C         	goto	l4078
  3412  0019A8                     u4410:
  3413  0019A8                     
  3414                           ; BSR set to: 0
  3415                           ;main.c: 300:              f = 0;
  3416  0019A8  0E00               	movlw	0
  3417  0019AA  6F8C               	movwf	_f& (0+255),b
  3418  0019AC                     l4078:
  3419                           
  3420                           ; BSR set to: 0
  3421                           ;main.c: 305:    }
  3422  0019AC  4BD5               	infsnz	cancion1@j& (0+255),f,b
  3423  0019AE  2BD6               	incf	(cancion1@j+1)& (0+255),f,b
  3424  0019B0                     
  3425                           ; BSR set to: 0
  3426  0019B0  BFD6               	btfsc	(cancion1@j+1)& (0+255),7,b
  3427  0019B2  EFE4  F00C         	goto	u4421
  3428  0019B6  51D6               	movf	(cancion1@j+1)& (0+255),w,b
  3429  0019B8  E109               	bnz	u4420
  3430  0019BA  0E2C               	movlw	44
  3431  0019BC  5DD5               	subwf	cancion1@j& (0+255),w,b
  3432  0019BE  A0D8               	btfss	status,0,c
  3433  0019C0  EFE4  F00C         	goto	u4421
  3434  0019C4  EFE6  F00C         	goto	u4420
  3435  0019C8                     u4421:
  3436  0019C8  EF1D  F004         	goto	l3858
  3437  0019CC                     u4420:
  3438  0019CC                     l4082:
  3439                           
  3440                           ;main.c: 133:     while(puntos >= 0){
  3441  0019CC  0100               	movlb	0	; () banked
  3442  0019CE  BF8B               	btfsc	(_puntos+1)& (0+255),7,b
  3443  0019D0  EFEE  F00C         	goto	u4430
  3444  0019D4  EFEC  F00C         	goto	u4431
  3445  0019D8                     u4431:
  3446  0019D8  EF19  F004         	goto	l3852
  3447  0019DC                     u4430:
  3448  0019DC                     
  3449                           ; BSR set to: 0
  3450  0019DC  0012               	return		;funcret
  3451  0019DE                     __end_of_cancion1:
  3452                           	callstack 0
  3453                           
  3454 ;; *************** function _tocar_nota *****************
  3455 ;; Defined at:
  3456 ;;		line 28 in file "main.c"
  3457 ;; Parameters:    Size  Location     Type
  3458 ;;  duracion        2    0[BANK0 ] int 
  3459 ;;  tfrec           4    2[BANK0 ] float 
  3460 ;; Auto vars:     Size  Location     Type
  3461 ;;  duracion2       2   10[BANK0 ] int 
  3462 ;; Return value:  Size  Location     Type
  3463 ;;                  1    wreg      void 
  3464 ;; Registers used:
  3465 ;;		wreg, status,2, status,0, cstack
  3466 ;; Tracked objects:
  3467 ;;		On entry : 0/0
  3468 ;;		On exit  : 0/0
  3469 ;;		Unchanged: 0/0
  3470 ;; Data sizes:     COMRAM   BANK0   BANK1   BANK2   BANK3   BANK4   BANK5   BANK6   BANK7
  3471 ;;      Params:         0       6       0       0       0       0       0       0       0
  3472 ;;      Locals:         0       6       0       0       0       0       0       0       0
  3473 ;;      Temps:          1       0       0       0       0       0       0       0       0
  3474 ;;      Totals:         1      12       0       0       0       0       0       0       0
  3475 ;;Total ram usage:       13 bytes
  3476 ;; Hardware stack levels used: 1
  3477 ;; Hardware stack levels required when called: 2
  3478 ;; This function calls:
  3479 ;;		___fldiv
  3480 ;;		___flsub
  3481 ;;		___fltol
  3482 ;;		___xxtofl
  3483 ;; This function is called by:
  3484 ;;		_cancion1
  3485 ;; This function uses a non-reentrant model
  3486 ;;
  3487                           
  3488                           	psect	text4
  3489  002EBC                     __ptext4:
  3490                           	callstack 0
  3491  002EBC                     _tocar_nota:
  3492                           	callstack 27
  3493  002EBC                     
  3494                           ;main.c: 30:      int duracion2;;main.c: 31:      duracion2 = (int)duracion/tfrec;
  3495  002EBC  C0C6  F02C         	movff	tocar_nota@tfrec,___fldiv@a
  3496  002EC0  C0C7  F02D         	movff	tocar_nota@tfrec+1,___fldiv@a+1
  3497  002EC4  C0C8  F02E         	movff	tocar_nota@tfrec+2,___fldiv@a+2
  3498  002EC8  C0C9  F02F         	movff	tocar_nota@tfrec+3,___fldiv@a+3
  3499  002ECC  C0C4  F001         	movff	tocar_nota@duracion,___xxtofl@val
  3500  002ED0  C0C5  F002         	movff	tocar_nota@duracion+1,___xxtofl@val+1
  3501  002ED4  0E00               	movlw	0
  3502  002ED6  BE02               	btfsc	(___xxtofl@val+1)^0,7,c
  3503  002ED8  0EFF               	movlw	-1
  3504  002EDA  6E03               	movwf	(___xxtofl@val+2)^0,c
  3505  002EDC  6E04               	movwf	(___xxtofl@val+3)^0,c
  3506  002EDE  0E01               	movlw	1
  3507  002EE0  EC84  F016         	call	___xxtofl
  3508  002EE4  C001  F028         	movff	?___xxtofl,___fldiv@b
  3509  002EE8  C002  F029         	movff	?___xxtofl+1,___fldiv@b+1
  3510  002EEC  C003  F02A         	movff	?___xxtofl+2,___fldiv@b+2
  3511  002EF0  C004  F02B         	movff	?___xxtofl+3,___fldiv@b+3
  3512  002EF4  EC64  F011         	call	___fldiv	;wreg free
  3513  002EF8  C028  F051         	movff	?___fldiv,___fltol@f1
  3514  002EFC  C029  F052         	movff	?___fldiv+1,___fltol@f1+1
  3515  002F00  C02A  F053         	movff	?___fldiv+2,___fltol@f1+2
  3516  002F04  C02B  F054         	movff	?___fldiv+3,___fltol@f1+3
  3517  002F08  EC6A  F01A         	call	___fltol	;wreg free
  3518  002F0C  C051  F0CE         	movff	?___fltol,tocar_nota@duracion2
  3519  002F10  C052  F0CF         	movff	?___fltol+1,tocar_nota@duracion2+1
  3520                           
  3521                           ;main.c: 32:      tfrec = 255-((tfrec/2)/(.0002*128));
  3522  002F14  0E00               	movlw	0
  3523  002F16  6E2C               	movwf	___fldiv@a^0,c
  3524  002F18  0E00               	movlw	0
  3525  002F1A  6E2D               	movwf	(___fldiv@a+1)^0,c
  3526  002F1C  0E00               	movlw	0
  3527  002F1E  6E2E               	movwf	(___fldiv@a+2)^0,c
  3528  002F20  0E40               	movlw	64
  3529  002F22  6E2F               	movwf	(___fldiv@a+3)^0,c
  3530  002F24  C0C6  F028         	movff	tocar_nota@tfrec,___fldiv@b
  3531  002F28  C0C7  F029         	movff	tocar_nota@tfrec+1,___fldiv@b+1
  3532  002F2C  C0C8  F02A         	movff	tocar_nota@tfrec+2,___fldiv@b+2
  3533  002F30  C0C9  F02B         	movff	tocar_nota@tfrec+3,___fldiv@b+3
  3534  002F34  EC64  F011         	call	___fldiv	;wreg free
  3535  002F38  C028  F0CA         	movff	?___fldiv,_tocar_nota$1329
  3536  002F3C  C029  F0CB         	movff	?___fldiv+1,_tocar_nota$1329+1
  3537  002F40  C02A  F0CC         	movff	?___fldiv+2,_tocar_nota$1329+2
  3538  002F44  C02B  F0CD         	movff	?___fldiv+3,_tocar_nota$1329+3
  3539                           
  3540                           ;main.c: 32:      tfrec = 255-((tfrec/2)/(.0002*128));
  3541  002F48  0E00               	movlw	0
  3542  002F4A  6E51               	movwf	___flsub@b^0,c
  3543  002F4C  0E00               	movlw	0
  3544  002F4E  6E52               	movwf	(___flsub@b+1)^0,c
  3545  002F50  0E7F               	movlw	127
  3546  002F52  6E53               	movwf	(___flsub@b+2)^0,c
  3547  002F54  0E43               	movlw	67
  3548  002F56  6E54               	movwf	(___flsub@b+3)^0,c
  3549  002F58  0E17               	movlw	23
  3550  002F5A  6E2C               	movwf	___fldiv@a^0,c
  3551  002F5C  0EB7               	movlw	183
  3552  002F5E  6E2D               	movwf	(___fldiv@a+1)^0,c
  3553  002F60  0ED1               	movlw	209
  3554  002F62  6E2E               	movwf	(___fldiv@a+2)^0,c
  3555  002F64  0E3C               	movlw	60
  3556  002F66  6E2F               	movwf	(___fldiv@a+3)^0,c
  3557  002F68  C0CA  F028         	movff	_tocar_nota$1329,___fldiv@b
  3558  002F6C  C0CB  F029         	movff	_tocar_nota$1329+1,___fldiv@b+1
  3559  002F70  C0CC  F02A         	movff	_tocar_nota$1329+2,___fldiv@b+2
  3560  002F74  C0CD  F02B         	movff	_tocar_nota$1329+3,___fldiv@b+3
  3561  002F78  EC64  F011         	call	___fldiv	;wreg free
  3562  002F7C  C028  F055         	movff	?___fldiv,___flsub@a
  3563  002F80  C029  F056         	movff	?___fldiv+1,___flsub@a+1
  3564  002F84  C02A  F057         	movff	?___fldiv+2,___flsub@a+2
  3565  002F88  C02B  F058         	movff	?___fldiv+3,___flsub@a+3
  3566  002F8C  EC82  F01F         	call	___flsub	;wreg free
  3567  002F90  C051  F0C6         	movff	?___flsub,tocar_nota@tfrec
  3568  002F94  C052  F0C7         	movff	?___flsub+1,tocar_nota@tfrec+1
  3569  002F98  C053  F0C8         	movff	?___flsub+2,tocar_nota@tfrec+2
  3570  002F9C  C054  F0C9         	movff	?___flsub+3,tocar_nota@tfrec+3
  3571  002FA0                     
  3572                           ;main.c: 34:        for(b=0;b<duracion2;b++){
  3573  002FA0  0E00               	movlw	0
  3574  002FA2  0100               	movlb	0	; () banked
  3575  002FA4  6F83               	movwf	(_b+1)& (0+255),b
  3576  002FA6  0E00               	movlw	0
  3577  002FA8  6F82               	movwf	_b& (0+255),b
  3578  002FAA  EF19  F018         	goto	l3608
  3579  002FAE                     l196:
  3580                           
  3581                           ; BSR set to: 0
  3582                           ;main.c: 35:             if(PORTBbits.RB0 == 1){
  3583  002FAE  A081               	btfss	129,0,c	;volatile
  3584  002FB0  EFDC  F017         	goto	u3711
  3585  002FB4  EFDE  F017         	goto	u3710
  3586  002FB8                     u3711:
  3587  002FB8  EFE4  F017         	goto	l3598
  3588  002FBC                     u3710:
  3589  002FBC                     
  3590                           ; BSR set to: 0
  3591                           ;main.c: 36:                                     k = 0;
  3592  002FBC  0E00               	movlw	0
  3593  002FBE  6FDE               	movwf	(_k+1)& (0+255),b
  3594  002FC0  0E00               	movlw	0
  3595  002FC2  6FDD               	movwf	_k& (0+255),b
  3596                           
  3597                           ;main.c: 37:                                 }
  3598  002FC4  EFE8  F017         	goto	l3600
  3599  002FC8                     l3598:
  3600                           
  3601                           ; BSR set to: 0
  3602                           ;main.c: 39:                                     k = 1;
  3603  002FC8  0E00               	movlw	0
  3604  002FCA  6FDE               	movwf	(_k+1)& (0+255),b
  3605  002FCC  0E01               	movlw	1
  3606  002FCE  6FDD               	movwf	_k& (0+255),b
  3607  002FD0                     l3600:
  3608                           
  3609                           ; BSR set to: 0
  3610                           ;main.c: 41:            PORTBbits.RB1 = 1;
  3611  002FD0  8281               	bsf	129,1,c	;volatile
  3612  002FD2                     
  3613                           ; BSR set to: 0
  3614                           ;main.c: 42:            TMR0 = tfrec;
  3615  002FD2  C0C6  F051         	movff	tocar_nota@tfrec,___fltol@f1
  3616  002FD6  C0C7  F052         	movff	tocar_nota@tfrec+1,___fltol@f1+1
  3617  002FDA  C0C8  F053         	movff	tocar_nota@tfrec+2,___fltol@f1+2
  3618  002FDE  C0C9  F054         	movff	tocar_nota@tfrec+3,___fltol@f1+3
  3619  002FE2  EC6A  F01A         	call	___fltol	;wreg free
  3620  002FE6  C051  FFD6         	movff	?___fltol,4054	;volatile
  3621  002FEA  C052  FFD7         	movff	?___fltol+1,4055	;volatile
  3622  002FEE                     l199:
  3623  002FEE  A4F2               	btfss	242,2,c	;volatile
  3624  002FF0  EFFC  F017         	goto	u3721
  3625  002FF4  EFFE  F017         	goto	u3720
  3626  002FF8                     u3721:
  3627  002FF8  EFF7  F017         	goto	l199
  3628  002FFC                     u3720:
  3629  002FFC                     
  3630                           ;main.c: 44:            INTCONbits.TMR0IF=0;
  3631  002FFC  94F2               	bcf	242,2,c	;volatile
  3632                           
  3633                           ;main.c: 46:         PORTBbits.RB1=0;
  3634  002FFE  9281               	bcf	129,1,c	;volatile
  3635  003000                     
  3636                           ;main.c: 47:          TMR0 = tfrec;
  3637  003000  C0C6  F051         	movff	tocar_nota@tfrec,___fltol@f1
  3638  003004  C0C7  F052         	movff	tocar_nota@tfrec+1,___fltol@f1+1
  3639  003008  C0C8  F053         	movff	tocar_nota@tfrec+2,___fltol@f1+2
  3640  00300C  C0C9  F054         	movff	tocar_nota@tfrec+3,___fltol@f1+3
  3641  003010  EC6A  F01A         	call	___fltol	;wreg free
  3642  003014  C051  FFD6         	movff	?___fltol,4054	;volatile
  3643  003018  C052  FFD7         	movff	?___fltol+1,4055	;volatile
  3644  00301C                     l202:
  3645  00301C  A4F2               	btfss	242,2,c	;volatile
  3646  00301E  EF13  F018         	goto	u3731
  3647  003022  EF15  F018         	goto	u3730
  3648  003026                     u3731:
  3649  003026  EF0E  F018         	goto	l202
  3650  00302A                     u3730:
  3651  00302A                     
  3652                           ;main.c: 49:          INTCONbits.TMR0IF=0;
  3653  00302A  94F2               	bcf	242,2,c	;volatile
  3654  00302C                     
  3655                           ;main.c: 50: }
  3656  00302C  0100               	movlb	0	; () banked
  3657  00302E  4B82               	infsnz	_b& (0+255),f,b
  3658  003030  2B83               	incf	(_b+1)& (0+255),f,b
  3659  003032                     l3608:
  3660                           
  3661                           ; BSR set to: 0
  3662  003032  51CE               	movf	tocar_nota@duracion2& (0+255),w,b
  3663  003034  5D82               	subwf	_b& (0+255),w,b
  3664  003036  5183               	movf	(_b+1)& (0+255),w,b
  3665  003038  0A80               	xorlw	128
  3666  00303A  6E5B               	movwf	??_tocar_nota^0,c
  3667  00303C  51CF               	movf	(tocar_nota@duracion2+1)& (0+255),w,b
  3668  00303E  0A80               	xorlw	128
  3669  003040  585B               	subwfb	??_tocar_nota^0,w,c
  3670  003042  A0D8               	btfss	status,0,c
  3671  003044  EF26  F018         	goto	u3741
  3672  003048  EF28  F018         	goto	u3740
  3673  00304C                     u3741:
  3674  00304C  EFD7  F017         	goto	l196
  3675  003050                     u3740:
  3676  003050                     
  3677                           ; BSR set to: 0
  3678  003050  0012               	return		;funcret
  3679  003052                     __end_of_tocar_nota:
  3680                           	callstack 0
  3681                           
  3682 ;; *************** function _sprintf *****************
  3683 ;; Defined at:
  3684 ;;		line 9 in file "C:\Program Files\Microchip\xc8\v2.32\pic\sources\c99\common\nf_sprintf.c"
  3685 ;; Parameters:    Size  Location     Type
  3686 ;;  s               2   87[COMRAM] PTR unsigned char 
  3687 ;;		 -> buffer1(23), 
  3688 ;;  fmt             2   89[COMRAM] PTR const unsigned char 
  3689 ;;		 -> STR_4(3), STR_3(3), STR_2(3), STR_1(3), 
  3690 ;; Auto vars:     Size  Location     Type
  3691 ;;  f               6    2[BANK0 ] struct _IO_FILE
  3692 ;;  ap              2    0[BANK0 ] PTR void [1]
  3693 ;;		 -> ?_sprintf(2), 
  3694 ;;  ret             2    0        int 
  3695 ;; Return value:  Size  Location     Type
  3696 ;;                  2   87[COMRAM] int 
  3697 ;; Registers used:
  3698 ;;		wreg, fsr1l, fsr1h, fsr2l, fsr2h, status,2, status,0, tblptrl, tblptrh, tblptru, cstack
  3699 ;; Tracked objects:
  3700 ;;		On entry : 0/0
  3701 ;;		On exit  : 0/0
  3702 ;;		Unchanged: 0/0
  3703 ;; Data sizes:     COMRAM   BANK0   BANK1   BANK2   BANK3   BANK4   BANK5   BANK6   BANK7
  3704 ;;      Params:         6       0       0       0       0       0       0       0       0
  3705 ;;      Locals:         0       8       0       0       0       0       0       0       0
  3706 ;;      Temps:          0       0       0       0       0       0       0       0       0
  3707 ;;      Totals:         6       8       0       0       0       0       0       0       0
  3708 ;;Total ram usage:       14 bytes
  3709 ;; Hardware stack levels used: 1
  3710 ;; Hardware stack levels required when called: 7
  3711 ;; This function calls:
  3712 ;;		_vfprintf
  3713 ;; This function is called by:
  3714 ;;		_cancion1
  3715 ;; This function uses a non-reentrant model
  3716 ;;
  3717                           
  3718                           	psect	text5
  3719  003E60                     __ptext5:
  3720                           	callstack 0
  3721  003E60                     _sprintf:
  3722                           	callstack 22
  3723  003E60  0E5C               	movlw	low (?_sprintf+4)
  3724  003E62  0100               	movlb	0	; () banked
  3725  003E64  6FC4               	movwf	sprintf@ap& (0+255),b
  3726  003E66  0E00               	movlw	high (?_sprintf+4)
  3727  003E68  6FC5               	movwf	(sprintf@ap+1)& (0+255),b
  3728  003E6A  C058  F0C6         	movff	sprintf@s,sprintf@f
  3729  003E6E  C059  F0C7         	movff	sprintf@s+1,sprintf@f+1
  3730  003E72                     
  3731                           ; BSR set to: 0
  3732  003E72  0E00               	movlw	0
  3733  003E74  6FC9               	movwf	(sprintf@f+3)& (0+255),b
  3734  003E76  0E00               	movlw	0
  3735  003E78  6FC8               	movwf	(sprintf@f+2)& (0+255),b
  3736  003E7A                     
  3737                           ; BSR set to: 0
  3738  003E7A  0E00               	movlw	0
  3739  003E7C  6FCB               	movwf	(sprintf@f+5)& (0+255),b
  3740  003E7E  0E00               	movlw	0
  3741  003E80  6FCA               	movwf	(sprintf@f+4)& (0+255),b
  3742  003E82                     
  3743                           ; BSR set to: 0
  3744  003E82  0EC6               	movlw	low sprintf@f
  3745  003E84  6E50               	movwf	vfprintf@fp^0,c
  3746  003E86  0E00               	movlw	high sprintf@f
  3747  003E88  6E51               	movwf	(vfprintf@fp+1)^0,c
  3748  003E8A  C05A  F052         	movff	sprintf@fmt,vfprintf@fmt
  3749  003E8E  C05B  F053         	movff	sprintf@fmt+1,vfprintf@fmt+1
  3750  003E92  0EC4               	movlw	low sprintf@ap
  3751  003E94  6E54               	movwf	vfprintf@ap^0,c
  3752  003E96  0E00               	movlw	high sprintf@ap
  3753  003E98  6E55               	movwf	(vfprintf@ap+1)^0,c
  3754  003E9A  ECA5  F01E         	call	_vfprintf	;wreg free
  3755  003E9E  0100               	movlb	0	; () banked
  3756  003EA0  51C8               	movf	(sprintf@f+2)& (0+255),w,b
  3757  003EA2  2458               	addwf	sprintf@s^0,w,c
  3758  003EA4  6ED9               	movwf	fsr2l,c
  3759  003EA6  51C9               	movf	(sprintf@f+3)& (0+255),w,b
  3760  003EA8  2059               	addwfc	(sprintf@s+1)^0,w,c
  3761  003EAA  6EDA               	movwf	fsr2h,c
  3762  003EAC  0E00               	movlw	0
  3763  003EAE  6EDF               	movwf	indf2,c
  3764  003EB0                     
  3765                           ; BSR set to: 0
  3766  003EB0  0012               	return		;funcret
  3767  003EB2                     __end_of_sprintf:
  3768                           	callstack 0
  3769                           
  3770 ;; *************** function _vfprintf *****************
  3771 ;; Defined at:
  3772 ;;		line 1390 in file "C:\Program Files\Microchip\xc8\v2.32\pic\sources\c99\common\doprnt.c"
  3773 ;; Parameters:    Size  Location     Type
  3774 ;;  fp              2   79[COMRAM] PTR struct _IO_FILE
  3775 ;;		 -> sprintf@f(6), 
  3776 ;;  fmt             2   81[COMRAM] PTR const unsigned char 
  3777 ;;		 -> STR_4(3), STR_3(3), STR_2(3), STR_1(3), 
  3778 ;;  ap              2   83[COMRAM] PTR PTR void 
  3779 ;;		 -> sprintf@ap(2), 
  3780 ;; Auto vars:     Size  Location     Type
  3781 ;;  cfmt            2   85[COMRAM] PTR unsigned char 
  3782 ;;		 -> STR_4(3), STR_3(3), STR_2(3), STR_1(3), 
  3783 ;; Return value:  Size  Location     Type
  3784 ;;                  2   79[COMRAM] int 
  3785 ;; Registers used:
  3786 ;;		wreg, fsr1l, fsr1h, fsr2l, fsr2h, status,2, status,0, tblptrl, tblptrh, tblptru, cstack
  3787 ;; Tracked objects:
  3788 ;;		On entry : 0/0
  3789 ;;		On exit  : 0/0
  3790 ;;		Unchanged: 0/0
  3791 ;; Data sizes:     COMRAM   BANK0   BANK1   BANK2   BANK3   BANK4   BANK5   BANK6   BANK7
  3792 ;;      Params:         6       0       0       0       0       0       0       0       0
  3793 ;;      Locals:         2       0       0       0       0       0       0       0       0
  3794 ;;      Temps:          0       0       0       0       0       0       0       0       0
  3795 ;;      Totals:         8       0       0       0       0       0       0       0       0
  3796 ;;Total ram usage:        8 bytes
  3797 ;; Hardware stack levels used: 1
  3798 ;; Hardware stack levels required when called: 6
  3799 ;; This function calls:
  3800 ;;		_vfpfcnvrt
  3801 ;; This function is called by:
  3802 ;;		_sprintf
  3803 ;; This function uses a non-reentrant model
  3804 ;;
  3805                           
  3806                           	psect	text6
  3807  003D4A                     __ptext6:
  3808                           	callstack 0
  3809  003D4A                     _vfprintf:
  3810                           	callstack 22
  3811  003D4A                     
  3812                           ;C:\Program Files\Microchip\xc8\v2.32\pic\sources\c99\common\doprnt.c: 1390: int vfprint
      +                          f(FILE *fp, const char *fmt, va_list ap);C:\Program Files\Microchip\xc8\v2.32\pic\source
      +                          s\c99\common\doprnt.c: 1391: {;C:\Program Files\Microchip\xc8\v2.32\pic\sources\c99\comm
      +                          on\doprnt.c: 1393:     char *cfmt;;C:\Program Files\Microchip\xc8\v2.32\pic\sources\c99\
      +                          common\doprnt.c: 1395:     cfmt = (char *)fmt;
  3813  003D4A  C052  F056         	movff	vfprintf@fmt,vfprintf@cfmt
  3814  003D4E  C053  F057         	movff	vfprintf@fmt+1,vfprintf@cfmt+1
  3815  003D52                     
  3816                           ;C:\Program Files\Microchip\xc8\v2.32\pic\sources\c99\common\doprnt.c: 1396:     nout = 
      +                          0;
  3817  003D52  0E00               	movlw	0
  3818  003D54  0100               	movlb	0	; () banked
  3819  003D56  6F79               	movwf	(_nout+1)& (0+255),b
  3820  003D58  0E00               	movlw	0
  3821  003D5A  6F78               	movwf	_nout& (0+255),b
  3822                           
  3823                           ;C:\Program Files\Microchip\xc8\v2.32\pic\sources\c99\common\doprnt.c: 1397:     while (
      +                          *cfmt) {
  3824  003D5C  EFC3  F01E         	goto	l3490
  3825  003D60                     l3488:
  3826                           
  3827                           ; BSR set to: 0
  3828                           ;C:\Program Files\Microchip\xc8\v2.32\pic\sources\c99\common\doprnt.c: 1398:         nou
      +                          t += vfpfcnvrt(fp, &cfmt, ap);
  3829  003D60  C050  F040         	movff	vfprintf@fp,vfpfcnvrt@fp
  3830  003D64  C051  F041         	movff	vfprintf@fp+1,vfpfcnvrt@fp+1
  3831  003D68  0E56               	movlw	low vfprintf@cfmt
  3832  003D6A  6E42               	movwf	vfpfcnvrt@fmt^0,c
  3833  003D6C  0E00               	movlw	high vfprintf@cfmt
  3834  003D6E  6E43               	movwf	(vfpfcnvrt@fmt+1)^0,c
  3835  003D70  C054  F044         	movff	vfprintf@ap,vfpfcnvrt@ap
  3836  003D74  C055  F045         	movff	vfprintf@ap+1,vfpfcnvrt@ap+1
  3837  003D78  ECAA  F015         	call	_vfpfcnvrt	;wreg free
  3838  003D7C  5040               	movf	?_vfpfcnvrt^0,w,c
  3839  003D7E  0100               	movlb	0	; () banked
  3840  003D80  2778               	addwf	_nout& (0+255),f,b
  3841  003D82  5041               	movf	(?_vfpfcnvrt+1)^0,w,c
  3842  003D84  2379               	addwfc	(_nout+1)& (0+255),f,b
  3843  003D86                     l3490:
  3844                           
  3845                           ; BSR set to: 0
  3846                           ;C:\Program Files\Microchip\xc8\v2.32\pic\sources\c99\common\doprnt.c: 1397:     while (
      +                          *cfmt) {
  3847  003D86  C056  FFF6         	movff	vfprintf@cfmt,tblptrl
  3848  003D8A  C057  FFF7         	movff	vfprintf@cfmt+1,tblptrh
  3849  003D8E                     	if	0	;tblptru may be non-zero
  3850  003D8E                     	endif
  3851  003D8E                     	if	0	;tblptru may be non-zero
  3852  003D8E                     	endif
  3853  003D8E  0008               	tblrd		*
  3854  003D90  50F5               	movf	tablat,w,c
  3855  003D92  0900               	iorlw	0
  3856  003D94  A4D8               	btfss	status,2,c
  3857  003D96  EFCF  F01E         	goto	u3561
  3858  003D9A  EFD1  F01E         	goto	u3560
  3859  003D9E                     u3561:
  3860  003D9E  EFB0  F01E         	goto	l3488
  3861  003DA2                     u3560:
  3862  003DA2                     
  3863                           ; BSR set to: 0
  3864                           ;C:\Program Files\Microchip\xc8\v2.32\pic\sources\c99\common\doprnt.c: 1400:     return 
      +                          nout;
  3865  003DA2  C078  F050         	movff	_nout,?_vfprintf
  3866  003DA6  C079  F051         	movff	_nout+1,?_vfprintf+1
  3867  003DAA                     
  3868                           ; BSR set to: 0
  3869  003DAA  0012               	return		;funcret
  3870  003DAC                     __end_of_vfprintf:
  3871                           	callstack 0
  3872                           
  3873 ;; *************** function _vfpfcnvrt *****************
  3874 ;; Defined at:
  3875 ;;		line 692 in file "C:\Program Files\Microchip\xc8\v2.32\pic\sources\c99\common\doprnt.c"
  3876 ;; Parameters:    Size  Location     Type
  3877 ;;  fp              2   63[COMRAM] PTR struct _IO_FILE
  3878 ;;		 -> sprintf@f(6), 
  3879 ;;  fmt             2   65[COMRAM] PTR PTR unsigned char 
  3880 ;;		 -> vfprintf@cfmt(2), 
  3881 ;;  ap              2   67[COMRAM] PTR PTR void 
  3882 ;;		 -> sprintf@ap(2), 
  3883 ;; Auto vars:     Size  Location     Type
  3884 ;;  ll              8   71[COMRAM] long long 
  3885 ;;  llu             8    0        unsigned long long 
  3886 ;;  f               4    0        unsigned long long 
  3887 ;;  vp              3    0        PTR void 
  3888 ;;  ct              3    0        unsigned char [3]
  3889 ;;  cp              3    0        PTR unsigned char 
  3890 ;;  i               2    0        int 
  3891 ;;  done            2    0        int 
  3892 ;;  c               1    0        unsigned char 
  3893 ;; Return value:  Size  Location     Type
  3894 ;;                  2   63[COMRAM] int 
  3895 ;; Registers used:
  3896 ;;		wreg, fsr1l, fsr1h, fsr2l, fsr2h, status,2, status,0, tblptrl, tblptrh, tblptru, cstack
  3897 ;; Tracked objects:
  3898 ;;		On entry : 0/0
  3899 ;;		On exit  : 0/0
  3900 ;;		Unchanged: 0/0
  3901 ;; Data sizes:     COMRAM   BANK0   BANK1   BANK2   BANK3   BANK4   BANK5   BANK6   BANK7
  3902 ;;      Params:         6       0       0       0       0       0       0       0       0
  3903 ;;      Locals:         8       0       0       0       0       0       0       0       0
  3904 ;;      Temps:          2       0       0       0       0       0       0       0       0
  3905 ;;      Totals:        16       0       0       0       0       0       0       0       0
  3906 ;;Total ram usage:       16 bytes
  3907 ;; Hardware stack levels used: 1
  3908 ;; Hardware stack levels required when called: 5
  3909 ;; This function calls:
  3910 ;;		_dtoa
  3911 ;;		_fputc
  3912 ;; This function is called by:
  3913 ;;		_vfprintf
  3914 ;; This function uses a non-reentrant model
  3915 ;;
  3916                           
  3917                           	psect	text7
  3918  002B54                     __ptext7:
  3919                           	callstack 0
  3920  002B54                     _vfpfcnvrt:
  3921                           	callstack 22
  3922  002B54                     
  3923                           ;C:\Program Files\Microchip\xc8\v2.32\pic\sources\c99\common\doprnt.c: 692: static int v
      +                          fpfcnvrt(FILE *fp, char *fmt[], va_list ap);C:\Program Files\Microchip\xc8\v2.32\pic\sou
      +                          rces\c99\common\doprnt.c: 693: {;C:\Program Files\Microchip\xc8\v2.32\pic\sources\c99\co
      +                          mmon\doprnt.c: 694:     char c, *cp, ct[3];;C:\Program Files\Microchip\xc8\v2.32\pic\sou
      +                          rces\c99\common\doprnt.c: 695:     int done, i;;C:\Program Files\Microchip\xc8\v2.32\pic
      +                          \sources\c99\common\doprnt.c: 696:     long long ll;;C:\Program Files\Microchip\xc8\v2.3
      +                          2\pic\sources\c99\common\doprnt.c: 697:     unsigned long long llu;
  3924  002B54  C042  FFD9         	movff	vfpfcnvrt@fmt,fsr2l
  3925  002B58  C043  FFDA         	movff	vfpfcnvrt@fmt+1,fsr2h
  3926  002B5C  CFDE FFF6          	movff	postinc2,tblptrl
  3927  002B60  CFDD FFF7          	movff	postdec2,tblptrh
  3928  002B64                     	if	0	;tblptru may be non-zero
  3929  002B64                     	endif
  3930  002B64                     	if	0	;tblptru may be non-zero
  3931  002B64                     	endif
  3932  002B64  0008               	tblrd		*
  3933  002B66  50F5               	movf	tablat,w,c
  3934  002B68  0A25               	xorlw	37
  3935  002B6A  A4D8               	btfss	status,2,c
  3936  002B6C  EFBA  F015         	goto	u3041
  3937  002B70  EFBC  F015         	goto	u3040
  3938  002B74                     u3041:
  3939  002B74  EF68  F016         	goto	l3118
  3940  002B78                     u3040:
  3941  002B78                     
  3942                           ;C:\Program Files\Microchip\xc8\v2.32\pic\sources\c99\common\doprnt.c: 703:         ++*f
      +                          mt;
  3943  002B78  C042  FFD9         	movff	vfpfcnvrt@fmt,fsr2l
  3944  002B7C  C043  FFDA         	movff	vfpfcnvrt@fmt+1,fsr2h
  3945  002B80  2ADE               	incf	postinc2,f,c
  3946  002B82  0E00               	movlw	0
  3947  002B84  22DD               	addwfc	postdec2,f,c
  3948  002B86                     
  3949                           ;C:\Program Files\Microchip\xc8\v2.32\pic\sources\c99\common\doprnt.c: 705:         flag
      +                          s = width = 0;
  3950  002B86  0E00               	movlw	0
  3951  002B88  0100               	movlb	0	; () banked
  3952  002B8A  6F7B               	movwf	(_width+1)& (0+255),b
  3953  002B8C  0E00               	movlw	0
  3954  002B8E  6F7A               	movwf	_width& (0+255),b
  3955  002B90  C07A  F07E         	movff	_width,_flags
  3956  002B94  C07B  F07F         	movff	_width+1,_flags+1
  3957  002B98                     
  3958                           ; BSR set to: 0
  3959                           ;C:\Program Files\Microchip\xc8\v2.32\pic\sources\c99\common\doprnt.c: 706:         prec
      +                           = -1;
  3960  002B98  697C               	setf	_prec& (0+255),b
  3961  002B9A  697D               	setf	(_prec+1)& (0+255),b
  3962  002B9C                     
  3963                           ; BSR set to: 0
  3964                           ;C:\Program Files\Microchip\xc8\v2.32\pic\sources\c99\common\doprnt.c: 847:         if (
      +                          (*fmt[0] == 'd') || (*fmt[0] == 'i')) {
  3965  002B9C  C042  FFD9         	movff	vfpfcnvrt@fmt,fsr2l
  3966  002BA0  C043  FFDA         	movff	vfpfcnvrt@fmt+1,fsr2h
  3967  002BA4  CFDE FFF6          	movff	postinc2,tblptrl
  3968  002BA8  CFDD FFF7          	movff	postdec2,tblptrh
  3969  002BAC                     	if	0	;tblptru may be non-zero
  3970  002BAC                     	endif
  3971  002BAC                     	if	0	;tblptru may be non-zero
  3972  002BAC                     	endif
  3973  002BAC  0008               	tblrd		*
  3974  002BAE  50F5               	movf	tablat,w,c
  3975  002BB0  0A64               	xorlw	100
  3976  002BB2  B4D8               	btfsc	status,2,c
  3977  002BB4  EFDE  F015         	goto	u3051
  3978  002BB8  EFE0  F015         	goto	u3050
  3979  002BBC                     u3051:
  3980  002BBC  EFF2  F015         	goto	l3096
  3981  002BC0                     u3050:
  3982  002BC0                     
  3983                           ; BSR set to: 0
  3984  002BC0  C042  FFD9         	movff	vfpfcnvrt@fmt,fsr2l
  3985  002BC4  C043  FFDA         	movff	vfpfcnvrt@fmt+1,fsr2h
  3986  002BC8  CFDE FFF6          	movff	postinc2,tblptrl
  3987  002BCC  CFDD FFF7          	movff	postdec2,tblptrh
  3988  002BD0                     	if	0	;tblptru may be non-zero
  3989  002BD0                     	endif
  3990  002BD0                     	if	0	;tblptru may be non-zero
  3991  002BD0                     	endif
  3992  002BD0  0008               	tblrd		*
  3993  002BD2  50F5               	movf	tablat,w,c
  3994  002BD4  0A69               	xorlw	105
  3995  002BD6  A4D8               	btfss	status,2,c
  3996  002BD8  EFF0  F015         	goto	u3061
  3997  002BDC  EFF2  F015         	goto	u3060
  3998  002BE0                     u3061:
  3999  002BE0  EF32  F016         	goto	l3102
  4000  002BE4                     u3060:
  4001  002BE4                     l3096:
  4002                           
  4003                           ; BSR set to: 0
  4004                           ;C:\Program Files\Microchip\xc8\v2.32\pic\sources\c99\common\doprnt.c: 849:             
      +                          ++*fmt;
  4005  002BE4  C042  FFD9         	movff	vfpfcnvrt@fmt,fsr2l
  4006  002BE8  C043  FFDA         	movff	vfpfcnvrt@fmt+1,fsr2h
  4007  002BEC  2ADE               	incf	postinc2,f,c
  4008  002BEE  0E00               	movlw	0
  4009  002BF0  22DD               	addwfc	postdec2,f,c
  4010                           
  4011                           ;C:\Program Files\Microchip\xc8\v2.32\pic\sources\c99\common\doprnt.c: 850:             
      +                          ll = (long long)(*(int *)__va_arg(*(int **)ap, (int)0));
  4012  002BF2  C044  FFD9         	movff	vfpfcnvrt@ap,fsr2l
  4013  002BF6  C045  FFDA         	movff	vfpfcnvrt@ap+1,fsr2h
  4014  002BFA  CFDF F046          	movff	indf2,??_vfpfcnvrt
  4015  002BFE  0E02               	movlw	2
  4016  002C00  26DE               	addwf	postinc2,f,c
  4017  002C02  CFDF F047          	movff	indf2,??_vfpfcnvrt+1
  4018  002C06  0E00               	movlw	0
  4019  002C08  22DD               	addwfc	postdec2,f,c
  4020  002C0A  C046  FFD9         	movff	??_vfpfcnvrt,fsr2l
  4021  002C0E  C047  FFDA         	movff	??_vfpfcnvrt+1,fsr2h
  4022  002C12  CFDE F048          	movff	postinc2,vfpfcnvrt@ll
  4023  002C16  CFDD F049          	movff	postdec2,vfpfcnvrt@ll+1
  4024  002C1A  0E00               	movlw	0
  4025  002C1C  BE49               	btfsc	(vfpfcnvrt@ll+1)^0,7,c
  4026  002C1E  0EFF               	movlw	-1
  4027  002C20  6E4A               	movwf	(vfpfcnvrt@ll+2)^0,c
  4028  002C22  6E4B               	movwf	(vfpfcnvrt@ll+3)^0,c
  4029  002C24  6E4C               	movwf	(vfpfcnvrt@ll+4)^0,c
  4030  002C26  6E4D               	movwf	(vfpfcnvrt@ll+5)^0,c
  4031  002C28  6E4E               	movwf	(vfpfcnvrt@ll+6)^0,c
  4032  002C2A  6E4F               	movwf	(vfpfcnvrt@ll+7)^0,c
  4033  002C2C                     
  4034                           ; BSR set to: 0
  4035                           ;C:\Program Files\Microchip\xc8\v2.32\pic\sources\c99\common\doprnt.c: 852:             
      +                          return dtoa(fp, ll);
  4036  002C2C  C040  F01C         	movff	vfpfcnvrt@fp,dtoa@fp
  4037  002C30  C041  F01D         	movff	vfpfcnvrt@fp+1,dtoa@fp+1
  4038  002C34  C048  F01E         	movff	vfpfcnvrt@ll,dtoa@d
  4039  002C38  C049  F01F         	movff	vfpfcnvrt@ll+1,dtoa@d+1
  4040  002C3C  C04A  F020         	movff	vfpfcnvrt@ll+2,dtoa@d+2
  4041  002C40  C04B  F021         	movff	vfpfcnvrt@ll+3,dtoa@d+3
  4042  002C44  C04C  F022         	movff	vfpfcnvrt@ll+4,dtoa@d+4
  4043  002C48  C04D  F023         	movff	vfpfcnvrt@ll+5,dtoa@d+5
  4044  002C4C  C04E  F024         	movff	vfpfcnvrt@ll+6,dtoa@d+6
  4045  002C50  C04F  F025         	movff	vfpfcnvrt@ll+7,dtoa@d+7
  4046  002C54  EC31  F013         	call	_dtoa	;wreg free
  4047  002C58  C01C  F040         	movff	?_dtoa,?_vfpfcnvrt
  4048  002C5C  C01D  F041         	movff	?_dtoa+1,?_vfpfcnvrt+1
  4049  002C60  EF83  F016         	goto	l1039
  4050  002C64                     l3102:
  4051                           
  4052                           ; BSR set to: 0
  4053                           ;C:\Program Files\Microchip\xc8\v2.32\pic\sources\c99\common\doprnt.c: 1372:         if 
      +                          ((*fmt)[0] == '%') {
  4054  002C64  C042  FFD9         	movff	vfpfcnvrt@fmt,fsr2l
  4055  002C68  C043  FFDA         	movff	vfpfcnvrt@fmt+1,fsr2h
  4056  002C6C  CFDE FFF6          	movff	postinc2,tblptrl
  4057  002C70  CFDD FFF7          	movff	postdec2,tblptrh
  4058  002C74                     	if	0	;tblptru may be non-zero
  4059  002C74                     	endif
  4060  002C74                     	if	0	;tblptru may be non-zero
  4061  002C74                     	endif
  4062  002C74  0008               	tblrd		*
  4063  002C76  50F5               	movf	tablat,w,c
  4064  002C78  0A25               	xorlw	37
  4065  002C7A  A4D8               	btfss	status,2,c
  4066  002C7C  EF42  F016         	goto	u3071
  4067  002C80  EF44  F016         	goto	u3070
  4068  002C84                     u3071:
  4069  002C84  EF5B  F016         	goto	l3112
  4070  002C88                     u3070:
  4071  002C88                     
  4072                           ; BSR set to: 0
  4073                           ;C:\Program Files\Microchip\xc8\v2.32\pic\sources\c99\common\doprnt.c: 1373:            
      +                           ++*fmt;
  4074  002C88  C042  FFD9         	movff	vfpfcnvrt@fmt,fsr2l
  4075  002C8C  C043  FFDA         	movff	vfpfcnvrt@fmt+1,fsr2h
  4076  002C90  2ADE               	incf	postinc2,f,c
  4077  002C92  0E00               	movlw	0
  4078  002C94  22DD               	addwfc	postdec2,f,c
  4079  002C96                     
  4080                           ; BSR set to: 0
  4081                           ;C:\Program Files\Microchip\xc8\v2.32\pic\sources\c99\common\doprnt.c: 1374:            
      +                           fputc((int)'%', fp);
  4082  002C96  0E00               	movlw	0
  4083  002C98  6E02               	movwf	(fputc@c+1)^0,c
  4084  002C9A  0E25               	movlw	37
  4085  002C9C  6E01               	movwf	fputc@c^0,c
  4086  002C9E  C040  F003         	movff	vfpfcnvrt@fp,fputc@fp
  4087  002CA2  C041  F004         	movff	vfpfcnvrt@fp+1,fputc@fp+1
  4088  002CA6  EC58  F01C         	call	_fputc	;wreg free
  4089  002CAA                     l3108:
  4090                           
  4091                           ;C:\Program Files\Microchip\xc8\v2.32\pic\sources\c99\common\doprnt.c: 1375:            
      +                           return 1;
  4092  002CAA  0E00               	movlw	0
  4093  002CAC  6E41               	movwf	(?_vfpfcnvrt+1)^0,c
  4094  002CAE  0E01               	movlw	1
  4095  002CB0  6E40               	movwf	?_vfpfcnvrt^0,c
  4096  002CB2  EF83  F016         	goto	l1039
  4097  002CB6                     l3112:
  4098                           
  4099                           ; BSR set to: 0
  4100                           ;C:\Program Files\Microchip\xc8\v2.32\pic\sources\c99\common\doprnt.c: 1379:         ++*
      +                          fmt;
  4101  002CB6  C042  FFD9         	movff	vfpfcnvrt@fmt,fsr2l
  4102  002CBA  C043  FFDA         	movff	vfpfcnvrt@fmt+1,fsr2h
  4103  002CBE  2ADE               	incf	postinc2,f,c
  4104  002CC0  0E00               	movlw	0
  4105  002CC2  22DD               	addwfc	postdec2,f,c
  4106  002CC4                     
  4107                           ; BSR set to: 0
  4108                           ;C:\Program Files\Microchip\xc8\v2.32\pic\sources\c99\common\doprnt.c: 1380:         ret
      +                          urn 0;
  4109  002CC4  0E00               	movlw	0
  4110  002CC6  6E41               	movwf	(?_vfpfcnvrt+1)^0,c
  4111  002CC8  0E00               	movlw	0
  4112  002CCA  6E40               	movwf	?_vfpfcnvrt^0,c
  4113  002CCC  EF83  F016         	goto	l1039
  4114  002CD0                     l3118:
  4115                           
  4116                           ;C:\Program Files\Microchip\xc8\v2.32\pic\sources\c99\common\doprnt.c: 1384:     fputc((
      +                          int)(*fmt)[0], fp);
  4117  002CD0  C042  FFD9         	movff	vfpfcnvrt@fmt,fsr2l
  4118  002CD4  C043  FFDA         	movff	vfpfcnvrt@fmt+1,fsr2h
  4119  002CD8  CFDE FFF6          	movff	postinc2,tblptrl
  4120  002CDC  CFDD FFF7          	movff	postdec2,tblptrh
  4121  002CE0                     	if	0	;tblptru may be non-zero
  4122  002CE0                     	endif
  4123  002CE0                     	if	0	;tblptru may be non-zero
  4124  002CE0                     	endif
  4125  002CE0  0008               	tblrd		*
  4126  002CE2  50F5               	movf	tablat,w,c
  4127  002CE4  6E01               	movwf	fputc@c^0,c
  4128  002CE6  6A02               	clrf	(fputc@c+1)^0,c
  4129  002CE8  C040  F003         	movff	vfpfcnvrt@fp,fputc@fp
  4130  002CEC  C041  F004         	movff	vfpfcnvrt@fp+1,fputc@fp+1
  4131  002CF0  EC58  F01C         	call	_fputc	;wreg free
  4132  002CF4                     
  4133                           ;C:\Program Files\Microchip\xc8\v2.32\pic\sources\c99\common\doprnt.c: 1385:     ++*fmt;
  4134  002CF4  C042  FFD9         	movff	vfpfcnvrt@fmt,fsr2l
  4135  002CF8  C043  FFDA         	movff	vfpfcnvrt@fmt+1,fsr2h
  4136  002CFC  2ADE               	incf	postinc2,f,c
  4137  002CFE  0E00               	movlw	0
  4138  002D00  22DD               	addwfc	postdec2,f,c
  4139  002D02  EF55  F016         	goto	l3108
  4140  002D06                     l1039:
  4141  002D06  0012               	return		;funcret
  4142  002D08                     __end_of_vfpfcnvrt:
  4143                           	callstack 0
  4144                           
  4145 ;; *************** function _dtoa *****************
  4146 ;; Defined at:
  4147 ;;		line 287 in file "C:\Program Files\Microchip\xc8\v2.32\pic\sources\c99\common\doprnt.c"
  4148 ;; Parameters:    Size  Location     Type
  4149 ;;  fp              2   27[COMRAM] PTR struct _IO_FILE
  4150 ;;		 -> sprintf@f(6), 
  4151 ;;  d               8   29[COMRAM] long long 
  4152 ;; Auto vars:     Size  Location     Type
  4153 ;;  n               8   53[COMRAM] long long 
  4154 ;;  i               2   61[COMRAM] int 
  4155 ;;  s               2   51[COMRAM] int 
  4156 ;;  w               2   49[COMRAM] int 
  4157 ;;  p               2   47[COMRAM] int 
  4158 ;; Return value:  Size  Location     Type
  4159 ;;                  2   27[COMRAM] int 
  4160 ;; Registers used:
  4161 ;;		wreg, fsr1l, fsr1h, fsr2l, fsr2h, status,2, status,0, cstack
  4162 ;; Tracked objects:
  4163 ;;		On entry : 0/0
  4164 ;;		On exit  : 0/0
  4165 ;;		Unchanged: 0/0
  4166 ;; Data sizes:     COMRAM   BANK0   BANK1   BANK2   BANK3   BANK4   BANK5   BANK6   BANK7
  4167 ;;      Params:        10       0       0       0       0       0       0       0       0
  4168 ;;      Locals:        18       0       0       0       0       0       0       0       0
  4169 ;;      Temps:          8       0       0       0       0       0       0       0       0
  4170 ;;      Totals:        36       0       0       0       0       0       0       0       0
  4171 ;;Total ram usage:       36 bytes
  4172 ;; Hardware stack levels used: 1
  4173 ;; Hardware stack levels required when called: 4
  4174 ;; This function calls:
  4175 ;;		___aodiv
  4176 ;;		___aomod
  4177 ;;		_abs
  4178 ;;		_pad
  4179 ;; This function is called by:
  4180 ;;		_vfpfcnvrt
  4181 ;; This function uses a non-reentrant model
  4182 ;;
  4183                           
  4184                           	psect	text8
  4185  002662                     __ptext8:
  4186                           	callstack 0
  4187  002662                     _dtoa:
  4188                           	callstack 22
  4189  002662                     
  4190                           ;C:\Program Files\Microchip\xc8\v2.32\pic\sources\c99\common\doprnt.c: 287: static int d
      +                          toa(FILE *fp, long long d);C:\Program Files\Microchip\xc8\v2.32\pic\sources\c99\common\d
      +                          oprnt.c: 288: {;C:\Program Files\Microchip\xc8\v2.32\pic\sources\c99\common\doprnt.c: 28
      +                          9:     int i, p, s, w;;C:\Program Files\Microchip\xc8\v2.32\pic\sources\c99\common\doprn
      +                          t.c: 290:     long long n;;C:\Program Files\Microchip\xc8\v2.32\pic\sources\c99\common\d
      +                          oprnt.c: 293:     n = d;
  4191  002662  C01E  F036         	movff	dtoa@d,dtoa@n
  4192  002666  C01F  F037         	movff	dtoa@d+1,dtoa@n+1
  4193  00266A  C020  F038         	movff	dtoa@d+2,dtoa@n+2
  4194  00266E  C021  F039         	movff	dtoa@d+3,dtoa@n+3
  4195  002672  C022  F03A         	movff	dtoa@d+4,dtoa@n+4
  4196  002676  C023  F03B         	movff	dtoa@d+5,dtoa@n+5
  4197  00267A  C024  F03C         	movff	dtoa@d+6,dtoa@n+6
  4198  00267E  C025  F03D         	movff	dtoa@d+7,dtoa@n+7
  4199  002682                     
  4200                           ;C:\Program Files\Microchip\xc8\v2.32\pic\sources\c99\common\doprnt.c: 294:     s = n < 
      +                          0 ? 1 : 0;
  4201  002682  BE3D               	btfsc	(dtoa@n+7)^0,7,c
  4202  002684  EF46  F013         	goto	u2491
  4203  002688  EF49  F013         	goto	u2490
  4204  00268C                     u2491:
  4205  00268C  0E01               	movlw	1
  4206  00268E  EF4A  F013         	goto	u2500
  4207  002692                     u2490:
  4208  002692  0E00               	movlw	0
  4209  002694                     u2500:
  4210  002694  6E34               	movwf	dtoa@s^0,c
  4211  002696  6A35               	clrf	(dtoa@s+1)^0,c
  4212                           
  4213                           ;C:\Program Files\Microchip\xc8\v2.32\pic\sources\c99\common\doprnt.c: 295:     if (s) {
  4214  002698  5034               	movf	dtoa@s^0,w,c
  4215  00269A  1035               	iorwf	(dtoa@s+1)^0,w,c
  4216  00269C  B4D8               	btfsc	status,2,c
  4217  00269E  EF53  F013         	goto	u2511
  4218  0026A2  EF55  F013         	goto	u2510
  4219  0026A6                     u2511:
  4220  0026A6  EF65  F013         	goto	l2790
  4221  0026AA                     u2510:
  4222  0026AA                     
  4223                           ;C:\Program Files\Microchip\xc8\v2.32\pic\sources\c99\common\doprnt.c: 296:         n = 
      +                          -n;
  4224  0026AA  1E3D               	comf	(dtoa@n+7)^0,f,c
  4225  0026AC  1E3C               	comf	(dtoa@n+6)^0,f,c
  4226  0026AE  1E3B               	comf	(dtoa@n+5)^0,f,c
  4227  0026B0  1E3A               	comf	(dtoa@n+4)^0,f,c
  4228  0026B2  1E39               	comf	(dtoa@n+3)^0,f,c
  4229  0026B4  1E38               	comf	(dtoa@n+2)^0,f,c
  4230  0026B6  1E37               	comf	(dtoa@n+1)^0,f,c
  4231  0026B8  6C36               	negf	dtoa@n^0,c
  4232  0026BA  0E00               	movlw	0
  4233  0026BC  2237               	addwfc	(dtoa@n+1)^0,f,c
  4234  0026BE  2238               	addwfc	(dtoa@n+2)^0,f,c
  4235  0026C0  2239               	addwfc	(dtoa@n+3)^0,f,c
  4236  0026C2  223A               	addwfc	(dtoa@n+4)^0,f,c
  4237  0026C4  223B               	addwfc	(dtoa@n+5)^0,f,c
  4238  0026C6  223C               	addwfc	(dtoa@n+6)^0,f,c
  4239  0026C8  223D               	addwfc	(dtoa@n+7)^0,f,c
  4240  0026CA                     l2790:
  4241                           
  4242                           ;C:\Program Files\Microchip\xc8\v2.32\pic\sources\c99\common\doprnt.c: 300:     if (!(pr
      +                          ec < 0)) {
  4243  0026CA  0100               	movlb	0	; () banked
  4244  0026CC  BF7D               	btfsc	(_prec+1)& (0+255),7,b
  4245  0026CE  EF6B  F013         	goto	u2521
  4246  0026D2  EF6D  F013         	goto	u2520
  4247  0026D6                     u2521:
  4248  0026D6  EF6E  F013         	goto	l2794
  4249  0026DA                     u2520:
  4250  0026DA                     
  4251                           ; BSR set to: 0
  4252                           ;C:\Program Files\Microchip\xc8\v2.32\pic\sources\c99\common\doprnt.c: 301:         flag
      +                          s &= ~(1 << 1);
  4253  0026DA  937E               	bcf	_flags& (0+255),1,b
  4254  0026DC                     l2794:
  4255                           
  4256                           ; BSR set to: 0
  4257                           ;C:\Program Files\Microchip\xc8\v2.32\pic\sources\c99\common\doprnt.c: 303:     p = (0 <
      +                           prec) ? prec : 1;
  4258  0026DC  BF7D               	btfsc	(_prec+1)& (0+255),7,b
  4259  0026DE  EF7B  F013         	goto	u2530
  4260  0026E2  517D               	movf	(_prec+1)& (0+255),w,b
  4261  0026E4  E106               	bnz	u2531
  4262  0026E6  057C               	decf	_prec& (0+255),w,b
  4263  0026E8  B0D8               	btfsc	status,0,c
  4264  0026EA  EF79  F013         	goto	u2531
  4265  0026EE  EF7B  F013         	goto	u2530
  4266  0026F2                     u2531:
  4267  0026F2  EF81  F013         	goto	l1012
  4268  0026F6                     u2530:
  4269  0026F6                     
  4270                           ; BSR set to: 0
  4271  0026F6  0E00               	movlw	0
  4272  0026F8  6E31               	movwf	(dtoa@p+1)^0,c
  4273  0026FA  0E01               	movlw	1
  4274  0026FC  6E30               	movwf	dtoa@p^0,c
  4275  0026FE  EF85  F013         	goto	l1014
  4276  002702                     l1012:
  4277                           
  4278                           ; BSR set to: 0
  4279  002702  C07C  F030         	movff	_prec,dtoa@p
  4280  002706  C07D  F031         	movff	_prec+1,dtoa@p+1
  4281  00270A                     l1014:
  4282                           
  4283                           ; BSR set to: 0
  4284                           ;C:\Program Files\Microchip\xc8\v2.32\pic\sources\c99\common\doprnt.c: 304:     w = widt
      +                          h;
  4285  00270A  C07A  F032         	movff	_width,dtoa@w
  4286  00270E  C07B  F033         	movff	_width+1,dtoa@w+1
  4287  002712                     
  4288                           ; BSR set to: 0
  4289                           ;C:\Program Files\Microchip\xc8\v2.32\pic\sources\c99\common\doprnt.c: 305:     if (s ||
      +                           (flags & (1 << 2))) {
  4290  002712  5034               	movf	dtoa@s^0,w,c
  4291  002714  1035               	iorwf	(dtoa@s+1)^0,w,c
  4292  002716  A4D8               	btfss	status,2,c
  4293  002718  EF90  F013         	goto	u2541
  4294  00271C  EF92  F013         	goto	u2540
  4295  002720                     u2541:
  4296  002720  EF99  F013         	goto	l2802
  4297  002724                     u2540:
  4298  002724                     
  4299                           ; BSR set to: 0
  4300  002724  A57E               	btfss	_flags& (0+255),2,b
  4301  002726  EF97  F013         	goto	u2551
  4302  00272A  EF99  F013         	goto	u2550
  4303  00272E                     u2551:
  4304  00272E  EF9C  F013         	goto	l2804
  4305  002732                     u2550:
  4306  002732                     l2802:
  4307                           
  4308                           ; BSR set to: 0
  4309                           ;C:\Program Files\Microchip\xc8\v2.32\pic\sources\c99\common\doprnt.c: 306:         --w;
  4310  002732  0632               	decf	dtoa@w^0,f,c
  4311  002734  A0D8               	btfss	status,0,c
  4312  002736  0633               	decf	(dtoa@w+1)^0,f,c
  4313  002738                     l2804:
  4314                           
  4315                           ; BSR set to: 0
  4316                           ;C:\Program Files\Microchip\xc8\v2.32\pic\sources\c99\common\doprnt.c: 310:     i = size
      +                          of(dbuf) - 1;
  4317  002738  0E00               	movlw	0
  4318  00273A  6E3F               	movwf	(dtoa@i+1)^0,c
  4319  00273C  0E1F               	movlw	31
  4320  00273E  6E3E               	movwf	dtoa@i^0,c
  4321  002740                     
  4322                           ; BSR set to: 0
  4323                           ;C:\Program Files\Microchip\xc8\v2.32\pic\sources\c99\common\doprnt.c: 311:     dbuf[i] 
      +                          = '\0';
  4324  002740  0E00               	movlw	0
  4325  002742  6FAC               	movwf	(_dbuf+31)& (0+255),b
  4326                           
  4327                           ;C:\Program Files\Microchip\xc8\v2.32\pic\sources\c99\common\doprnt.c: 312:     while (!
      +                          (i < 1) && (n || (0 < p) || ((0 < w) && (flags & (1 << 1))))) {
  4328  002744  EF20  F014         	goto	l2818
  4329  002748                     l2808:
  4330                           
  4331                           ;C:\Program Files\Microchip\xc8\v2.32\pic\sources\c99\common\doprnt.c: 313:         --i;
  4332  002748  063E               	decf	dtoa@i^0,f,c
  4333  00274A  A0D8               	btfss	status,0,c
  4334  00274C  063F               	decf	(dtoa@i+1)^0,f,c
  4335  00274E                     
  4336                           ;C:\Program Files\Microchip\xc8\v2.32\pic\sources\c99\common\doprnt.c: 314:         dbuf
      +                          [i] = (char)((int)'0' + abs(n % 10));
  4337  00274E  0E8D               	movlw	low _dbuf
  4338  002750  243E               	addwf	dtoa@i^0,w,c
  4339  002752  6ED9               	movwf	fsr2l,c
  4340  002754  0E00               	movlw	high _dbuf
  4341  002756  203F               	addwfc	(dtoa@i+1)^0,w,c
  4342  002758  6EDA               	movwf	fsr2h,c
  4343  00275A  C036  F001         	movff	dtoa@n,___aomod@dividend
  4344  00275E  C037  F002         	movff	dtoa@n+1,___aomod@dividend+1
  4345  002762  C038  F003         	movff	dtoa@n+2,___aomod@dividend+2
  4346  002766  C039  F004         	movff	dtoa@n+3,___aomod@dividend+3
  4347  00276A  C03A  F005         	movff	dtoa@n+4,___aomod@dividend+4
  4348  00276E  C03B  F006         	movff	dtoa@n+5,___aomod@dividend+5
  4349  002772  C03C  F007         	movff	dtoa@n+6,___aomod@dividend+6
  4350  002776  C03D  F008         	movff	dtoa@n+7,___aomod@dividend+7
  4351  00277A  0E0A               	movlw	10
  4352  00277C  6E09               	movwf	___aomod@divisor^0,c
  4353  00277E  0E00               	movlw	0
  4354  002780  6E0A               	movwf	(___aomod@divisor+1)^0,c
  4355  002782  0E00               	movlw	0
  4356  002784  6E0B               	movwf	(___aomod@divisor+2)^0,c
  4357  002786  0E00               	movlw	0
  4358  002788  6E0C               	movwf	(___aomod@divisor+3)^0,c
  4359  00278A  0E00               	movlw	0
  4360  00278C  6E0D               	movwf	(___aomod@divisor+4)^0,c
  4361  00278E  0E00               	movlw	0
  4362  002790  6E0E               	movwf	(___aomod@divisor+5)^0,c
  4363  002792  0E00               	movlw	0
  4364  002794  6E0F               	movwf	(___aomod@divisor+6)^0,c
  4365  002796  0E00               	movlw	0
  4366  002798  6E10               	movwf	(___aomod@divisor+7)^0,c
  4367  00279A  ECB8  F019         	call	___aomod	;wreg free
  4368  00279E  C001  F026         	movff	?___aomod,??_dtoa
  4369  0027A2  C002  F027         	movff	?___aomod+1,??_dtoa+1
  4370  0027A6  C003  F028         	movff	?___aomod+2,??_dtoa+2
  4371  0027AA  C004  F029         	movff	?___aomod+3,??_dtoa+3
  4372  0027AE  C005  F02A         	movff	?___aomod+4,??_dtoa+4
  4373  0027B2  C006  F02B         	movff	?___aomod+5,??_dtoa+5
  4374  0027B6  C007  F02C         	movff	?___aomod+6,??_dtoa+6
  4375  0027BA  C008  F02D         	movff	?___aomod+7,??_dtoa+7
  4376  0027BE  C026  F013         	movff	??_dtoa,abs@a
  4377  0027C2  C028  F014         	movff	??_dtoa+2,abs@a+1
  4378  0027C6  ECEA  F01F         	call	_abs	;wreg free
  4379  0027CA  5013               	movf	?_abs^0,w,c
  4380  0027CC  0F30               	addlw	48
  4381  0027CE  6EDF               	movwf	indf2,c
  4382  0027D0                     
  4383                           ;C:\Program Files\Microchip\xc8\v2.32\pic\sources\c99\common\doprnt.c: 315:         --p;
  4384  0027D0  0630               	decf	dtoa@p^0,f,c
  4385  0027D2  A0D8               	btfss	status,0,c
  4386  0027D4  0631               	decf	(dtoa@p+1)^0,f,c
  4387  0027D6                     
  4388                           ;C:\Program Files\Microchip\xc8\v2.32\pic\sources\c99\common\doprnt.c: 316:         --w;
  4389  0027D6  0632               	decf	dtoa@w^0,f,c
  4390  0027D8  A0D8               	btfss	status,0,c
  4391  0027DA  0633               	decf	(dtoa@w+1)^0,f,c
  4392  0027DC                     
  4393                           ;C:\Program Files\Microchip\xc8\v2.32\pic\sources\c99\common\doprnt.c: 317:         n = 
      +                          n / 10;
  4394  0027DC  C036  F001         	movff	dtoa@n,___aodiv@dividend
  4395  0027E0  C037  F002         	movff	dtoa@n+1,___aodiv@dividend+1
  4396  0027E4  C038  F003         	movff	dtoa@n+2,___aodiv@dividend+2
  4397  0027E8  C039  F004         	movff	dtoa@n+3,___aodiv@dividend+3
  4398  0027EC  C03A  F005         	movff	dtoa@n+4,___aodiv@dividend+4
  4399  0027F0  C03B  F006         	movff	dtoa@n+5,___aodiv@dividend+5
  4400  0027F4  C03C  F007         	movff	dtoa@n+6,___aodiv@dividend+6
  4401  0027F8  C03D  F008         	movff	dtoa@n+7,___aodiv@dividend+7
  4402  0027FC  0E0A               	movlw	10
  4403  0027FE  6E09               	movwf	___aodiv@divisor^0,c
  4404  002800  0E00               	movlw	0
  4405  002802  6E0A               	movwf	(___aodiv@divisor+1)^0,c
  4406  002804  0E00               	movlw	0
  4407  002806  6E0B               	movwf	(___aodiv@divisor+2)^0,c
  4408  002808  0E00               	movlw	0
  4409  00280A  6E0C               	movwf	(___aodiv@divisor+3)^0,c
  4410  00280C  0E00               	movlw	0
  4411  00280E  6E0D               	movwf	(___aodiv@divisor+4)^0,c
  4412  002810  0E00               	movlw	0
  4413  002812  6E0E               	movwf	(___aodiv@divisor+5)^0,c
  4414  002814  0E00               	movlw	0
  4415  002816  6E0F               	movwf	(___aodiv@divisor+6)^0,c
  4416  002818  0E00               	movlw	0
  4417  00281A  6E10               	movwf	(___aodiv@divisor+7)^0,c
  4418  00281C  ECF4  F018         	call	___aodiv	;wreg free
  4419  002820  C001  F036         	movff	?___aodiv,dtoa@n
  4420  002824  C002  F037         	movff	?___aodiv+1,dtoa@n+1
  4421  002828  C003  F038         	movff	?___aodiv+2,dtoa@n+2
  4422  00282C  C004  F039         	movff	?___aodiv+3,dtoa@n+3
  4423  002830  C005  F03A         	movff	?___aodiv+4,dtoa@n+4
  4424  002834  C006  F03B         	movff	?___aodiv+5,dtoa@n+5
  4425  002838  C007  F03C         	movff	?___aodiv+6,dtoa@n+6
  4426  00283C  C008  F03D         	movff	?___aodiv+7,dtoa@n+7
  4427  002840                     l2818:
  4428                           
  4429                           ;C:\Program Files\Microchip\xc8\v2.32\pic\sources\c99\common\doprnt.c: 312:     while (!
      +                          (i < 1) && (n || (0 < p) || ((0 < w) && (flags & (1 << 1))))) {
  4430  002840  BE3F               	btfsc	(dtoa@i+1)^0,7,c
  4431  002842  EF2B  F014         	goto	u2561
  4432  002846  503F               	movf	(dtoa@i+1)^0,w,c
  4433  002848  E108               	bnz	u2560
  4434  00284A  043E               	decf	dtoa@i^0,w,c
  4435  00284C  A0D8               	btfss	status,0,c
  4436  00284E  EF2B  F014         	goto	u2561
  4437  002852  EF2D  F014         	goto	u2560
  4438  002856                     u2561:
  4439  002856  EF5E  F014         	goto	l2828
  4440  00285A                     u2560:
  4441  00285A  5036               	movf	dtoa@n^0,w,c
  4442  00285C  1037               	iorwf	(dtoa@n+1)^0,w,c
  4443  00285E  1038               	iorwf	(dtoa@n+2)^0,w,c
  4444  002860  1039               	iorwf	(dtoa@n+3)^0,w,c
  4445  002862  103A               	iorwf	(dtoa@n+4)^0,w,c
  4446  002864  103B               	iorwf	(dtoa@n+5)^0,w,c
  4447  002866  103C               	iorwf	(dtoa@n+6)^0,w,c
  4448  002868  103D               	iorwf	(dtoa@n+7)^0,w,c
  4449  00286A  A4D8               	btfss	status,2,c
  4450  00286C  EF3A  F014         	goto	u2571
  4451  002870  EF3C  F014         	goto	u2570
  4452  002874                     u2571:
  4453  002874  EFA4  F013         	goto	l2808
  4454  002878                     u2570:
  4455  002878  BE31               	btfsc	(dtoa@p+1)^0,7,c
  4456  00287A  EF49  F014         	goto	u2580
  4457  00287E  5031               	movf	(dtoa@p+1)^0,w,c
  4458  002880  E106               	bnz	u2581
  4459  002882  0430               	decf	dtoa@p^0,w,c
  4460  002884  B0D8               	btfsc	status,0,c
  4461  002886  EF47  F014         	goto	u2581
  4462  00288A  EF49  F014         	goto	u2580
  4463  00288E                     u2581:
  4464  00288E  EFA4  F013         	goto	l2808
  4465  002892                     u2580:
  4466  002892  BE33               	btfsc	(dtoa@w+1)^0,7,c
  4467  002894  EF54  F014         	goto	u2591
  4468  002898  5033               	movf	(dtoa@w+1)^0,w,c
  4469  00289A  E108               	bnz	u2590
  4470  00289C  0432               	decf	dtoa@w^0,w,c
  4471  00289E  A0D8               	btfss	status,0,c
  4472  0028A0  EF54  F014         	goto	u2591
  4473  0028A4  EF56  F014         	goto	u2590
  4474  0028A8                     u2591:
  4475  0028A8  EF5E  F014         	goto	l2828
  4476  0028AC                     u2590:
  4477  0028AC  0100               	movlb	0	; () banked
  4478  0028AE  B37E               	btfsc	_flags& (0+255),1,b
  4479  0028B0  EF5C  F014         	goto	u2601
  4480  0028B4  EF5E  F014         	goto	u2600
  4481  0028B8                     u2601:
  4482  0028B8  EFA4  F013         	goto	l2808
  4483  0028BC                     u2600:
  4484  0028BC                     l2828:
  4485                           
  4486                           ;C:\Program Files\Microchip\xc8\v2.32\pic\sources\c99\common\doprnt.c: 321:     if (s ||
      +                           (flags & (1 << 2))) {
  4487  0028BC  5034               	movf	dtoa@s^0,w,c
  4488  0028BE  1035               	iorwf	(dtoa@s+1)^0,w,c
  4489  0028C0  A4D8               	btfss	status,2,c
  4490  0028C2  EF65  F014         	goto	u2611
  4491  0028C6  EF67  F014         	goto	u2610
  4492  0028CA                     u2611:
  4493  0028CA  EF6F  F014         	goto	l2832
  4494  0028CE                     u2610:
  4495  0028CE  0100               	movlb	0	; () banked
  4496  0028D0  A57E               	btfss	_flags& (0+255),2,b
  4497  0028D2  EF6D  F014         	goto	u2621
  4498  0028D6  EF6F  F014         	goto	u2620
  4499  0028DA                     u2621:
  4500  0028DA  EF8D  F014         	goto	l2842
  4501  0028DE                     u2620:
  4502  0028DE                     l2832:
  4503                           
  4504                           ;C:\Program Files\Microchip\xc8\v2.32\pic\sources\c99\common\doprnt.c: 322:         --i;
  4505  0028DE  063E               	decf	dtoa@i^0,f,c
  4506  0028E0  A0D8               	btfss	status,0,c
  4507  0028E2  063F               	decf	(dtoa@i+1)^0,f,c
  4508  0028E4                     
  4509                           ;C:\Program Files\Microchip\xc8\v2.32\pic\sources\c99\common\doprnt.c: 323:         dbuf
      +                          [i] = s ? '-' : '+';
  4510  0028E4  5034               	movf	dtoa@s^0,w,c
  4511  0028E6  1035               	iorwf	(dtoa@s+1)^0,w,c
  4512  0028E8  A4D8               	btfss	status,2,c
  4513  0028EA  EF79  F014         	goto	u2631
  4514  0028EE  EF7B  F014         	goto	u2630
  4515  0028F2                     u2631:
  4516  0028F2  EF81  F014         	goto	l2838
  4517  0028F6                     u2630:
  4518  0028F6  0E00               	movlw	0
  4519  0028F8  6E2F               	movwf	(_dtoa$1058+1)^0,c
  4520  0028FA  0E2B               	movlw	43
  4521  0028FC  6E2E               	movwf	_dtoa$1058^0,c
  4522  0028FE  EF85  F014         	goto	l2840
  4523  002902                     l2838:
  4524  002902  0E00               	movlw	0
  4525  002904  6E2F               	movwf	(_dtoa$1058+1)^0,c
  4526  002906  0E2D               	movlw	45
  4527  002908  6E2E               	movwf	_dtoa$1058^0,c
  4528  00290A                     l2840:
  4529  00290A  0E8D               	movlw	low _dbuf
  4530  00290C  243E               	addwf	dtoa@i^0,w,c
  4531  00290E  6ED9               	movwf	fsr2l,c
  4532  002910  0E00               	movlw	high _dbuf
  4533  002912  203F               	addwfc	(dtoa@i+1)^0,w,c
  4534  002914  6EDA               	movwf	fsr2h,c
  4535  002916  C02E  FFDF         	movff	_dtoa$1058,indf2
  4536  00291A                     l2842:
  4537                           
  4538                           ;C:\Program Files\Microchip\xc8\v2.32\pic\sources\c99\common\doprnt.c: 327:     return p
      +                          ad(fp, &dbuf[i], w);
  4539  00291A  C01C  F011         	movff	dtoa@fp,pad@fp
  4540  00291E  C01D  F012         	movff	dtoa@fp+1,pad@fp+1
  4541  002922  0E8D               	movlw	low _dbuf
  4542  002924  243E               	addwf	dtoa@i^0,w,c
  4543  002926  6E13               	movwf	pad@buf^0,c
  4544  002928  0E00               	movlw	high _dbuf
  4545  00292A  203F               	addwfc	(dtoa@i+1)^0,w,c
  4546  00292C  6E14               	movwf	(pad@buf+1)^0,c
  4547  00292E  C032  F015         	movff	dtoa@w,pad@p
  4548  002932  C033  F016         	movff	dtoa@w+1,pad@p+1
  4549  002936  ECBD  F01C         	call	_pad	;wreg free
  4550  00293A  C011  F01C         	movff	?_pad,?_dtoa
  4551  00293E  C012  F01D         	movff	?_pad+1,?_dtoa+1
  4552  002942  0012               	return		;funcret
  4553  002944                     __end_of_dtoa:
  4554                           	callstack 0
  4555                           
  4556 ;; *************** function _pad *****************
  4557 ;; Defined at:
  4558 ;;		line 72 in file "C:\Program Files\Microchip\xc8\v2.32\pic\sources\c99\common\doprnt.c"
  4559 ;; Parameters:    Size  Location     Type
  4560 ;;  fp              2   16[COMRAM] PTR struct _IO_FILE
  4561 ;;		 -> sprintf@f(6), 
  4562 ;;  buf             2   18[COMRAM] PTR unsigned char 
  4563 ;;		 -> dbuf(32), 
  4564 ;;  p               2   20[COMRAM] int 
  4565 ;; Auto vars:     Size  Location     Type
  4566 ;;  w               2   25[COMRAM] int 
  4567 ;;  i               2   23[COMRAM] int 
  4568 ;; Return value:  Size  Location     Type
  4569 ;;                  2   16[COMRAM] int 
  4570 ;; Registers used:
  4571 ;;		wreg, fsr1l, fsr1h, fsr2l, fsr2h, status,2, status,0, cstack
  4572 ;; Tracked objects:
  4573 ;;		On entry : 0/0
  4574 ;;		On exit  : 0/0
  4575 ;;		Unchanged: 0/0
  4576 ;; Data sizes:     COMRAM   BANK0   BANK1   BANK2   BANK3   BANK4   BANK5   BANK6   BANK7
  4577 ;;      Params:         6       0       0       0       0       0       0       0       0
  4578 ;;      Locals:         4       0       0       0       0       0       0       0       0
  4579 ;;      Temps:          1       0       0       0       0       0       0       0       0
  4580 ;;      Totals:        11       0       0       0       0       0       0       0       0
  4581 ;;Total ram usage:       11 bytes
  4582 ;; Hardware stack levels used: 1
  4583 ;; Hardware stack levels required when called: 3
  4584 ;; This function calls:
  4585 ;;		_fputc
  4586 ;;		_fputs
  4587 ;;		_strlen
  4588 ;; This function is called by:
  4589 ;;		_dtoa
  4590 ;; This function uses a non-reentrant model
  4591 ;;
  4592                           
  4593                           	psect	text9
  4594  00397A                     __ptext9:
  4595                           	callstack 0
  4596  00397A                     _pad:
  4597                           	callstack 22
  4598  00397A                     
  4599                           ;C:\Program Files\Microchip\xc8\v2.32\pic\sources\c99\common\doprnt.c: 72: static int pa
      +                          d(FILE *fp, char *buf, int p);C:\Program Files\Microchip\xc8\v2.32\pic\sources\c99\commo
      +                          n\doprnt.c: 73: {;C:\Program Files\Microchip\xc8\v2.32\pic\sources\c99\common\doprnt.c: 
      +                          74:     int i, w;;C:\Program Files\Microchip\xc8\v2.32\pic\sources\c99\common\doprnt.c: 
      +                          77:     if (flags & (1 << 0)) {
  4600  00397A  0100               	movlb	0	; () banked
  4601  00397C  A17E               	btfss	_flags& (0+255),0,b
  4602  00397E  EFC3  F01C         	goto	u2441
  4603  003982  EFC5  F01C         	goto	u2440
  4604  003986                     u2441:
  4605  003986  EFCF  F01C         	goto	l2760
  4606  00398A                     u2440:
  4607  00398A                     
  4608                           ; BSR set to: 0
  4609                           ;C:\Program Files\Microchip\xc8\v2.32\pic\sources\c99\common\doprnt.c: 78:         fputs
      +                          ((const char *)buf, fp);
  4610  00398A  C013  F00A         	movff	pad@buf,fputs@s
  4611  00398E  C014  F00B         	movff	pad@buf+1,fputs@s+1
  4612  003992  C011  F00C         	movff	pad@fp,fputs@fp
  4613  003996  C012  F00D         	movff	pad@fp+1,fputs@fp+1
  4614  00399A  ECC8  F01F         	call	_fputs	;wreg free
  4615  00399E                     l2760:
  4616                           
  4617                           ;C:\Program Files\Microchip\xc8\v2.32\pic\sources\c99\common\doprnt.c: 82:     w = (p < 
      +                          0) ? 0 : p;
  4618  00399E  BE16               	btfsc	(pad@p+1)^0,7,c
  4619  0039A0  EFD4  F01C         	goto	u2451
  4620  0039A4  EFD6  F01C         	goto	u2450
  4621  0039A8                     u2451:
  4622  0039A8  EFDC  F01C         	goto	l2764
  4623  0039AC                     u2450:
  4624  0039AC  C015  F01A         	movff	pad@p,pad@w
  4625  0039B0  C016  F01B         	movff	pad@p+1,pad@w+1
  4626  0039B4  EFE0  F01C         	goto	l1001
  4627  0039B8                     l2764:
  4628  0039B8  0E00               	movlw	0
  4629  0039BA  6E1B               	movwf	(pad@w+1)^0,c
  4630  0039BC  0E00               	movlw	0
  4631  0039BE  6E1A               	movwf	pad@w^0,c
  4632  0039C0                     l1001:
  4633                           
  4634                           ;C:\Program Files\Microchip\xc8\v2.32\pic\sources\c99\common\doprnt.c: 83:     i = 0;
  4635  0039C0  0E00               	movlw	0
  4636  0039C2  6E19               	movwf	(pad@i+1)^0,c
  4637  0039C4  0E00               	movlw	0
  4638  0039C6  6E18               	movwf	pad@i^0,c
  4639                           
  4640                           ;C:\Program Files\Microchip\xc8\v2.32\pic\sources\c99\common\doprnt.c: 84:     while (i 
      +                          < w) {
  4641  0039C8  EFF2  F01C         	goto	l2770
  4642  0039CC                     l2766:
  4643                           
  4644                           ;C:\Program Files\Microchip\xc8\v2.32\pic\sources\c99\common\doprnt.c: 85:         fputc
      +                          (' ', fp);
  4645  0039CC  0E00               	movlw	0
  4646  0039CE  6E02               	movwf	(fputc@c+1)^0,c
  4647  0039D0  0E20               	movlw	32
  4648  0039D2  6E01               	movwf	fputc@c^0,c
  4649  0039D4  C011  F003         	movff	pad@fp,fputc@fp
  4650  0039D8  C012  F004         	movff	pad@fp+1,fputc@fp+1
  4651  0039DC  EC58  F01C         	call	_fputc	;wreg free
  4652  0039E0                     
  4653                           ;C:\Program Files\Microchip\xc8\v2.32\pic\sources\c99\common\doprnt.c: 86:         ++i;
  4654  0039E0  4A18               	infsnz	pad@i^0,f,c
  4655  0039E2  2A19               	incf	(pad@i+1)^0,f,c
  4656  0039E4                     l2770:
  4657                           
  4658                           ;C:\Program Files\Microchip\xc8\v2.32\pic\sources\c99\common\doprnt.c: 84:     while (i 
      +                          < w) {
  4659  0039E4  501A               	movf	pad@w^0,w,c
  4660  0039E6  5C18               	subwf	pad@i^0,w,c
  4661  0039E8  5019               	movf	(pad@i+1)^0,w,c
  4662  0039EA  0A80               	xorlw	128
  4663  0039EC  6E17               	movwf	??_pad^0,c
  4664  0039EE  501B               	movf	(pad@w+1)^0,w,c
  4665  0039F0  0A80               	xorlw	128
  4666  0039F2  5817               	subwfb	??_pad^0,w,c
  4667  0039F4  A0D8               	btfss	status,0,c
  4668  0039F6  EFFF  F01C         	goto	u2461
  4669  0039FA  EF01  F01D         	goto	u2460
  4670  0039FE                     u2461:
  4671  0039FE  EFE6  F01C         	goto	l2766
  4672  003A02                     u2460:
  4673  003A02                     
  4674                           ;C:\Program Files\Microchip\xc8\v2.32\pic\sources\c99\common\doprnt.c: 90:     if (!(fla
      +                          gs & (1 << 0))) {
  4675  003A02  0100               	movlb	0	; () banked
  4676  003A04  B17E               	btfsc	_flags& (0+255),0,b
  4677  003A06  EF07  F01D         	goto	u2471
  4678  003A0A  EF09  F01D         	goto	u2470
  4679  003A0E                     u2471:
  4680  003A0E  EF13  F01D         	goto	l2774
  4681  003A12                     u2470:
  4682  003A12                     
  4683                           ; BSR set to: 0
  4684                           ;C:\Program Files\Microchip\xc8\v2.32\pic\sources\c99\common\doprnt.c: 91:         fputs
      +                          ((const char *)buf, fp);
  4685  003A12  C013  F00A         	movff	pad@buf,fputs@s
  4686  003A16  C014  F00B         	movff	pad@buf+1,fputs@s+1
  4687  003A1A  C011  F00C         	movff	pad@fp,fputs@fp
  4688  003A1E  C012  F00D         	movff	pad@fp+1,fputs@fp+1
  4689  003A22  ECC8  F01F         	call	_fputs	;wreg free
  4690  003A26                     l2774:
  4691                           
  4692                           ;C:\Program Files\Microchip\xc8\v2.32\pic\sources\c99\common\doprnt.c: 94:     return (i
      +                          nt)(strlen(buf) + (size_t)w);
  4693  003A26  C013  F001         	movff	pad@buf,strlen@s
  4694  003A2A  C014  F002         	movff	pad@buf+1,strlen@s+1
  4695  003A2E  EC29  F020         	call	_strlen	;wreg free
  4696  003A32  501A               	movf	pad@w^0,w,c
  4697  003A34  2401               	addwf	?_strlen^0,w,c
  4698  003A36  6E11               	movwf	?_pad^0,c
  4699  003A38  501B               	movf	(pad@w+1)^0,w,c
  4700  003A3A  2002               	addwfc	(?_strlen+1)^0,w,c
  4701  003A3C  6E12               	movwf	(?_pad+1)^0,c
  4702  003A3E  0012               	return		;funcret
  4703  003A40                     __end_of_pad:
  4704                           	callstack 0
  4705                           
  4706 ;; *************** function _strlen *****************
  4707 ;; Defined at:
  4708 ;;		line 5 in file "C:\Program Files\Microchip\xc8\v2.32\pic\sources\c99\common\strlen.c"
  4709 ;; Parameters:    Size  Location     Type
  4710 ;;  s               2    0[COMRAM] PTR const unsigned char 
  4711 ;;		 -> dbuf(32), 
  4712 ;; Auto vars:     Size  Location     Type
  4713 ;;  a               2    2[COMRAM] PTR const unsigned char 
  4714 ;;		 -> dbuf(32), 
  4715 ;; Return value:  Size  Location     Type
  4716 ;;                  2    0[COMRAM] unsigned int 
  4717 ;; Registers used:
  4718 ;;		wreg, fsr2l, fsr2h, status,2, status,0
  4719 ;; Tracked objects:
  4720 ;;		On entry : 0/0
  4721 ;;		On exit  : 0/0
  4722 ;;		Unchanged: 0/0
  4723 ;; Data sizes:     COMRAM   BANK0   BANK1   BANK2   BANK3   BANK4   BANK5   BANK6   BANK7
  4724 ;;      Params:         2       0       0       0       0       0       0       0       0
  4725 ;;      Locals:         2       0       0       0       0       0       0       0       0
  4726 ;;      Temps:          0       0       0       0       0       0       0       0       0
  4727 ;;      Totals:         4       0       0       0       0       0       0       0       0
  4728 ;;Total ram usage:        4 bytes
  4729 ;; Hardware stack levels used: 1
  4730 ;; This function calls:
  4731 ;;		Nothing
  4732 ;; This function is called by:
  4733 ;;		_pad
  4734 ;; This function uses a non-reentrant model
  4735 ;;
  4736                           
  4737                           	psect	text10
  4738  004052                     __ptext10:
  4739                           	callstack 0
  4740  004052                     _strlen:
  4741                           	callstack 24
  4742  004052  C001  F003         	movff	strlen@s,strlen@a
  4743  004056  C002  F004         	movff	strlen@s+1,strlen@a+1
  4744  00405A  EF31  F020         	goto	l2670
  4745  00405E                     l2668:
  4746  00405E  4A01               	infsnz	strlen@s^0,f,c
  4747  004060  2A02               	incf	(strlen@s+1)^0,f,c
  4748  004062                     l2670:
  4749  004062  C001  FFD9         	movff	strlen@s,fsr2l
  4750  004066  C002  FFDA         	movff	strlen@s+1,fsr2h
  4751  00406A  50DF               	movf	indf2,w,c
  4752  00406C  A4D8               	btfss	status,2,c
  4753  00406E  EF3B  F020         	goto	u2301
  4754  004072  EF3D  F020         	goto	u2300
  4755  004076                     u2301:
  4756  004076  EF2F  F020         	goto	l2668
  4757  00407A                     u2300:
  4758  00407A  5003               	movf	strlen@a^0,w,c
  4759  00407C  5C01               	subwf	strlen@s^0,w,c
  4760  00407E  6E01               	movwf	?_strlen^0,c
  4761  004080  5004               	movf	(strlen@a+1)^0,w,c
  4762  004082  5802               	subwfb	(strlen@s+1)^0,w,c
  4763  004084  6E02               	movwf	(?_strlen+1)^0,c
  4764  004086  0012               	return		;funcret
  4765  004088                     __end_of_strlen:
  4766                           	callstack 0
  4767                           
  4768 ;; *************** function _fputs *****************
  4769 ;; Defined at:
  4770 ;;		line 8 in file "C:\Program Files\Microchip\xc8\v2.32\pic\sources\c99\common\nf_fputs.c"
  4771 ;; Parameters:    Size  Location     Type
  4772 ;;  s               2    9[COMRAM] PTR const unsigned char 
  4773 ;;		 -> dbuf(32), 
  4774 ;;  fp              2   11[COMRAM] PTR struct _IO_FILE
  4775 ;;		 -> sprintf@f(6), 
  4776 ;; Auto vars:     Size  Location     Type
  4777 ;;  i               2   14[COMRAM] int 
  4778 ;;  c               1   13[COMRAM] unsigned char 
  4779 ;; Return value:  Size  Location     Type
  4780 ;;                  2    9[COMRAM] int 
  4781 ;; Registers used:
  4782 ;;		wreg, fsr1l, fsr1h, fsr2l, fsr2h, status,2, status,0, cstack
  4783 ;; Tracked objects:
  4784 ;;		On entry : 0/0
  4785 ;;		On exit  : 0/0
  4786 ;;		Unchanged: 0/0
  4787 ;; Data sizes:     COMRAM   BANK0   BANK1   BANK2   BANK3   BANK4   BANK5   BANK6   BANK7
  4788 ;;      Params:         4       0       0       0       0       0       0       0       0
  4789 ;;      Locals:         3       0       0       0       0       0       0       0       0
  4790 ;;      Temps:          0       0       0       0       0       0       0       0       0
  4791 ;;      Totals:         7       0       0       0       0       0       0       0       0
  4792 ;;Total ram usage:        7 bytes
  4793 ;; Hardware stack levels used: 1
  4794 ;; Hardware stack levels required when called: 2
  4795 ;; This function calls:
  4796 ;;		_fputc
  4797 ;; This function is called by:
  4798 ;;		_pad
  4799 ;; This function uses a non-reentrant model
  4800 ;;
  4801                           
  4802                           	psect	text11
  4803  003F90                     __ptext11:
  4804                           	callstack 0
  4805  003F90                     _fputs:
  4806                           	callstack 22
  4807  003F90  0E00               	movlw	0
  4808  003F92  6E10               	movwf	(fputs@i+1)^0,c
  4809  003F94  0E00               	movlw	0
  4810  003F96  6E0F               	movwf	fputs@i^0,c
  4811  003F98  EFD9  F01F         	goto	l2664
  4812  003F9C                     l2660:
  4813  003F9C  C00E  F001         	movff	fputs@c,fputc@c
  4814  003FA0  6A02               	clrf	(fputc@c+1)^0,c
  4815  003FA2  C00C  F003         	movff	fputs@fp,fputc@fp
  4816  003FA6  C00D  F004         	movff	fputs@fp+1,fputc@fp+1
  4817  003FAA  EC58  F01C         	call	_fputc	;wreg free
  4818  003FAE  4A0F               	infsnz	fputs@i^0,f,c
  4819  003FB0  2A10               	incf	(fputs@i+1)^0,f,c
  4820  003FB2                     l2664:
  4821  003FB2  500F               	movf	fputs@i^0,w,c
  4822  003FB4  240A               	addwf	fputs@s^0,w,c
  4823  003FB6  6ED9               	movwf	fsr2l,c
  4824  003FB8  5010               	movf	(fputs@i+1)^0,w,c
  4825  003FBA  200B               	addwfc	(fputs@s+1)^0,w,c
  4826  003FBC  6EDA               	movwf	fsr2h,c
  4827  003FBE  50DF               	movf	indf2,w,c
  4828  003FC0  6E0E               	movwf	fputs@c^0,c
  4829  003FC2  500E               	movf	fputs@c^0,w,c
  4830  003FC4  A4D8               	btfss	status,2,c
  4831  003FC6  EFE7  F01F         	goto	u2291
  4832  003FCA  EFE9  F01F         	goto	u2290
  4833  003FCE                     u2291:
  4834  003FCE  EFCE  F01F         	goto	l2660
  4835  003FD2                     u2290:
  4836  003FD2  0012               	return		;funcret
  4837  003FD4                     __end_of_fputs:
  4838                           	callstack 0
  4839                           
  4840 ;; *************** function _fputc *****************
  4841 ;; Defined at:
  4842 ;;		line 8 in file "C:\Program Files\Microchip\xc8\v2.32\pic\sources\c99\common\nf_fputc.c"
  4843 ;; Parameters:    Size  Location     Type
  4844 ;;  c               2    0[COMRAM] int 
  4845 ;;  fp              2    2[COMRAM] PTR struct _IO_FILE
  4846 ;;		 -> sprintf@f(6), 
  4847 ;; Auto vars:     Size  Location     Type
  4848 ;;		None
  4849 ;; Return value:  Size  Location     Type
  4850 ;;                  2    0[COMRAM] int 
  4851 ;; Registers used:
  4852 ;;		wreg, fsr1l, fsr1h, fsr2l, fsr2h, status,2, status,0, cstack
  4853 ;; Tracked objects:
  4854 ;;		On entry : 0/0
  4855 ;;		On exit  : 0/0
  4856 ;;		Unchanged: 0/0
  4857 ;; Data sizes:     COMRAM   BANK0   BANK1   BANK2   BANK3   BANK4   BANK5   BANK6   BANK7
  4858 ;;      Params:         4       0       0       0       0       0       0       0       0
  4859 ;;      Locals:         0       0       0       0       0       0       0       0       0
  4860 ;;      Temps:          5       0       0       0       0       0       0       0       0
  4861 ;;      Totals:         9       0       0       0       0       0       0       0       0
  4862 ;;Total ram usage:        9 bytes
  4863 ;; Hardware stack levels used: 1
  4864 ;; Hardware stack levels required when called: 1
  4865 ;; This function calls:
  4866 ;;		_putch
  4867 ;; This function is called by:
  4868 ;;		_pad
  4869 ;;		_vfpfcnvrt
  4870 ;;		_fputs
  4871 ;; This function uses a non-reentrant model
  4872 ;;
  4873                           
  4874                           	psect	text12
  4875  0038B0                     __ptext12:
  4876                           	callstack 0
  4877  0038B0                     _fputc:
  4878                           	callstack 25
  4879  0038B0  5003               	movf	fputc@fp^0,w,c
  4880  0038B2  1004               	iorwf	(fputc@fp+1)^0,w,c
  4881  0038B4  B4D8               	btfsc	status,2,c
  4882  0038B6  EF5F  F01C         	goto	u2251
  4883  0038BA  EF61  F01C         	goto	u2250
  4884  0038BE                     u2251:
  4885  0038BE  EF6A  F01C         	goto	l2648
  4886  0038C2                     u2250:
  4887  0038C2  5003               	movf	fputc@fp^0,w,c
  4888  0038C4  1004               	iorwf	(fputc@fp+1)^0,w,c
  4889  0038C6  A4D8               	btfss	status,2,c
  4890  0038C8  EF68  F01C         	goto	u2261
  4891  0038CC  EF6A  F01C         	goto	u2260
  4892  0038D0                     u2261:
  4893  0038D0  EF6F  F01C         	goto	l2650
  4894  0038D4                     u2260:
  4895  0038D4                     l2648:
  4896  0038D4  5001               	movf	fputc@c^0,w,c
  4897  0038D6  ECCA  F020         	call	_putch
  4898  0038DA  EFBC  F01C         	goto	l1065
  4899  0038DE                     l2650:
  4900  0038DE  EE20 F004          	lfsr	2,4
  4901  0038E2  5003               	movf	fputc@fp^0,w,c
  4902  0038E4  26D9               	addwf	fsr2l,f,c
  4903  0038E6  5004               	movf	(fputc@fp+1)^0,w,c
  4904  0038E8  22DA               	addwfc	fsr2h,f,c
  4905  0038EA  50DE               	movf	postinc2,w,c
  4906  0038EC  10DE               	iorwf	postinc2,w,c
  4907  0038EE  B4D8               	btfsc	status,2,c
  4908  0038F0  EF7C  F01C         	goto	u2271
  4909  0038F4  EF7E  F01C         	goto	u2270
  4910  0038F8                     u2271:
  4911  0038F8  EF99  F01C         	goto	l2654
  4912  0038FC                     u2270:
  4913  0038FC  EE20 F004          	lfsr	2,4
  4914  003900  5003               	movf	fputc@fp^0,w,c
  4915  003902  26D9               	addwf	fsr2l,f,c
  4916  003904  5004               	movf	(fputc@fp+1)^0,w,c
  4917  003906  22DA               	addwfc	fsr2h,f,c
  4918  003908  EE10 F002          	lfsr	1,2
  4919  00390C  5003               	movf	fputc@fp^0,w,c
  4920  00390E  26E1               	addwf	fsr1l,f,c
  4921  003910  5004               	movf	(fputc@fp+1)^0,w,c
  4922  003912  22E2               	addwfc	fsr1h,f,c
  4923  003914  50DE               	movf	postinc2,w,c
  4924  003916  5CE6               	subwf	postinc1,w,c
  4925  003918  50E6               	movf	postinc1,w,c
  4926  00391A  0A80               	xorlw	128
  4927  00391C  6E09               	movwf	(??_fputc+4)^0,c
  4928  00391E  50DE               	movf	postinc2,w,c
  4929  003920  0A80               	xorlw	128
  4930  003922  5809               	subwfb	(??_fputc+4)^0,w,c
  4931  003924  B0D8               	btfsc	status,0,c
  4932  003926  EF97  F01C         	goto	u2281
  4933  00392A  EF99  F01C         	goto	u2280
  4934  00392E                     u2281:
  4935  00392E  EFBC  F01C         	goto	l1065
  4936  003932                     u2280:
  4937  003932                     l2654:
  4938  003932  EE20 F002          	lfsr	2,2
  4939  003936  5003               	movf	fputc@fp^0,w,c
  4940  003938  26D9               	addwf	fsr2l,f,c
  4941  00393A  5004               	movf	(fputc@fp+1)^0,w,c
  4942  00393C  22DA               	addwfc	fsr2h,f,c
  4943  00393E  CFDE F005          	movff	postinc2,??_fputc
  4944  003942  CFDD F006          	movff	postdec2,??_fputc+1
  4945  003946  C003  FFD9         	movff	fputc@fp,fsr2l
  4946  00394A  C004  FFDA         	movff	fputc@fp+1,fsr2h
  4947  00394E  CFDE F007          	movff	postinc2,??_fputc+2
  4948  003952  CFDD F008          	movff	postdec2,??_fputc+3
  4949  003956  5005               	movf	??_fputc^0,w,c
  4950  003958  2407               	addwf	(??_fputc+2)^0,w,c
  4951  00395A  6ED9               	movwf	fsr2l,c
  4952  00395C  5006               	movf	(??_fputc+1)^0,w,c
  4953  00395E  2008               	addwfc	(??_fputc+3)^0,w,c
  4954  003960  6EDA               	movwf	fsr2h,c
  4955  003962  C001  FFDF         	movff	fputc@c,indf2
  4956  003966  EE20 F002          	lfsr	2,2
  4957  00396A  5003               	movf	fputc@fp^0,w,c
  4958  00396C  26D9               	addwf	fsr2l,f,c
  4959  00396E  5004               	movf	(fputc@fp+1)^0,w,c
  4960  003970  22DA               	addwfc	fsr2h,f,c
  4961  003972  2ADE               	incf	postinc2,f,c
  4962  003974  0E00               	movlw	0
  4963  003976  22DD               	addwfc	postdec2,f,c
  4964  003978                     l1065:
  4965  003978  0012               	return		;funcret
  4966  00397A                     __end_of_fputc:
  4967                           	callstack 0
  4968                           
  4969 ;; *************** function _putch *****************
  4970 ;; Defined at:
  4971 ;;		line 7 in file "C:\Program Files\Microchip\xc8\v2.32\pic\sources\c99\common\putch.c"
  4972 ;; Parameters:    Size  Location     Type
  4973 ;;  c               1    wreg     unsigned char 
  4974 ;; Auto vars:     Size  Location     Type
  4975 ;;  c               1    0[COMRAM] unsigned char 
  4976 ;; Return value:  Size  Location     Type
  4977 ;;                  1    wreg      void 
  4978 ;; Registers used:
  4979 ;;		wreg
  4980 ;; Tracked objects:
  4981 ;;		On entry : 0/0
  4982 ;;		On exit  : 0/0
  4983 ;;		Unchanged: 0/0
  4984 ;; Data sizes:     COMRAM   BANK0   BANK1   BANK2   BANK3   BANK4   BANK5   BANK6   BANK7
  4985 ;;      Params:         0       0       0       0       0       0       0       0       0
  4986 ;;      Locals:         0       0       0       0       0       0       0       0       0
  4987 ;;      Temps:          0       0       0       0       0       0       0       0       0
  4988 ;;      Totals:         0       0       0       0       0       0       0       0       0
  4989 ;;Total ram usage:        0 bytes
  4990 ;; Hardware stack levels used: 1
  4991 ;; This function calls:
  4992 ;;		Nothing
  4993 ;; This function is called by:
  4994 ;;		_fputc
  4995 ;; This function uses a non-reentrant model
  4996 ;;
  4997                           
  4998                           	psect	text13
  4999  004194                     __ptext13:
  5000                           	callstack 0
  5001  004194                     _putch:
  5002                           	callstack 25
  5003  004194  0012               	return		;funcret
  5004  004196                     __end_of_putch:
  5005                           	callstack 0
  5006                           
  5007 ;; *************** function _abs *****************
  5008 ;; Defined at:
  5009 ;;		line 1 in file "C:\Program Files\Microchip\xc8\v2.32\pic\sources\c99\common\abs.c"
  5010 ;; Parameters:    Size  Location     Type
  5011 ;;  a               2   18[COMRAM] int 
  5012 ;; Auto vars:     Size  Location     Type
  5013 ;;		None
  5014 ;; Return value:  Size  Location     Type
  5015 ;;                  2   18[COMRAM] int 
  5016 ;; Registers used:
  5017 ;;		wreg, status,2, status,0
  5018 ;; Tracked objects:
  5019 ;;		On entry : 0/0
  5020 ;;		On exit  : 0/0
  5021 ;;		Unchanged: 0/0
  5022 ;; Data sizes:     COMRAM   BANK0   BANK1   BANK2   BANK3   BANK4   BANK5   BANK6   BANK7
  5023 ;;      Params:         2       0       0       0       0       0       0       0       0
  5024 ;;      Locals:         0       0       0       0       0       0       0       0       0
  5025 ;;      Temps:          2       0       0       0       0       0       0       0       0
  5026 ;;      Totals:         4       0       0       0       0       0       0       0       0
  5027 ;;Total ram usage:        4 bytes
  5028 ;; Hardware stack levels used: 1
  5029 ;; This function calls:
  5030 ;;		Nothing
  5031 ;; This function is called by:
  5032 ;;		_dtoa
  5033 ;; This function uses a non-reentrant model
  5034 ;;
  5035                           
  5036                           	psect	text14
  5037  003FD4                     __ptext14:
  5038                           	callstack 0
  5039  003FD4                     _abs:
  5040                           	callstack 25
  5041  003FD4  BE14               	btfsc	(abs@a+1)^0,7,c
  5042  003FD6  EFF7  F01F         	goto	u2480
  5043  003FDA  5014               	movf	(abs@a+1)^0,w,c
  5044  003FDC  E106               	bnz	u2481
  5045  003FDE  0413               	decf	abs@a^0,w,c
  5046  003FE0  B0D8               	btfsc	status,0,c
  5047  003FE2  EFF5  F01F         	goto	u2481
  5048  003FE6  EFF7  F01F         	goto	u2480
  5049  003FEA                     u2481:
  5050  003FEA  EF05  F020         	goto	l1050
  5051  003FEE                     u2480:
  5052  003FEE  C013  F015         	movff	abs@a,??_abs
  5053  003FF2  C014  F016         	movff	abs@a+1,??_abs+1
  5054  003FF6  1E15               	comf	??_abs^0,f,c
  5055  003FF8  1E16               	comf	(??_abs+1)^0,f,c
  5056  003FFA  4A15               	infsnz	??_abs^0,f,c
  5057  003FFC  2A16               	incf	(??_abs+1)^0,f,c
  5058  003FFE  C015  F013         	movff	??_abs,?_abs
  5059  004002  C016  F014         	movff	??_abs+1,?_abs+1
  5060  004006  EF09  F020         	goto	l1053
  5061  00400A                     l1050:
  5062  00400A  C013  F013         	movff	abs@a,?_abs
  5063  00400E  C014  F014         	movff	abs@a+1,?_abs+1
  5064  004012                     l1053:
  5065  004012  0012               	return		;funcret
  5066  004014                     __end_of_abs:
  5067                           	callstack 0
  5068                           
  5069 ;; *************** function ___aomod *****************
  5070 ;; Defined at:
  5071 ;;		line 9 in file "C:\Program Files\Microchip\xc8\v2.32\pic\sources\c99\common\aomod.c"
  5072 ;; Parameters:    Size  Location     Type
  5073 ;;  dividend        8    0[COMRAM] long long 
  5074 ;;  divisor         8    8[COMRAM] long long 
  5075 ;; Auto vars:     Size  Location     Type
  5076 ;;  sign            1   17[COMRAM] unsigned char 
  5077 ;;  counter         1   16[COMRAM] unsigned char 
  5078 ;; Return value:  Size  Location     Type
  5079 ;;                  8    0[COMRAM] long long 
  5080 ;; Registers used:
  5081 ;;		wreg, status,2, status,0
  5082 ;; Tracked objects:
  5083 ;;		On entry : 0/0
  5084 ;;		On exit  : 0/0
  5085 ;;		Unchanged: 0/0
  5086 ;; Data sizes:     COMRAM   BANK0   BANK1   BANK2   BANK3   BANK4   BANK5   BANK6   BANK7
  5087 ;;      Params:        16       0       0       0       0       0       0       0       0
  5088 ;;      Locals:         2       0       0       0       0       0       0       0       0
  5089 ;;      Temps:          0       0       0       0       0       0       0       0       0
  5090 ;;      Totals:        18       0       0       0       0       0       0       0       0
  5091 ;;Total ram usage:       18 bytes
  5092 ;; Hardware stack levels used: 1
  5093 ;; This function calls:
  5094 ;;		Nothing
  5095 ;; This function is called by:
  5096 ;;		_dtoa
  5097 ;; This function uses a non-reentrant model
  5098 ;;
  5099                           
  5100                           	psect	text15
  5101  003370                     __ptext15:
  5102                           	callstack 0
  5103  003370                     ___aomod:
  5104                           	callstack 25
  5105  003370  0E00               	movlw	0
  5106  003372  6E12               	movwf	___aomod@sign^0,c
  5107  003374  BE08               	btfsc	(___aomod@dividend+7)^0,7,c
  5108  003376  EFC1  F019         	goto	u2380
  5109  00337A  EFBF  F019         	goto	u2381
  5110  00337E                     u2381:
  5111  00337E  EFD3  F019         	goto	l2728
  5112  003382                     u2380:
  5113  003382  1E08               	comf	(___aomod@dividend+7)^0,f,c
  5114  003384  1E07               	comf	(___aomod@dividend+6)^0,f,c
  5115  003386  1E06               	comf	(___aomod@dividend+5)^0,f,c
  5116  003388  1E05               	comf	(___aomod@dividend+4)^0,f,c
  5117  00338A  1E04               	comf	(___aomod@dividend+3)^0,f,c
  5118  00338C  1E03               	comf	(___aomod@dividend+2)^0,f,c
  5119  00338E  1E02               	comf	(___aomod@dividend+1)^0,f,c
  5120  003390  6C01               	negf	___aomod@dividend^0,c
  5121  003392  0E00               	movlw	0
  5122  003394  2202               	addwfc	(___aomod@dividend+1)^0,f,c
  5123  003396  2203               	addwfc	(___aomod@dividend+2)^0,f,c
  5124  003398  2204               	addwfc	(___aomod@dividend+3)^0,f,c
  5125  00339A  2205               	addwfc	(___aomod@dividend+4)^0,f,c
  5126  00339C  2206               	addwfc	(___aomod@dividend+5)^0,f,c
  5127  00339E  2207               	addwfc	(___aomod@dividend+6)^0,f,c
  5128  0033A0  2208               	addwfc	(___aomod@dividend+7)^0,f,c
  5129  0033A2  0E01               	movlw	1
  5130  0033A4  6E12               	movwf	___aomod@sign^0,c
  5131  0033A6                     l2728:
  5132  0033A6  BE10               	btfsc	(___aomod@divisor+7)^0,7,c
  5133  0033A8  EFDA  F019         	goto	u2390
  5134  0033AC  EFD8  F019         	goto	u2391
  5135  0033B0                     u2391:
  5136  0033B0  EFEA  F019         	goto	l2732
  5137  0033B4                     u2390:
  5138  0033B4  1E10               	comf	(___aomod@divisor+7)^0,f,c
  5139  0033B6  1E0F               	comf	(___aomod@divisor+6)^0,f,c
  5140  0033B8  1E0E               	comf	(___aomod@divisor+5)^0,f,c
  5141  0033BA  1E0D               	comf	(___aomod@divisor+4)^0,f,c
  5142  0033BC  1E0C               	comf	(___aomod@divisor+3)^0,f,c
  5143  0033BE  1E0B               	comf	(___aomod@divisor+2)^0,f,c
  5144  0033C0  1E0A               	comf	(___aomod@divisor+1)^0,f,c
  5145  0033C2  6C09               	negf	___aomod@divisor^0,c
  5146  0033C4  0E00               	movlw	0
  5147  0033C6  220A               	addwfc	(___aomod@divisor+1)^0,f,c
  5148  0033C8  220B               	addwfc	(___aomod@divisor+2)^0,f,c
  5149  0033CA  220C               	addwfc	(___aomod@divisor+3)^0,f,c
  5150  0033CC  220D               	addwfc	(___aomod@divisor+4)^0,f,c
  5151  0033CE  220E               	addwfc	(___aomod@divisor+5)^0,f,c
  5152  0033D0  220F               	addwfc	(___aomod@divisor+6)^0,f,c
  5153  0033D2  2210               	addwfc	(___aomod@divisor+7)^0,f,c
  5154  0033D4                     l2732:
  5155  0033D4  5009               	movf	___aomod@divisor^0,w,c
  5156  0033D6  100A               	iorwf	(___aomod@divisor+1)^0,w,c
  5157  0033D8  100B               	iorwf	(___aomod@divisor+2)^0,w,c
  5158  0033DA  100C               	iorwf	(___aomod@divisor+3)^0,w,c
  5159  0033DC  100D               	iorwf	(___aomod@divisor+4)^0,w,c
  5160  0033DE  100E               	iorwf	(___aomod@divisor+5)^0,w,c
  5161  0033E0  100F               	iorwf	(___aomod@divisor+6)^0,w,c
  5162  0033E2  1010               	iorwf	(___aomod@divisor+7)^0,w,c
  5163  0033E4  B4D8               	btfsc	status,2,c
  5164  0033E6  EFF7  F019         	goto	u2401
  5165  0033EA  EFF9  F019         	goto	u2400
  5166  0033EE                     u2401:
  5167  0033EE  EF41  F01A         	goto	l2748
  5168  0033F2                     u2400:
  5169  0033F2  0E01               	movlw	1
  5170  0033F4  6E11               	movwf	___aomod@counter^0,c
  5171  0033F6  EF07  F01A         	goto	l2738
  5172  0033FA                     l2736:
  5173  0033FA  90D8               	bcf	status,0,c
  5174  0033FC  3609               	rlcf	___aomod@divisor^0,f,c
  5175  0033FE  360A               	rlcf	(___aomod@divisor+1)^0,f,c
  5176  003400  360B               	rlcf	(___aomod@divisor+2)^0,f,c
  5177  003402  360C               	rlcf	(___aomod@divisor+3)^0,f,c
  5178  003404  360D               	rlcf	(___aomod@divisor+4)^0,f,c
  5179  003406  360E               	rlcf	(___aomod@divisor+5)^0,f,c
  5180  003408  360F               	rlcf	(___aomod@divisor+6)^0,f,c
  5181  00340A  3610               	rlcf	(___aomod@divisor+7)^0,f,c
  5182  00340C  2A11               	incf	___aomod@counter^0,f,c
  5183  00340E                     l2738:
  5184  00340E  AE10               	btfss	(___aomod@divisor+7)^0,7,c
  5185  003410  EF0C  F01A         	goto	u2411
  5186  003414  EF0E  F01A         	goto	u2410
  5187  003418                     u2411:
  5188  003418  EFFD  F019         	goto	l2736
  5189  00341C                     u2410:
  5190  00341C                     l2740:
  5191  00341C  5009               	movf	___aomod@divisor^0,w,c
  5192  00341E  5C01               	subwf	___aomod@dividend^0,w,c
  5193  003420  500A               	movf	(___aomod@divisor+1)^0,w,c
  5194  003422  5802               	subwfb	(___aomod@dividend+1)^0,w,c
  5195  003424  500B               	movf	(___aomod@divisor+2)^0,w,c
  5196  003426  5803               	subwfb	(___aomod@dividend+2)^0,w,c
  5197  003428  500C               	movf	(___aomod@divisor+3)^0,w,c
  5198  00342A  5804               	subwfb	(___aomod@dividend+3)^0,w,c
  5199  00342C  500D               	movf	(___aomod@divisor+4)^0,w,c
  5200  00342E  5805               	subwfb	(___aomod@dividend+4)^0,w,c
  5201  003430  500E               	movf	(___aomod@divisor+5)^0,w,c
  5202  003432  5806               	subwfb	(___aomod@dividend+5)^0,w,c
  5203  003434  500F               	movf	(___aomod@divisor+6)^0,w,c
  5204  003436  5807               	subwfb	(___aomod@dividend+6)^0,w,c
  5205  003438  5010               	movf	(___aomod@divisor+7)^0,w,c
  5206  00343A  5808               	subwfb	(___aomod@dividend+7)^0,w,c
  5207  00343C  A0D8               	btfss	status,0,c
  5208  00343E  EF23  F01A         	goto	u2421
  5209  003442  EF25  F01A         	goto	u2420
  5210  003446                     u2421:
  5211  003446  EF35  F01A         	goto	l2744
  5212  00344A                     u2420:
  5213  00344A  5009               	movf	___aomod@divisor^0,w,c
  5214  00344C  5E01               	subwf	___aomod@dividend^0,f,c
  5215  00344E  500A               	movf	(___aomod@divisor+1)^0,w,c
  5216  003450  5A02               	subwfb	(___aomod@dividend+1)^0,f,c
  5217  003452  500B               	movf	(___aomod@divisor+2)^0,w,c
  5218  003454  5A03               	subwfb	(___aomod@dividend+2)^0,f,c
  5219  003456  500C               	movf	(___aomod@divisor+3)^0,w,c
  5220  003458  5A04               	subwfb	(___aomod@dividend+3)^0,f,c
  5221  00345A  500D               	movf	(___aomod@divisor+4)^0,w,c
  5222  00345C  5A05               	subwfb	(___aomod@dividend+4)^0,f,c
  5223  00345E  500E               	movf	(___aomod@divisor+5)^0,w,c
  5224  003460  5A06               	subwfb	(___aomod@dividend+5)^0,f,c
  5225  003462  500F               	movf	(___aomod@divisor+6)^0,w,c
  5226  003464  5A07               	subwfb	(___aomod@dividend+6)^0,f,c
  5227  003466  5010               	movf	(___aomod@divisor+7)^0,w,c
  5228  003468  5A08               	subwfb	(___aomod@dividend+7)^0,f,c
  5229  00346A                     l2744:
  5230  00346A  90D8               	bcf	status,0,c
  5231  00346C  3210               	rrcf	(___aomod@divisor+7)^0,f,c
  5232  00346E  320F               	rrcf	(___aomod@divisor+6)^0,f,c
  5233  003470  320E               	rrcf	(___aomod@divisor+5)^0,f,c
  5234  003472  320D               	rrcf	(___aomod@divisor+4)^0,f,c
  5235  003474  320C               	rrcf	(___aomod@divisor+3)^0,f,c
  5236  003476  320B               	rrcf	(___aomod@divisor+2)^0,f,c
  5237  003478  320A               	rrcf	(___aomod@divisor+1)^0,f,c
  5238  00347A  3209               	rrcf	___aomod@divisor^0,f,c
  5239  00347C  2E11               	decfsz	___aomod@counter^0,f,c
  5240  00347E  EF0E  F01A         	goto	l2740
  5241  003482                     l2748:
  5242  003482  5012               	movf	___aomod@sign^0,w,c
  5243  003484  B4D8               	btfsc	status,2,c
  5244  003486  EF47  F01A         	goto	u2431
  5245  00348A  EF49  F01A         	goto	u2430
  5246  00348E                     u2431:
  5247  00348E  EF59  F01A         	goto	l2752
  5248  003492                     u2430:
  5249  003492  1E08               	comf	(___aomod@dividend+7)^0,f,c
  5250  003494  1E07               	comf	(___aomod@dividend+6)^0,f,c
  5251  003496  1E06               	comf	(___aomod@dividend+5)^0,f,c
  5252  003498  1E05               	comf	(___aomod@dividend+4)^0,f,c
  5253  00349A  1E04               	comf	(___aomod@dividend+3)^0,f,c
  5254  00349C  1E03               	comf	(___aomod@dividend+2)^0,f,c
  5255  00349E  1E02               	comf	(___aomod@dividend+1)^0,f,c
  5256  0034A0  6C01               	negf	___aomod@dividend^0,c
  5257  0034A2  0E00               	movlw	0
  5258  0034A4  2202               	addwfc	(___aomod@dividend+1)^0,f,c
  5259  0034A6  2203               	addwfc	(___aomod@dividend+2)^0,f,c
  5260  0034A8  2204               	addwfc	(___aomod@dividend+3)^0,f,c
  5261  0034AA  2205               	addwfc	(___aomod@dividend+4)^0,f,c
  5262  0034AC  2206               	addwfc	(___aomod@dividend+5)^0,f,c
  5263  0034AE  2207               	addwfc	(___aomod@dividend+6)^0,f,c
  5264  0034B0  2208               	addwfc	(___aomod@dividend+7)^0,f,c
  5265  0034B2                     l2752:
  5266  0034B2  C001  F001         	movff	___aomod@dividend,?___aomod
  5267  0034B6  C002  F002         	movff	___aomod@dividend+1,?___aomod+1
  5268  0034BA  C003  F003         	movff	___aomod@dividend+2,?___aomod+2
  5269  0034BE  C004  F004         	movff	___aomod@dividend+3,?___aomod+3
  5270  0034C2  C005  F005         	movff	___aomod@dividend+4,?___aomod+4
  5271  0034C6  C006  F006         	movff	___aomod@dividend+5,?___aomod+5
  5272  0034CA  C007  F007         	movff	___aomod@dividend+6,?___aomod+6
  5273  0034CE  C008  F008         	movff	___aomod@dividend+7,?___aomod+7
  5274  0034D2  0012               	return		;funcret
  5275  0034D4                     __end_of___aomod:
  5276                           	callstack 0
  5277                           
  5278 ;; *************** function ___aodiv *****************
  5279 ;; Defined at:
  5280 ;;		line 9 in file "C:\Program Files\Microchip\xc8\v2.32\pic\sources\c99\common\aodiv.c"
  5281 ;; Parameters:    Size  Location     Type
  5282 ;;  dividend        8    0[COMRAM] long long 
  5283 ;;  divisor         8    8[COMRAM] long long 
  5284 ;; Auto vars:     Size  Location     Type
  5285 ;;  quotient        8   18[COMRAM] long long 
  5286 ;;  sign            1   17[COMRAM] unsigned char 
  5287 ;;  counter         1   16[COMRAM] unsigned char 
  5288 ;; Return value:  Size  Location     Type
  5289 ;;                  8    0[COMRAM] long long 
  5290 ;; Registers used:
  5291 ;;		wreg, fsr2l, fsr2h, status,2, status,0
  5292 ;; Tracked objects:
  5293 ;;		On entry : 0/0
  5294 ;;		On exit  : 0/0
  5295 ;;		Unchanged: 0/0
  5296 ;; Data sizes:     COMRAM   BANK0   BANK1   BANK2   BANK3   BANK4   BANK5   BANK6   BANK7
  5297 ;;      Params:        16       0       0       0       0       0       0       0       0
  5298 ;;      Locals:        10       0       0       0       0       0       0       0       0
  5299 ;;      Temps:          0       0       0       0       0       0       0       0       0
  5300 ;;      Totals:        26       0       0       0       0       0       0       0       0
  5301 ;;Total ram usage:       26 bytes
  5302 ;; Hardware stack levels used: 1
  5303 ;; This function calls:
  5304 ;;		Nothing
  5305 ;; This function is called by:
  5306 ;;		_dtoa
  5307 ;; This function uses a non-reentrant model
  5308 ;;
  5309                           
  5310                           	psect	text16
  5311  0031E8                     __ptext16:
  5312                           	callstack 0
  5313  0031E8                     ___aodiv:
  5314                           	callstack 25
  5315  0031E8  0E00               	movlw	0
  5316  0031EA  6E12               	movwf	___aodiv@sign^0,c
  5317  0031EC  BE10               	btfsc	(___aodiv@divisor+7)^0,7,c
  5318  0031EE  EFFD  F018         	goto	u2310
  5319  0031F2  EFFB  F018         	goto	u2311
  5320  0031F6                     u2311:
  5321  0031F6  EF0F  F019         	goto	l2684
  5322  0031FA                     u2310:
  5323  0031FA  1E10               	comf	(___aodiv@divisor+7)^0,f,c
  5324  0031FC  1E0F               	comf	(___aodiv@divisor+6)^0,f,c
  5325  0031FE  1E0E               	comf	(___aodiv@divisor+5)^0,f,c
  5326  003200  1E0D               	comf	(___aodiv@divisor+4)^0,f,c
  5327  003202  1E0C               	comf	(___aodiv@divisor+3)^0,f,c
  5328  003204  1E0B               	comf	(___aodiv@divisor+2)^0,f,c
  5329  003206  1E0A               	comf	(___aodiv@divisor+1)^0,f,c
  5330  003208  6C09               	negf	___aodiv@divisor^0,c
  5331  00320A  0E00               	movlw	0
  5332  00320C  220A               	addwfc	(___aodiv@divisor+1)^0,f,c
  5333  00320E  220B               	addwfc	(___aodiv@divisor+2)^0,f,c
  5334  003210  220C               	addwfc	(___aodiv@divisor+3)^0,f,c
  5335  003212  220D               	addwfc	(___aodiv@divisor+4)^0,f,c
  5336  003214  220E               	addwfc	(___aodiv@divisor+5)^0,f,c
  5337  003216  220F               	addwfc	(___aodiv@divisor+6)^0,f,c
  5338  003218  2210               	addwfc	(___aodiv@divisor+7)^0,f,c
  5339  00321A  0E01               	movlw	1
  5340  00321C  6E12               	movwf	___aodiv@sign^0,c
  5341  00321E                     l2684:
  5342  00321E  BE08               	btfsc	(___aodiv@dividend+7)^0,7,c
  5343  003220  EF16  F019         	goto	u2320
  5344  003224  EF14  F019         	goto	u2321
  5345  003228                     u2321:
  5346  003228  EF28  F019         	goto	l2690
  5347  00322C                     u2320:
  5348  00322C  1E08               	comf	(___aodiv@dividend+7)^0,f,c
  5349  00322E  1E07               	comf	(___aodiv@dividend+6)^0,f,c
  5350  003230  1E06               	comf	(___aodiv@dividend+5)^0,f,c
  5351  003232  1E05               	comf	(___aodiv@dividend+4)^0,f,c
  5352  003234  1E04               	comf	(___aodiv@dividend+3)^0,f,c
  5353  003236  1E03               	comf	(___aodiv@dividend+2)^0,f,c
  5354  003238  1E02               	comf	(___aodiv@dividend+1)^0,f,c
  5355  00323A  6C01               	negf	___aodiv@dividend^0,c
  5356  00323C  0E00               	movlw	0
  5357  00323E  2202               	addwfc	(___aodiv@dividend+1)^0,f,c
  5358  003240  2203               	addwfc	(___aodiv@dividend+2)^0,f,c
  5359  003242  2204               	addwfc	(___aodiv@dividend+3)^0,f,c
  5360  003244  2205               	addwfc	(___aodiv@dividend+4)^0,f,c
  5361  003246  2206               	addwfc	(___aodiv@dividend+5)^0,f,c
  5362  003248  2207               	addwfc	(___aodiv@dividend+6)^0,f,c
  5363  00324A  2208               	addwfc	(___aodiv@dividend+7)^0,f,c
  5364  00324C  0E01               	movlw	1
  5365  00324E  1A12               	xorwf	___aodiv@sign^0,f,c
  5366  003250                     l2690:
  5367  003250  EE20  F013         	lfsr	2,___aodiv@quotient
  5368  003254  0E07               	movlw	7
  5369  003256                     u2331:
  5370  003256  6ADE               	clrf	postinc2,c
  5371  003258  06E8               	decf	wreg,f,c
  5372  00325A  E2FD               	bc	u2331
  5373  00325C  5009               	movf	___aodiv@divisor^0,w,c
  5374  00325E  100A               	iorwf	(___aodiv@divisor+1)^0,w,c
  5375  003260  100B               	iorwf	(___aodiv@divisor+2)^0,w,c
  5376  003262  100C               	iorwf	(___aodiv@divisor+3)^0,w,c
  5377  003264  100D               	iorwf	(___aodiv@divisor+4)^0,w,c
  5378  003266  100E               	iorwf	(___aodiv@divisor+5)^0,w,c
  5379  003268  100F               	iorwf	(___aodiv@divisor+6)^0,w,c
  5380  00326A  1010               	iorwf	(___aodiv@divisor+7)^0,w,c
  5381  00326C  B4D8               	btfsc	status,2,c
  5382  00326E  EF3B  F019         	goto	u2341
  5383  003272  EF3D  F019         	goto	u2340
  5384  003276                     u2341:
  5385  003276  EF8F  F019         	goto	l2712
  5386  00327A                     u2340:
  5387  00327A  0E01               	movlw	1
  5388  00327C  6E11               	movwf	___aodiv@counter^0,c
  5389  00327E  EF4B  F019         	goto	l2698
  5390  003282                     l2696:
  5391  003282  90D8               	bcf	status,0,c
  5392  003284  3609               	rlcf	___aodiv@divisor^0,f,c
  5393  003286  360A               	rlcf	(___aodiv@divisor+1)^0,f,c
  5394  003288  360B               	rlcf	(___aodiv@divisor+2)^0,f,c
  5395  00328A  360C               	rlcf	(___aodiv@divisor+3)^0,f,c
  5396  00328C  360D               	rlcf	(___aodiv@divisor+4)^0,f,c
  5397  00328E  360E               	rlcf	(___aodiv@divisor+5)^0,f,c
  5398  003290  360F               	rlcf	(___aodiv@divisor+6)^0,f,c
  5399  003292  3610               	rlcf	(___aodiv@divisor+7)^0,f,c
  5400  003294  2A11               	incf	___aodiv@counter^0,f,c
  5401  003296                     l2698:
  5402  003296  AE10               	btfss	(___aodiv@divisor+7)^0,7,c
  5403  003298  EF50  F019         	goto	u2351
  5404  00329C  EF52  F019         	goto	u2350
  5405  0032A0                     u2351:
  5406  0032A0  EF41  F019         	goto	l2696
  5407  0032A4                     u2350:
  5408  0032A4                     l2700:
  5409  0032A4  90D8               	bcf	status,0,c
  5410  0032A6  3613               	rlcf	___aodiv@quotient^0,f,c
  5411  0032A8  3614               	rlcf	(___aodiv@quotient+1)^0,f,c
  5412  0032AA  3615               	rlcf	(___aodiv@quotient+2)^0,f,c
  5413  0032AC  3616               	rlcf	(___aodiv@quotient+3)^0,f,c
  5414  0032AE  3617               	rlcf	(___aodiv@quotient+4)^0,f,c
  5415  0032B0  3618               	rlcf	(___aodiv@quotient+5)^0,f,c
  5416  0032B2  3619               	rlcf	(___aodiv@quotient+6)^0,f,c
  5417  0032B4  361A               	rlcf	(___aodiv@quotient+7)^0,f,c
  5418  0032B6  5009               	movf	___aodiv@divisor^0,w,c
  5419  0032B8  5C01               	subwf	___aodiv@dividend^0,w,c
  5420  0032BA  500A               	movf	(___aodiv@divisor+1)^0,w,c
  5421  0032BC  5802               	subwfb	(___aodiv@dividend+1)^0,w,c
  5422  0032BE  500B               	movf	(___aodiv@divisor+2)^0,w,c
  5423  0032C0  5803               	subwfb	(___aodiv@dividend+2)^0,w,c
  5424  0032C2  500C               	movf	(___aodiv@divisor+3)^0,w,c
  5425  0032C4  5804               	subwfb	(___aodiv@dividend+3)^0,w,c
  5426  0032C6  500D               	movf	(___aodiv@divisor+4)^0,w,c
  5427  0032C8  5805               	subwfb	(___aodiv@dividend+4)^0,w,c
  5428  0032CA  500E               	movf	(___aodiv@divisor+5)^0,w,c
  5429  0032CC  5806               	subwfb	(___aodiv@dividend+5)^0,w,c
  5430  0032CE  500F               	movf	(___aodiv@divisor+6)^0,w,c
  5431  0032D0  5807               	subwfb	(___aodiv@dividend+6)^0,w,c
  5432  0032D2  5010               	movf	(___aodiv@divisor+7)^0,w,c
  5433  0032D4  5808               	subwfb	(___aodiv@dividend+7)^0,w,c
  5434  0032D6  A0D8               	btfss	status,0,c
  5435  0032D8  EF70  F019         	goto	u2361
  5436  0032DC  EF72  F019         	goto	u2360
  5437  0032E0                     u2361:
  5438  0032E0  EF83  F019         	goto	l2708
  5439  0032E4                     u2360:
  5440  0032E4  5009               	movf	___aodiv@divisor^0,w,c
  5441  0032E6  5E01               	subwf	___aodiv@dividend^0,f,c
  5442  0032E8  500A               	movf	(___aodiv@divisor+1)^0,w,c
  5443  0032EA  5A02               	subwfb	(___aodiv@dividend+1)^0,f,c
  5444  0032EC  500B               	movf	(___aodiv@divisor+2)^0,w,c
  5445  0032EE  5A03               	subwfb	(___aodiv@dividend+2)^0,f,c
  5446  0032F0  500C               	movf	(___aodiv@divisor+3)^0,w,c
  5447  0032F2  5A04               	subwfb	(___aodiv@dividend+3)^0,f,c
  5448  0032F4  500D               	movf	(___aodiv@divisor+4)^0,w,c
  5449  0032F6  5A05               	subwfb	(___aodiv@dividend+4)^0,f,c
  5450  0032F8  500E               	movf	(___aodiv@divisor+5)^0,w,c
  5451  0032FA  5A06               	subwfb	(___aodiv@dividend+5)^0,f,c
  5452  0032FC  500F               	movf	(___aodiv@divisor+6)^0,w,c
  5453  0032FE  5A07               	subwfb	(___aodiv@dividend+6)^0,f,c
  5454  003300  5010               	movf	(___aodiv@divisor+7)^0,w,c
  5455  003302  5A08               	subwfb	(___aodiv@dividend+7)^0,f,c
  5456  003304  8013               	bsf	___aodiv@quotient^0,0,c
  5457  003306                     l2708:
  5458  003306  90D8               	bcf	status,0,c
  5459  003308  3210               	rrcf	(___aodiv@divisor+7)^0,f,c
  5460  00330A  320F               	rrcf	(___aodiv@divisor+6)^0,f,c
  5461  00330C  320E               	rrcf	(___aodiv@divisor+5)^0,f,c
  5462  00330E  320D               	rrcf	(___aodiv@divisor+4)^0,f,c
  5463  003310  320C               	rrcf	(___aodiv@divisor+3)^0,f,c
  5464  003312  320B               	rrcf	(___aodiv@divisor+2)^0,f,c
  5465  003314  320A               	rrcf	(___aodiv@divisor+1)^0,f,c
  5466  003316  3209               	rrcf	___aodiv@divisor^0,f,c
  5467  003318  2E11               	decfsz	___aodiv@counter^0,f,c
  5468  00331A  EF52  F019         	goto	l2700
  5469  00331E                     l2712:
  5470  00331E  5012               	movf	___aodiv@sign^0,w,c
  5471  003320  B4D8               	btfsc	status,2,c
  5472  003322  EF95  F019         	goto	u2371
  5473  003326  EF97  F019         	goto	u2370
  5474  00332A                     u2371:
  5475  00332A  EFA7  F019         	goto	l2716
  5476  00332E                     u2370:
  5477  00332E  1E1A               	comf	(___aodiv@quotient+7)^0,f,c
  5478  003330  1E19               	comf	(___aodiv@quotient+6)^0,f,c
  5479  003332  1E18               	comf	(___aodiv@quotient+5)^0,f,c
  5480  003334  1E17               	comf	(___aodiv@quotient+4)^0,f,c
  5481  003336  1E16               	comf	(___aodiv@quotient+3)^0,f,c
  5482  003338  1E15               	comf	(___aodiv@quotient+2)^0,f,c
  5483  00333A  1E14               	comf	(___aodiv@quotient+1)^0,f,c
  5484  00333C  6C13               	negf	___aodiv@quotient^0,c
  5485  00333E  0E00               	movlw	0
  5486  003340  2214               	addwfc	(___aodiv@quotient+1)^0,f,c
  5487  003342  2215               	addwfc	(___aodiv@quotient+2)^0,f,c
  5488  003344  2216               	addwfc	(___aodiv@quotient+3)^0,f,c
  5489  003346  2217               	addwfc	(___aodiv@quotient+4)^0,f,c
  5490  003348  2218               	addwfc	(___aodiv@quotient+5)^0,f,c
  5491  00334A  2219               	addwfc	(___aodiv@quotient+6)^0,f,c
  5492  00334C  221A               	addwfc	(___aodiv@quotient+7)^0,f,c
  5493  00334E                     l2716:
  5494  00334E  C013  F001         	movff	___aodiv@quotient,?___aodiv
  5495  003352  C014  F002         	movff	___aodiv@quotient+1,?___aodiv+1
  5496  003356  C015  F003         	movff	___aodiv@quotient+2,?___aodiv+2
  5497  00335A  C016  F004         	movff	___aodiv@quotient+3,?___aodiv+3
  5498  00335E  C017  F005         	movff	___aodiv@quotient+4,?___aodiv+4
  5499  003362  C018  F006         	movff	___aodiv@quotient+5,?___aodiv+5
  5500  003366  C019  F007         	movff	___aodiv@quotient+6,?___aodiv+6
  5501  00336A  C01A  F008         	movff	___aodiv@quotient+7,?___aodiv+7
  5502  00336E  0012               	return		;funcret
  5503  003370                     __end_of___aodiv:
  5504                           	callstack 0
  5505                           
  5506 ;; *************** function _silencio *****************
  5507 ;; Defined at:
  5508 ;;		line 53 in file "main.c"
  5509 ;; Parameters:    Size  Location     Type
  5510 ;;  duracion        2    0[BANK0 ] int 
  5511 ;;  tfrec           4    2[BANK0 ] float 
  5512 ;; Auto vars:     Size  Location     Type
  5513 ;;		None
  5514 ;; Return value:  Size  Location     Type
  5515 ;;                  1    wreg      void 
  5516 ;; Registers used:
  5517 ;;		wreg, status,2, status,0, cstack
  5518 ;; Tracked objects:
  5519 ;;		On entry : 0/0
  5520 ;;		On exit  : 0/0
  5521 ;;		Unchanged: 0/0
  5522 ;; Data sizes:     COMRAM   BANK0   BANK1   BANK2   BANK3   BANK4   BANK5   BANK6   BANK7
  5523 ;;      Params:         0       6       0       0       0       0       0       0       0
  5524 ;;      Locals:         4       0       0       0       0       0       0       0       0
  5525 ;;      Temps:          1       0       0       0       0       0       0       0       0
  5526 ;;      Totals:         5       6       0       0       0       0       0       0       0
  5527 ;;Total ram usage:       11 bytes
  5528 ;; Hardware stack levels used: 1
  5529 ;; Hardware stack levels required when called: 2
  5530 ;; This function calls:
  5531 ;;		___fldiv
  5532 ;;		___flsub
  5533 ;;		___fltol
  5534 ;;		___xxtofl
  5535 ;; This function is called by:
  5536 ;;		_cancion1
  5537 ;; This function uses a non-reentrant model
  5538 ;;
  5539                           
  5540                           	psect	text17
  5541  003052                     __ptext17:
  5542                           	callstack 0
  5543  003052                     _silencio:
  5544                           	callstack 27
  5545  003052                     
  5546                           ;main.c: 55:      duracion = duracion/tfrec;
  5547  003052  C0C6  F02C         	movff	silencio@tfrec,___fldiv@a
  5548  003056  C0C7  F02D         	movff	silencio@tfrec+1,___fldiv@a+1
  5549  00305A  C0C8  F02E         	movff	silencio@tfrec+2,___fldiv@a+2
  5550  00305E  C0C9  F02F         	movff	silencio@tfrec+3,___fldiv@a+3
  5551  003062  C0C4  F001         	movff	silencio@duracion,___xxtofl@val
  5552  003066  C0C5  F002         	movff	silencio@duracion+1,___xxtofl@val+1
  5553  00306A  0E00               	movlw	0
  5554  00306C  BE02               	btfsc	(___xxtofl@val+1)^0,7,c
  5555  00306E  0EFF               	movlw	-1
  5556  003070  6E03               	movwf	(___xxtofl@val+2)^0,c
  5557  003072  6E04               	movwf	(___xxtofl@val+3)^0,c
  5558  003074  0E01               	movlw	1
  5559  003076  EC84  F016         	call	___xxtofl
  5560  00307A  C001  F028         	movff	?___xxtofl,___fldiv@b
  5561  00307E  C002  F029         	movff	?___xxtofl+1,___fldiv@b+1
  5562  003082  C003  F02A         	movff	?___xxtofl+2,___fldiv@b+2
  5563  003086  C004  F02B         	movff	?___xxtofl+3,___fldiv@b+3
  5564  00308A  EC64  F011         	call	___fldiv	;wreg free
  5565  00308E  C028  F051         	movff	?___fldiv,___fltol@f1
  5566  003092  C029  F052         	movff	?___fldiv+1,___fltol@f1+1
  5567  003096  C02A  F053         	movff	?___fldiv+2,___fltol@f1+2
  5568  00309A  C02B  F054         	movff	?___fldiv+3,___fltol@f1+3
  5569  00309E  EC6A  F01A         	call	___fltol	;wreg free
  5570  0030A2  C051  F0C4         	movff	?___fltol,silencio@duracion
  5571  0030A6  C052  F0C5         	movff	?___fltol+1,silencio@duracion+1
  5572                           
  5573                           ;main.c: 56:      tfrec = 255-((tfrec/2)/(.0002*128));
  5574  0030AA  0E00               	movlw	0
  5575  0030AC  6E2C               	movwf	___fldiv@a^0,c
  5576  0030AE  0E00               	movlw	0
  5577  0030B0  6E2D               	movwf	(___fldiv@a+1)^0,c
  5578  0030B2  0E00               	movlw	0
  5579  0030B4  6E2E               	movwf	(___fldiv@a+2)^0,c
  5580  0030B6  0E40               	movlw	64
  5581  0030B8  6E2F               	movwf	(___fldiv@a+3)^0,c
  5582  0030BA  C0C6  F028         	movff	silencio@tfrec,___fldiv@b
  5583  0030BE  C0C7  F029         	movff	silencio@tfrec+1,___fldiv@b+1
  5584  0030C2  C0C8  F02A         	movff	silencio@tfrec+2,___fldiv@b+2
  5585  0030C6  C0C9  F02B         	movff	silencio@tfrec+3,___fldiv@b+3
  5586  0030CA  EC64  F011         	call	___fldiv	;wreg free
  5587  0030CE  C028  F05C         	movff	?___fldiv,_silencio$1330
  5588  0030D2  C029  F05D         	movff	?___fldiv+1,_silencio$1330+1
  5589  0030D6  C02A  F05E         	movff	?___fldiv+2,_silencio$1330+2
  5590  0030DA  C02B  F05F         	movff	?___fldiv+3,_silencio$1330+3
  5591                           
  5592                           ;main.c: 56:      tfrec = 255-((tfrec/2)/(.0002*128));
  5593  0030DE  0E00               	movlw	0
  5594  0030E0  6E51               	movwf	___flsub@b^0,c
  5595  0030E2  0E00               	movlw	0
  5596  0030E4  6E52               	movwf	(___flsub@b+1)^0,c
  5597  0030E6  0E7F               	movlw	127
  5598  0030E8  6E53               	movwf	(___flsub@b+2)^0,c
  5599  0030EA  0E43               	movlw	67
  5600  0030EC  6E54               	movwf	(___flsub@b+3)^0,c
  5601  0030EE  0E17               	movlw	23
  5602  0030F0  6E2C               	movwf	___fldiv@a^0,c
  5603  0030F2  0EB7               	movlw	183
  5604  0030F4  6E2D               	movwf	(___fldiv@a+1)^0,c
  5605  0030F6  0ED1               	movlw	209
  5606  0030F8  6E2E               	movwf	(___fldiv@a+2)^0,c
  5607  0030FA  0E3C               	movlw	60
  5608  0030FC  6E2F               	movwf	(___fldiv@a+3)^0,c
  5609  0030FE  C05C  F028         	movff	_silencio$1330,___fldiv@b
  5610  003102  C05D  F029         	movff	_silencio$1330+1,___fldiv@b+1
  5611  003106  C05E  F02A         	movff	_silencio$1330+2,___fldiv@b+2
  5612  00310A  C05F  F02B         	movff	_silencio$1330+3,___fldiv@b+3
  5613  00310E  EC64  F011         	call	___fldiv	;wreg free
  5614  003112  C028  F055         	movff	?___fldiv,___flsub@a
  5615  003116  C029  F056         	movff	?___fldiv+1,___flsub@a+1
  5616  00311A  C02A  F057         	movff	?___fldiv+2,___flsub@a+2
  5617  00311E  C02B  F058         	movff	?___fldiv+3,___flsub@a+3
  5618  003122  EC82  F01F         	call	___flsub	;wreg free
  5619  003126  C051  F0C6         	movff	?___flsub,silencio@tfrec
  5620  00312A  C052  F0C7         	movff	?___flsub+1,silencio@tfrec+1
  5621  00312E  C053  F0C8         	movff	?___flsub+2,silencio@tfrec+2
  5622  003132  C054  F0C9         	movff	?___flsub+3,silencio@tfrec+3
  5623  003136                     
  5624                           ;main.c: 58:        for(b=0;b<duracion;b++){
  5625  003136  0E00               	movlw	0
  5626  003138  0100               	movlb	0	; () banked
  5627  00313A  6F83               	movwf	(_b+1)& (0+255),b
  5628  00313C  0E00               	movlw	0
  5629  00313E  6F82               	movwf	_b& (0+255),b
  5630  003140  EFE4  F018         	goto	l3626
  5631  003144                     l210:
  5632                           
  5633                           ; BSR set to: 0
  5634                           ;main.c: 59:                        if(PORTBbits.RB0 == 1){
  5635  003144  A081               	btfss	129,0,c	;volatile
  5636  003146  EFA7  F018         	goto	u3751
  5637  00314A  EFA9  F018         	goto	u3750
  5638  00314E                     u3751:
  5639  00314E  EFAF  F018         	goto	l3616
  5640  003152                     u3750:
  5641  003152                     
  5642                           ; BSR set to: 0
  5643                           ;main.c: 60:                                     k = 0;
  5644  003152  0E00               	movlw	0
  5645  003154  6FDE               	movwf	(_k+1)& (0+255),b
  5646  003156  0E00               	movlw	0
  5647  003158  6FDD               	movwf	_k& (0+255),b
  5648                           
  5649                           ;main.c: 61:                                 }
  5650  00315A  EFB3  F018         	goto	l3618
  5651  00315E                     l3616:
  5652                           
  5653                           ; BSR set to: 0
  5654                           ;main.c: 63:                                     k = 1;
  5655  00315E  0E00               	movlw	0
  5656  003160  6FDE               	movwf	(_k+1)& (0+255),b
  5657  003162  0E01               	movlw	1
  5658  003164  6FDD               	movwf	_k& (0+255),b
  5659  003166                     l3618:
  5660                           
  5661                           ; BSR set to: 0
  5662                           ;main.c: 65:             PORTBbits.RB1 = 0;
  5663  003166  9281               	bcf	129,1,c	;volatile
  5664  003168                     
  5665                           ; BSR set to: 0
  5666                           ;main.c: 66:            TMR0 = tfrec;
  5667  003168  C0C6  F051         	movff	silencio@tfrec,___fltol@f1
  5668  00316C  C0C7  F052         	movff	silencio@tfrec+1,___fltol@f1+1
  5669  003170  C0C8  F053         	movff	silencio@tfrec+2,___fltol@f1+2
  5670  003174  C0C9  F054         	movff	silencio@tfrec+3,___fltol@f1+3
  5671  003178  EC6A  F01A         	call	___fltol	;wreg free
  5672  00317C  C051  FFD6         	movff	?___fltol,4054	;volatile
  5673  003180  C052  FFD7         	movff	?___fltol+1,4055	;volatile
  5674  003184                     l213:
  5675  003184  A4F2               	btfss	242,2,c	;volatile
  5676  003186  EFC7  F018         	goto	u3761
  5677  00318A  EFC9  F018         	goto	u3760
  5678  00318E                     u3761:
  5679  00318E  EFC2  F018         	goto	l213
  5680  003192                     u3760:
  5681  003192                     
  5682                           ;main.c: 68:            INTCONbits.TMR0IF=0;
  5683  003192  94F2               	bcf	242,2,c	;volatile
  5684                           
  5685                           ;main.c: 70:         PORTBbits.RB1=0;
  5686  003194  9281               	bcf	129,1,c	;volatile
  5687  003196                     
  5688                           ;main.c: 71:          TMR0 = tfrec;
  5689  003196  C0C6  F051         	movff	silencio@tfrec,___fltol@f1
  5690  00319A  C0C7  F052         	movff	silencio@tfrec+1,___fltol@f1+1
  5691  00319E  C0C8  F053         	movff	silencio@tfrec+2,___fltol@f1+2
  5692  0031A2  C0C9  F054         	movff	silencio@tfrec+3,___fltol@f1+3
  5693  0031A6  EC6A  F01A         	call	___fltol	;wreg free
  5694  0031AA  C051  FFD6         	movff	?___fltol,4054	;volatile
  5695  0031AE  C052  FFD7         	movff	?___fltol+1,4055	;volatile
  5696  0031B2                     l216:
  5697  0031B2  A4F2               	btfss	242,2,c	;volatile
  5698  0031B4  EFDE  F018         	goto	u3771
  5699  0031B8  EFE0  F018         	goto	u3770
  5700  0031BC                     u3771:
  5701  0031BC  EFD9  F018         	goto	l216
  5702  0031C0                     u3770:
  5703  0031C0                     
  5704                           ;main.c: 73:          INTCONbits.TMR0IF=0;
  5705  0031C0  94F2               	bcf	242,2,c	;volatile
  5706  0031C2                     
  5707                           ;main.c: 74: }
  5708  0031C2  0100               	movlb	0	; () banked
  5709  0031C4  4B82               	infsnz	_b& (0+255),f,b
  5710  0031C6  2B83               	incf	(_b+1)& (0+255),f,b
  5711  0031C8                     l3626:
  5712                           
  5713                           ; BSR set to: 0
  5714  0031C8  51C4               	movf	silencio@duracion& (0+255),w,b
  5715  0031CA  5D82               	subwf	_b& (0+255),w,b
  5716  0031CC  5183               	movf	(_b+1)& (0+255),w,b
  5717  0031CE  0A80               	xorlw	128
  5718  0031D0  6E5B               	movwf	??_silencio^0,c
  5719  0031D2  51C5               	movf	(silencio@duracion+1)& (0+255),w,b
  5720  0031D4  0A80               	xorlw	128
  5721  0031D6  585B               	subwfb	??_silencio^0,w,c
  5722  0031D8  A0D8               	btfss	status,0,c
  5723  0031DA  EFF1  F018         	goto	u3781
  5724  0031DE  EFF3  F018         	goto	u3780
  5725  0031E2                     u3781:
  5726  0031E2  EFA2  F018         	goto	l210
  5727  0031E6                     u3780:
  5728  0031E6                     
  5729                           ; BSR set to: 0
  5730  0031E6  0012               	return		;funcret
  5731  0031E8                     __end_of_silencio:
  5732                           	callstack 0
  5733                           
  5734 ;; *************** function ___xxtofl *****************
  5735 ;; Defined at:
  5736 ;;		line 10 in file "C:\Program Files\Microchip\xc8\v2.32\pic\sources\c99\common\xxtofl.c"
  5737 ;; Parameters:    Size  Location     Type
  5738 ;;  sign            1    wreg     unsigned char 
  5739 ;;  val             4    0[COMRAM] long 
  5740 ;; Auto vars:     Size  Location     Type
  5741 ;;  sign            1    8[COMRAM] unsigned char 
  5742 ;;  arg             4   10[COMRAM] unsigned long 
  5743 ;;  exp             1    9[COMRAM] unsigned char 
  5744 ;; Return value:  Size  Location     Type
  5745 ;;                  4    0[COMRAM] unsigned char 
  5746 ;; Registers used:
  5747 ;;		wreg, status,2, status,0
  5748 ;; Tracked objects:
  5749 ;;		On entry : 0/0
  5750 ;;		On exit  : 0/0
  5751 ;;		Unchanged: 0/0
  5752 ;; Data sizes:     COMRAM   BANK0   BANK1   BANK2   BANK3   BANK4   BANK5   BANK6   BANK7
  5753 ;;      Params:         4       0       0       0       0       0       0       0       0
  5754 ;;      Locals:         6       0       0       0       0       0       0       0       0
  5755 ;;      Temps:          4       0       0       0       0       0       0       0       0
  5756 ;;      Totals:        14       0       0       0       0       0       0       0       0
  5757 ;;Total ram usage:       14 bytes
  5758 ;; Hardware stack levels used: 1
  5759 ;; This function calls:
  5760 ;;		Nothing
  5761 ;; This function is called by:
  5762 ;;		_tocar_nota
  5763 ;;		_silencio
  5764 ;;		_cancion1
  5765 ;; This function uses a non-reentrant model
  5766 ;;
  5767                           
  5768                           	psect	text18
  5769  002D08                     __ptext18:
  5770                           	callstack 0
  5771  002D08                     ___xxtofl:
  5772                           	callstack 28
  5773                           
  5774                           ; BSR set to: 0
  5775                           ;incstack = 0
  5776                           ;___xxtofl@sign stored from wreg
  5777  002D08  6E09               	movwf	___xxtofl@sign^0,c
  5778  002D0A  5009               	movf	___xxtofl@sign^0,w,c
  5779  002D0C  B4D8               	btfsc	status,2,c
  5780  002D0E  EF8B  F016         	goto	u3461
  5781  002D12  EF8D  F016         	goto	u3460
  5782  002D16                     u3461:
  5783  002D16  EFAF  F016         	goto	l951
  5784  002D1A                     u3460:
  5785  002D1A  BE04               	btfsc	(___xxtofl@val+3)^0,7,c
  5786  002D1C  EF94  F016         	goto	u3470
  5787  002D20  EF92  F016         	goto	u3471
  5788  002D24                     u3471:
  5789  002D24  EFAF  F016         	goto	l951
  5790  002D28                     u3470:
  5791  002D28  C001  F005         	movff	___xxtofl@val,??___xxtofl
  5792  002D2C  C002  F006         	movff	___xxtofl@val+1,??___xxtofl+1
  5793  002D30  C003  F007         	movff	___xxtofl@val+2,??___xxtofl+2
  5794  002D34  C004  F008         	movff	___xxtofl@val+3,??___xxtofl+3
  5795  002D38  1E05               	comf	??___xxtofl^0,f,c
  5796  002D3A  1E06               	comf	(??___xxtofl+1)^0,f,c
  5797  002D3C  1E07               	comf	(??___xxtofl+2)^0,f,c
  5798  002D3E  1E08               	comf	(??___xxtofl+3)^0,f,c
  5799  002D40  2A05               	incf	??___xxtofl^0,f,c
  5800  002D42  0E00               	movlw	0
  5801  002D44  2206               	addwfc	(??___xxtofl+1)^0,f,c
  5802  002D46  2207               	addwfc	(??___xxtofl+2)^0,f,c
  5803  002D48  2208               	addwfc	(??___xxtofl+3)^0,f,c
  5804  002D4A  C005  F00B         	movff	??___xxtofl,___xxtofl@arg
  5805  002D4E  C006  F00C         	movff	??___xxtofl+1,___xxtofl@arg+1
  5806  002D52  C007  F00D         	movff	??___xxtofl+2,___xxtofl@arg+2
  5807  002D56  C008  F00E         	movff	??___xxtofl+3,___xxtofl@arg+3
  5808  002D5A  EFB7  F016         	goto	l3444
  5809  002D5E                     l951:
  5810  002D5E  C001  F00B         	movff	___xxtofl@val,___xxtofl@arg
  5811  002D62  C002  F00C         	movff	___xxtofl@val+1,___xxtofl@arg+1
  5812  002D66  C003  F00D         	movff	___xxtofl@val+2,___xxtofl@arg+2
  5813  002D6A  C004  F00E         	movff	___xxtofl@val+3,___xxtofl@arg+3
  5814  002D6E                     l3444:
  5815  002D6E  5001               	movf	___xxtofl@val^0,w,c
  5816  002D70  1002               	iorwf	(___xxtofl@val+1)^0,w,c
  5817  002D72  1003               	iorwf	(___xxtofl@val+2)^0,w,c
  5818  002D74  1004               	iorwf	(___xxtofl@val+3)^0,w,c
  5819  002D76  A4D8               	btfss	status,2,c
  5820  002D78  EFC0  F016         	goto	u3481
  5821  002D7C  EFC2  F016         	goto	u3480
  5822  002D80                     u3481:
  5823  002D80  EFCC  F016         	goto	l3450
  5824  002D84                     u3480:
  5825  002D84  0E00               	movlw	0
  5826  002D86  6E01               	movwf	?___xxtofl^0,c
  5827  002D88  0E00               	movlw	0
  5828  002D8A  6E02               	movwf	(?___xxtofl+1)^0,c
  5829  002D8C  0E00               	movlw	0
  5830  002D8E  6E03               	movwf	(?___xxtofl+2)^0,c
  5831  002D90  0E00               	movlw	0
  5832  002D92  6E04               	movwf	(?___xxtofl+3)^0,c
  5833  002D94  EF5D  F017         	goto	l954
  5834  002D98                     l3450:
  5835  002D98  0E96               	movlw	150
  5836  002D9A  6E0A               	movwf	___xxtofl@exp^0,c
  5837  002D9C  EFD6  F016         	goto	l3454
  5838  002DA0                     l3452:
  5839  002DA0  2A0A               	incf	___xxtofl@exp^0,f,c
  5840  002DA2  90D8               	bcf	status,0,c
  5841  002DA4  320E               	rrcf	(___xxtofl@arg+3)^0,f,c
  5842  002DA6  320D               	rrcf	(___xxtofl@arg+2)^0,f,c
  5843  002DA8  320C               	rrcf	(___xxtofl@arg+1)^0,f,c
  5844  002DAA  320B               	rrcf	___xxtofl@arg^0,f,c
  5845  002DAC                     l3454:
  5846  002DAC  0E00               	movlw	0
  5847  002DAE  140B               	andwf	___xxtofl@arg^0,w,c
  5848  002DB0  6E05               	movwf	??___xxtofl^0,c
  5849  002DB2  0E00               	movlw	0
  5850  002DB4  140C               	andwf	(___xxtofl@arg+1)^0,w,c
  5851  002DB6  6E06               	movwf	(??___xxtofl+1)^0,c
  5852  002DB8  0E00               	movlw	0
  5853  002DBA  140D               	andwf	(___xxtofl@arg+2)^0,w,c
  5854  002DBC  6E07               	movwf	(??___xxtofl+2)^0,c
  5855  002DBE  0EFE               	movlw	254
  5856  002DC0  140E               	andwf	(___xxtofl@arg+3)^0,w,c
  5857  002DC2  6E08               	movwf	(??___xxtofl+3)^0,c
  5858  002DC4  5005               	movf	??___xxtofl^0,w,c
  5859  002DC6  1006               	iorwf	(??___xxtofl+1)^0,w,c
  5860  002DC8  1007               	iorwf	(??___xxtofl+2)^0,w,c
  5861  002DCA  1008               	iorwf	(??___xxtofl+3)^0,w,c
  5862  002DCC  A4D8               	btfss	status,2,c
  5863  002DCE  EFEB  F016         	goto	u3491
  5864  002DD2  EFED  F016         	goto	u3490
  5865  002DD6                     u3491:
  5866  002DD6  EFD0  F016         	goto	l3452
  5867  002DDA                     u3490:
  5868  002DDA  EFFB  F016         	goto	l958
  5869  002DDE                     l3456:
  5870  002DDE  2A0A               	incf	___xxtofl@exp^0,f,c
  5871  002DE0  0E01               	movlw	1
  5872  002DE2  260B               	addwf	___xxtofl@arg^0,f,c
  5873  002DE4  0E00               	movlw	0
  5874  002DE6  220C               	addwfc	(___xxtofl@arg+1)^0,f,c
  5875  002DE8  220D               	addwfc	(___xxtofl@arg+2)^0,f,c
  5876  002DEA  220E               	addwfc	(___xxtofl@arg+3)^0,f,c
  5877  002DEC  90D8               	bcf	status,0,c
  5878  002DEE  320E               	rrcf	(___xxtofl@arg+3)^0,f,c
  5879  002DF0  320D               	rrcf	(___xxtofl@arg+2)^0,f,c
  5880  002DF2  320C               	rrcf	(___xxtofl@arg+1)^0,f,c
  5881  002DF4  320B               	rrcf	___xxtofl@arg^0,f,c
  5882  002DF6                     l958:
  5883  002DF6  0E00               	movlw	0
  5884  002DF8  140B               	andwf	___xxtofl@arg^0,w,c
  5885  002DFA  6E05               	movwf	??___xxtofl^0,c
  5886  002DFC  0E00               	movlw	0
  5887  002DFE  140C               	andwf	(___xxtofl@arg+1)^0,w,c
  5888  002E00  6E06               	movwf	(??___xxtofl+1)^0,c
  5889  002E02  0E00               	movlw	0
  5890  002E04  140D               	andwf	(___xxtofl@arg+2)^0,w,c
  5891  002E06  6E07               	movwf	(??___xxtofl+2)^0,c
  5892  002E08  0EFF               	movlw	255
  5893  002E0A  140E               	andwf	(___xxtofl@arg+3)^0,w,c
  5894  002E0C  6E08               	movwf	(??___xxtofl+3)^0,c
  5895  002E0E  5005               	movf	??___xxtofl^0,w,c
  5896  002E10  1006               	iorwf	(??___xxtofl+1)^0,w,c
  5897  002E12  1007               	iorwf	(??___xxtofl+2)^0,w,c
  5898  002E14  1008               	iorwf	(??___xxtofl+3)^0,w,c
  5899  002E16  A4D8               	btfss	status,2,c
  5900  002E18  EF10  F017         	goto	u3501
  5901  002E1C  EF12  F017         	goto	u3500
  5902  002E20                     u3501:
  5903  002E20  EFEF  F016         	goto	l3456
  5904  002E24                     u3500:
  5905  002E24  EF1A  F017         	goto	l3464
  5906  002E28                     l3462:
  5907  002E28  060A               	decf	___xxtofl@exp^0,f,c
  5908  002E2A  90D8               	bcf	status,0,c
  5909  002E2C  360B               	rlcf	___xxtofl@arg^0,f,c
  5910  002E2E  360C               	rlcf	(___xxtofl@arg+1)^0,f,c
  5911  002E30  360D               	rlcf	(___xxtofl@arg+2)^0,f,c
  5912  002E32  360E               	rlcf	(___xxtofl@arg+3)^0,f,c
  5913  002E34                     l3464:
  5914  002E34  BE0D               	btfsc	(___xxtofl@arg+2)^0,7,c
  5915  002E36  EF1F  F017         	goto	u3511
  5916  002E3A  EF21  F017         	goto	u3510
  5917  002E3E                     u3511:
  5918  002E3E  EF29  F017         	goto	l965
  5919  002E42                     u3510:
  5920  002E42  0E02               	movlw	2
  5921  002E44  600A               	cpfslt	___xxtofl@exp^0,c
  5922  002E46  EF27  F017         	goto	u3521
  5923  002E4A  EF29  F017         	goto	u3520
  5924  002E4E                     u3521:
  5925  002E4E  EF14  F017         	goto	l3462
  5926  002E52                     u3520:
  5927  002E52                     l965:
  5928  002E52  B00A               	btfsc	___xxtofl@exp^0,0,c
  5929  002E54  EF2E  F017         	goto	u3531
  5930  002E58  EF30  F017         	goto	u3530
  5931  002E5C                     u3531:
  5932  002E5C  EF31  F017         	goto	l3470
  5933  002E60                     u3530:
  5934  002E60  9E0D               	bcf	(___xxtofl@arg+2)^0,7,c
  5935  002E62                     l3470:
  5936  002E62  90D8               	bcf	status,0,c
  5937  002E64  320A               	rrcf	___xxtofl@exp^0,f,c
  5938  002E66  C00A  F005         	movff	___xxtofl@exp,??___xxtofl
  5939  002E6A  6A06               	clrf	(??___xxtofl+1)^0,c
  5940  002E6C  6A07               	clrf	(??___xxtofl+2)^0,c
  5941  002E6E  6A08               	clrf	(??___xxtofl+3)^0,c
  5942  002E70  C005  F008         	movff	??___xxtofl,??___xxtofl+3
  5943  002E74  6A07               	clrf	(??___xxtofl+2)^0,c
  5944  002E76  6A06               	clrf	(??___xxtofl+1)^0,c
  5945  002E78  6A05               	clrf	??___xxtofl^0,c
  5946  002E7A  5005               	movf	??___xxtofl^0,w,c
  5947  002E7C  120B               	iorwf	___xxtofl@arg^0,f,c
  5948  002E7E  5006               	movf	(??___xxtofl+1)^0,w,c
  5949  002E80  120C               	iorwf	(___xxtofl@arg+1)^0,f,c
  5950  002E82  5007               	movf	(??___xxtofl+2)^0,w,c
  5951  002E84  120D               	iorwf	(___xxtofl@arg+2)^0,f,c
  5952  002E86  5008               	movf	(??___xxtofl+3)^0,w,c
  5953  002E88  120E               	iorwf	(___xxtofl@arg+3)^0,f,c
  5954  002E8A  5009               	movf	___xxtofl@sign^0,w,c
  5955  002E8C  B4D8               	btfsc	status,2,c
  5956  002E8E  EF4B  F017         	goto	u3541
  5957  002E92  EF4D  F017         	goto	u3540
  5958  002E96                     u3541:
  5959  002E96  EF55  F017         	goto	l3480
  5960  002E9A                     u3540:
  5961  002E9A  BE04               	btfsc	(___xxtofl@val+3)^0,7,c
  5962  002E9C  EF54  F017         	goto	u3550
  5963  002EA0  EF52  F017         	goto	u3551
  5964  002EA4                     u3551:
  5965  002EA4  EF55  F017         	goto	l3480
  5966  002EA8                     u3550:
  5967  002EA8  8E0E               	bsf	(___xxtofl@arg+3)^0,7,c
  5968  002EAA                     l3480:
  5969  002EAA  C00B  F001         	movff	___xxtofl@arg,?___xxtofl
  5970  002EAE  C00C  F002         	movff	___xxtofl@arg+1,?___xxtofl+1
  5971  002EB2  C00D  F003         	movff	___xxtofl@arg+2,?___xxtofl+2
  5972  002EB6  C00E  F004         	movff	___xxtofl@arg+3,?___xxtofl+3
  5973  002EBA                     l954:
  5974  002EBA  0012               	return		;funcret
  5975  002EBC                     __end_of___xxtofl:
  5976                           	callstack 0
  5977                           
  5978 ;; *************** function ___fltol *****************
  5979 ;; Defined at:
  5980 ;;		line 43 in file "C:\Program Files\Microchip\xc8\v2.32\pic\sources\c99\common\fltol.c"
  5981 ;; Parameters:    Size  Location     Type
  5982 ;;  f1              4   80[COMRAM] unsigned char 
  5983 ;; Auto vars:     Size  Location     Type
  5984 ;;  exp1            1   89[COMRAM] unsigned char 
  5985 ;;  sign1           1   88[COMRAM] unsigned char 
  5986 ;; Return value:  Size  Location     Type
  5987 ;;                  4   80[COMRAM] long 
  5988 ;; Registers used:
  5989 ;;		wreg, status,2, status,0
  5990 ;; Tracked objects:
  5991 ;;		On entry : 0/0
  5992 ;;		On exit  : 0/0
  5993 ;;		Unchanged: 0/0
  5994 ;; Data sizes:     COMRAM   BANK0   BANK1   BANK2   BANK3   BANK4   BANK5   BANK6   BANK7
  5995 ;;      Params:         4       0       0       0       0       0       0       0       0
  5996 ;;      Locals:         2       0       0       0       0       0       0       0       0
  5997 ;;      Temps:          4       0       0       0       0       0       0       0       0
  5998 ;;      Totals:        10       0       0       0       0       0       0       0       0
  5999 ;;Total ram usage:       10 bytes
  6000 ;; Hardware stack levels used: 1
  6001 ;; This function calls:
  6002 ;;		Nothing
  6003 ;; This function is called by:
  6004 ;;		_tocar_nota
  6005 ;;		_silencio
  6006 ;;		_cancion1
  6007 ;; This function uses a non-reentrant model
  6008 ;;
  6009                           
  6010                           	psect	text19
  6011  0034D4                     __ptext19:
  6012                           	callstack 0
  6013  0034D4                     ___fltol:
  6014                           	callstack 28
  6015  0034D4  3453               	rlcf	(___fltol@f1+2)^0,w,c
  6016  0034D6  3454               	rlcf	(___fltol@f1+3)^0,w,c
  6017  0034D8  6E5A               	movwf	___fltol@exp1^0,c
  6018  0034DA  505A               	movf	___fltol@exp1^0,w,c
  6019  0034DC  A4D8               	btfss	status,2,c
  6020  0034DE  EF73  F01A         	goto	u3391
  6021  0034E2  EF75  F01A         	goto	u3390
  6022  0034E6                     u3391:
  6023  0034E6  EF7F  F01A         	goto	l3400
  6024  0034EA                     u3390:
  6025  0034EA                     l3396:
  6026  0034EA  0E00               	movlw	0
  6027  0034EC  6E51               	movwf	?___fltol^0,c
  6028  0034EE  0E00               	movlw	0
  6029  0034F0  6E52               	movwf	(?___fltol+1)^0,c
  6030  0034F2  0E00               	movlw	0
  6031  0034F4  6E53               	movwf	(?___fltol+2)^0,c
  6032  0034F6  0E00               	movlw	0
  6033  0034F8  6E54               	movwf	(?___fltol+3)^0,c
  6034  0034FA  EFEC  F01A         	goto	l593
  6035  0034FE                     l3400:
  6036  0034FE  C051  F055         	movff	___fltol@f1,??___fltol
  6037  003502  C052  F056         	movff	___fltol@f1+1,??___fltol+1
  6038  003506  C053  F057         	movff	___fltol@f1+2,??___fltol+2
  6039  00350A  C054  F058         	movff	___fltol@f1+3,??___fltol+3
  6040  00350E  0E20               	movlw	32
  6041  003510  EF8F  F01A         	goto	u3400
  6042  003514                     u3405:
  6043  003514  90D8               	bcf	status,0,c
  6044  003516  3258               	rrcf	(??___fltol+3)^0,f,c
  6045  003518  3257               	rrcf	(??___fltol+2)^0,f,c
  6046  00351A  3256               	rrcf	(??___fltol+1)^0,f,c
  6047  00351C  3255               	rrcf	??___fltol^0,f,c
  6048  00351E                     u3400:
  6049  00351E  2EE8               	decfsz	wreg,f,c
  6050  003520  EF8A  F01A         	goto	u3405
  6051  003524  5055               	movf	??___fltol^0,w,c
  6052  003526  6E59               	movwf	___fltol@sign1^0,c
  6053  003528  8E53               	bsf	(___fltol@f1+2)^0,7,c
  6054  00352A  0EFF               	movlw	255
  6055  00352C  1651               	andwf	___fltol@f1^0,f,c
  6056  00352E  0EFF               	movlw	255
  6057  003530  1652               	andwf	(___fltol@f1+1)^0,f,c
  6058  003532  0EFF               	movlw	255
  6059  003534  1653               	andwf	(___fltol@f1+2)^0,f,c
  6060  003536  0E00               	movlw	0
  6061  003538  1654               	andwf	(___fltol@f1+3)^0,f,c
  6062  00353A  0E96               	movlw	150
  6063  00353C  5E5A               	subwf	___fltol@exp1^0,f,c
  6064  00353E  BE5A               	btfsc	___fltol@exp1^0,7,c
  6065  003540  EFA6  F01A         	goto	u3410
  6066  003544  EFA4  F01A         	goto	u3411
  6067  003548                     u3411:
  6068  003548  EFBC  F01A         	goto	l3420
  6069  00354C                     u3410:
  6070  00354C  505A               	movf	___fltol@exp1^0,w,c
  6071  00354E  0A80               	xorlw	128
  6072  003550  0F97               	addlw	151
  6073  003552  B0D8               	btfsc	status,0,c
  6074  003554  EFAE  F01A         	goto	u3421
  6075  003558  EFB0  F01A         	goto	u3420
  6076  00355C                     u3421:
  6077  00355C  EFB2  F01A         	goto	l3416
  6078  003560                     u3420:
  6079  003560  EF75  F01A         	goto	l3396
  6080  003564                     l3416:
  6081  003564  90D8               	bcf	status,0,c
  6082  003566  3254               	rrcf	(___fltol@f1+3)^0,f,c
  6083  003568  3253               	rrcf	(___fltol@f1+2)^0,f,c
  6084  00356A  3252               	rrcf	(___fltol@f1+1)^0,f,c
  6085  00356C  3251               	rrcf	___fltol@f1^0,f,c
  6086  00356E  3E5A               	incfsz	___fltol@exp1^0,f,c
  6087  003570  EFB2  F01A         	goto	l3416
  6088  003574  EFD4  F01A         	goto	l3430
  6089  003578                     l3420:
  6090  003578  0E1F               	movlw	31
  6091  00357A  645A               	cpfsgt	___fltol@exp1^0,c
  6092  00357C  EFC2  F01A         	goto	u3431
  6093  003580  EFC4  F01A         	goto	u3430
  6094  003584                     u3431:
  6095  003584  EFCC  F01A         	goto	l3428
  6096  003588                     u3430:
  6097  003588  EF75  F01A         	goto	l3396
  6098  00358C                     l3426:
  6099  00358C  90D8               	bcf	status,0,c
  6100  00358E  3651               	rlcf	___fltol@f1^0,f,c
  6101  003590  3652               	rlcf	(___fltol@f1+1)^0,f,c
  6102  003592  3653               	rlcf	(___fltol@f1+2)^0,f,c
  6103  003594  3654               	rlcf	(___fltol@f1+3)^0,f,c
  6104  003596  065A               	decf	___fltol@exp1^0,f,c
  6105  003598                     l3428:
  6106  003598  505A               	movf	___fltol@exp1^0,w,c
  6107  00359A  A4D8               	btfss	status,2,c
  6108  00359C  EFD2  F01A         	goto	u3441
  6109  0035A0  EFD4  F01A         	goto	u3440
  6110  0035A4                     u3441:
  6111  0035A4  EFC6  F01A         	goto	l3426
  6112  0035A8                     u3440:
  6113  0035A8                     l3430:
  6114  0035A8  5059               	movf	___fltol@sign1^0,w,c
  6115  0035AA  B4D8               	btfsc	status,2,c
  6116  0035AC  EFDA  F01A         	goto	u3451
  6117  0035B0  EFDC  F01A         	goto	u3450
  6118  0035B4                     u3451:
  6119  0035B4  EFE4  F01A         	goto	l3434
  6120  0035B8                     u3450:
  6121  0035B8  1E54               	comf	(___fltol@f1+3)^0,f,c
  6122  0035BA  1E53               	comf	(___fltol@f1+2)^0,f,c
  6123  0035BC  1E52               	comf	(___fltol@f1+1)^0,f,c
  6124  0035BE  6C51               	negf	___fltol@f1^0,c
  6125  0035C0  0E00               	movlw	0
  6126  0035C2  2252               	addwfc	(___fltol@f1+1)^0,f,c
  6127  0035C4  2253               	addwfc	(___fltol@f1+2)^0,f,c
  6128  0035C6  2254               	addwfc	(___fltol@f1+3)^0,f,c
  6129  0035C8                     l3434:
  6130  0035C8  C051  F051         	movff	___fltol@f1,?___fltol
  6131  0035CC  C052  F052         	movff	___fltol@f1+1,?___fltol+1
  6132  0035D0  C053  F053         	movff	___fltol@f1+2,?___fltol+2
  6133  0035D4  C054  F054         	movff	___fltol@f1+3,?___fltol+3
  6134  0035D8                     l593:
  6135  0035D8  0012               	return		;funcret
  6136  0035DA                     __end_of___fltol:
  6137                           	callstack 0
  6138                           
  6139 ;; *************** function ___flsub *****************
  6140 ;; Defined at:
  6141 ;;		line 245 in file "C:\Program Files\Microchip\xc8\v2.32\pic\sources\c99\common\sprcadd.c"
  6142 ;; Parameters:    Size  Location     Type
  6143 ;;  b               4   80[COMRAM] long 
  6144 ;;  a               4   84[COMRAM] long 
  6145 ;; Auto vars:     Size  Location     Type
  6146 ;;		None
  6147 ;; Return value:  Size  Location     Type
  6148 ;;                  4   80[COMRAM] long 
  6149 ;; Registers used:
  6150 ;;		wreg, status,2, status,0, cstack
  6151 ;; Tracked objects:
  6152 ;;		On entry : 0/0
  6153 ;;		On exit  : 0/0
  6154 ;;		Unchanged: 0/0
  6155 ;; Data sizes:     COMRAM   BANK0   BANK1   BANK2   BANK3   BANK4   BANK5   BANK6   BANK7
  6156 ;;      Params:         8       0       0       0       0       0       0       0       0
  6157 ;;      Locals:         0       0       0       0       0       0       0       0       0
  6158 ;;      Temps:          0       0       0       0       0       0       0       0       0
  6159 ;;      Totals:         8       0       0       0       0       0       0       0       0
  6160 ;;Total ram usage:        8 bytes
  6161 ;; Hardware stack levels used: 1
  6162 ;; Hardware stack levels required when called: 1
  6163 ;; This function calls:
  6164 ;;		___fladd
  6165 ;; This function is called by:
  6166 ;;		_tocar_nota
  6167 ;;		_silencio
  6168 ;; This function uses a non-reentrant model
  6169 ;;
  6170                           
  6171                           	psect	text20
  6172  003F04                     __ptext20:
  6173                           	callstack 0
  6174  003F04                     ___flsub:
  6175                           	callstack 27
  6176  003F04  0E00               	movlw	0
  6177  003F06  1A55               	xorwf	___flsub@a^0,f,c
  6178  003F08  0E00               	movlw	0
  6179  003F0A  1A56               	xorwf	(___flsub@a+1)^0,f,c
  6180  003F0C  0E00               	movlw	0
  6181  003F0E  1A57               	xorwf	(___flsub@a+2)^0,f,c
  6182  003F10  0E80               	movlw	128
  6183  003F12  1A58               	xorwf	(___flsub@a+3)^0,f,c
  6184  003F14  C051  F041         	movff	___flsub@b,___fladd@b
  6185  003F18  C052  F042         	movff	___flsub@b+1,___fladd@b+1
  6186  003F1C  C053  F043         	movff	___flsub@b+2,___fladd@b+2
  6187  003F20  C054  F044         	movff	___flsub@b+3,___fladd@b+3
  6188  003F24  C055  F045         	movff	___flsub@a,___fladd@a
  6189  003F28  C056  F046         	movff	___flsub@a+1,___fladd@a+1
  6190  003F2C  C057  F047         	movff	___flsub@a+2,___fladd@a+2
  6191  003F30  C058  F048         	movff	___flsub@a+3,___fladd@a+3
  6192  003F34  ECEF  F00C         	call	___fladd	;wreg free
  6193  003F38  C041  F051         	movff	?___fladd,?___flsub
  6194  003F3C  C042  F052         	movff	?___fladd+1,?___flsub+1
  6195  003F40  C043  F053         	movff	?___fladd+2,?___flsub+2
  6196  003F44  C044  F054         	movff	?___fladd+3,?___flsub+3
  6197  003F48  0012               	return		;funcret
  6198  003F4A                     __end_of___flsub:
  6199                           	callstack 0
  6200                           
  6201 ;; *************** function ___fladd *****************
  6202 ;; Defined at:
  6203 ;;		line 10 in file "C:\Program Files\Microchip\xc8\v2.32\pic\sources\c99\common\sprcadd.c"
  6204 ;; Parameters:    Size  Location     Type
  6205 ;;  b               4   64[COMRAM] long 
  6206 ;;  a               4   68[COMRAM] long 
  6207 ;; Auto vars:     Size  Location     Type
  6208 ;;  grs             1   79[COMRAM] unsigned char 
  6209 ;;  bexp            1   78[COMRAM] unsigned char 
  6210 ;;  aexp            1   77[COMRAM] unsigned char 
  6211 ;;  signs           1   76[COMRAM] unsigned char 
  6212 ;; Return value:  Size  Location     Type
  6213 ;;                  4   64[COMRAM] unsigned char 
  6214 ;; Registers used:
  6215 ;;		wreg, status,2, status,0
  6216 ;; Tracked objects:
  6217 ;;		On entry : 0/0
  6218 ;;		On exit  : 0/0
  6219 ;;		Unchanged: 0/0
  6220 ;; Data sizes:     COMRAM   BANK0   BANK1   BANK2   BANK3   BANK4   BANK5   BANK6   BANK7
  6221 ;;      Params:         8       0       0       0       0       0       0       0       0
  6222 ;;      Locals:         4       0       0       0       0       0       0       0       0
  6223 ;;      Temps:          4       0       0       0       0       0       0       0       0
  6224 ;;      Totals:        16       0       0       0       0       0       0       0       0
  6225 ;;Total ram usage:       16 bytes
  6226 ;; Hardware stack levels used: 1
  6227 ;; This function calls:
  6228 ;;		Nothing
  6229 ;; This function is called by:
  6230 ;;		_cancion1
  6231 ;;		___flsub
  6232 ;; This function uses a non-reentrant model
  6233 ;;
  6234                           
  6235                           	psect	text21
  6236  0019DE                     __ptext21:
  6237                           	callstack 0
  6238  0019DE                     ___fladd:
  6239                           	callstack 27
  6240  0019DE  5044               	movf	(___fladd@b+3)^0,w,c
  6241  0019E0  0B80               	andlw	128
  6242  0019E2  6E4D               	movwf	___fladd@signs^0,c
  6243  0019E4  5044               	movf	(___fladd@b+3)^0,w,c
  6244  0019E6  2444               	addwf	(___fladd@b+3)^0,w,c
  6245  0019E8  6E4F               	movwf	___fladd@bexp^0,c
  6246  0019EA  AE43               	btfss	(___fladd@b+2)^0,7,c
  6247  0019EC  EFFA  F00C         	goto	u2651
  6248  0019F0  EFFC  F00C         	goto	u2650
  6249  0019F4                     u2651:
  6250  0019F4  EFFD  F00C         	goto	l2888
  6251  0019F8                     u2650:
  6252  0019F8  804F               	bsf	___fladd@bexp^0,0,c
  6253  0019FA                     l2888:
  6254  0019FA  504F               	movf	___fladd@bexp^0,w,c
  6255  0019FC  B4D8               	btfsc	status,2,c
  6256  0019FE  EF03  F00D         	goto	u2661
  6257  001A02  EF05  F00D         	goto	u2660
  6258  001A06                     u2661:
  6259  001A06  EF1A  F00D         	goto	l2898
  6260  001A0A                     u2660:
  6261  001A0A  284F               	incf	___fladd@bexp^0,w,c
  6262  001A0C  A4D8               	btfss	status,2,c
  6263  001A0E  EF0B  F00D         	goto	u2671
  6264  001A12  EF0D  F00D         	goto	u2670
  6265  001A16                     u2671:
  6266  001A16  EF15  F00D         	goto	l2894
  6267  001A1A                     u2670:
  6268  001A1A  0E00               	movlw	0
  6269  001A1C  6E41               	movwf	___fladd@b^0,c
  6270  001A1E  0E00               	movlw	0
  6271  001A20  6E42               	movwf	(___fladd@b+1)^0,c
  6272  001A22  0E00               	movlw	0
  6273  001A24  6E43               	movwf	(___fladd@b+2)^0,c
  6274  001A26  0E00               	movlw	0
  6275  001A28  6E44               	movwf	(___fladd@b+3)^0,c
  6276  001A2A                     l2894:
  6277  001A2A  8E43               	bsf	(___fladd@b+2)^0,7,c
  6278  001A2C  0E00               	movlw	0
  6279  001A2E  6E44               	movwf	(___fladd@b+3)^0,c
  6280  001A30  EF22  F00D         	goto	l2900
  6281  001A34                     l2898:
  6282  001A34  0E00               	movlw	0
  6283  001A36  6E41               	movwf	___fladd@b^0,c
  6284  001A38  0E00               	movlw	0
  6285  001A3A  6E42               	movwf	(___fladd@b+1)^0,c
  6286  001A3C  0E00               	movlw	0
  6287  001A3E  6E43               	movwf	(___fladd@b+2)^0,c
  6288  001A40  0E00               	movlw	0
  6289  001A42  6E44               	movwf	(___fladd@b+3)^0,c
  6290  001A44                     l2900:
  6291  001A44  5048               	movf	(___fladd@a+3)^0,w,c
  6292  001A46  0B80               	andlw	128
  6293  001A48  6E4E               	movwf	___fladd@aexp^0,c
  6294  001A4A  504D               	movf	___fladd@signs^0,w,c
  6295  001A4C  184E               	xorwf	___fladd@aexp^0,w,c
  6296  001A4E  B4D8               	btfsc	status,2,c
  6297  001A50  EF2C  F00D         	goto	u2681
  6298  001A54  EF2E  F00D         	goto	u2680
  6299  001A58                     u2681:
  6300  001A58  EF2F  F00D         	goto	l2906
  6301  001A5C                     u2680:
  6302  001A5C  8C4D               	bsf	___fladd@signs^0,6,c
  6303  001A5E                     l2906:
  6304  001A5E  5048               	movf	(___fladd@a+3)^0,w,c
  6305  001A60  2448               	addwf	(___fladd@a+3)^0,w,c
  6306  001A62  6E4E               	movwf	___fladd@aexp^0,c
  6307  001A64  AE47               	btfss	(___fladd@a+2)^0,7,c
  6308  001A66  EF37  F00D         	goto	u2691
  6309  001A6A  EF39  F00D         	goto	u2690
  6310  001A6E                     u2691:
  6311  001A6E  EF3A  F00D         	goto	l2912
  6312  001A72                     u2690:
  6313  001A72  804E               	bsf	___fladd@aexp^0,0,c
  6314  001A74                     l2912:
  6315  001A74  504E               	movf	___fladd@aexp^0,w,c
  6316  001A76  B4D8               	btfsc	status,2,c
  6317  001A78  EF40  F00D         	goto	u2701
  6318  001A7C  EF42  F00D         	goto	u2700
  6319  001A80                     u2701:
  6320  001A80  EF57  F00D         	goto	l2922
  6321  001A84                     u2700:
  6322  001A84  284E               	incf	___fladd@aexp^0,w,c
  6323  001A86  A4D8               	btfss	status,2,c
  6324  001A88  EF48  F00D         	goto	u2711
  6325  001A8C  EF4A  F00D         	goto	u2710
  6326  001A90                     u2711:
  6327  001A90  EF52  F00D         	goto	l2918
  6328  001A94                     u2710:
  6329  001A94  0E00               	movlw	0
  6330  001A96  6E45               	movwf	___fladd@a^0,c
  6331  001A98  0E00               	movlw	0
  6332  001A9A  6E46               	movwf	(___fladd@a+1)^0,c
  6333  001A9C  0E00               	movlw	0
  6334  001A9E  6E47               	movwf	(___fladd@a+2)^0,c
  6335  001AA0  0E00               	movlw	0
  6336  001AA2  6E48               	movwf	(___fladd@a+3)^0,c
  6337  001AA4                     l2918:
  6338  001AA4  8E47               	bsf	(___fladd@a+2)^0,7,c
  6339  001AA6  0E00               	movlw	0
  6340  001AA8  6E48               	movwf	(___fladd@a+3)^0,c
  6341  001AAA  EF5F  F00D         	goto	l2924
  6342  001AAE                     l2922:
  6343  001AAE  0E00               	movlw	0
  6344  001AB0  6E45               	movwf	___fladd@a^0,c
  6345  001AB2  0E00               	movlw	0
  6346  001AB4  6E46               	movwf	(___fladd@a+1)^0,c
  6347  001AB6  0E00               	movlw	0
  6348  001AB8  6E47               	movwf	(___fladd@a+2)^0,c
  6349  001ABA  0E00               	movlw	0
  6350  001ABC  6E48               	movwf	(___fladd@a+3)^0,c
  6351  001ABE                     l2924:
  6352  001ABE  504F               	movf	___fladd@bexp^0,w,c
  6353  001AC0  5C4E               	subwf	___fladd@aexp^0,w,c
  6354  001AC2  B0D8               	btfsc	status,0,c
  6355  001AC4  EF66  F00D         	goto	u2721
  6356  001AC8  EF68  F00D         	goto	u2720
  6357  001ACC                     u2721:
  6358  001ACC  EF8F  F00D         	goto	l2960
  6359  001AD0                     u2720:
  6360  001AD0  AC4D               	btfss	___fladd@signs^0,6,c
  6361  001AD2  EF6D  F00D         	goto	u2731
  6362  001AD6  EF6F  F00D         	goto	u2730
  6363  001ADA                     u2731:
  6364  001ADA  EF71  F00D         	goto	l2930
  6365  001ADE                     u2730:
  6366  001ADE  0E80               	movlw	128
  6367  001AE0  1A4D               	xorwf	___fladd@signs^0,f,c
  6368  001AE2                     l2930:
  6369  001AE2  C04F  F050         	movff	___fladd@bexp,___fladd@grs
  6370  001AE6  C04E  F04F         	movff	___fladd@aexp,___fladd@bexp
  6371  001AEA  C050  F04E         	movff	___fladd@grs,___fladd@aexp
  6372  001AEE  C041  F050         	movff	___fladd@b,___fladd@grs
  6373  001AF2  C045  F041         	movff	___fladd@a,___fladd@b
  6374  001AF6  C050  F045         	movff	___fladd@grs,___fladd@a
  6375  001AFA  C042  F050         	movff	___fladd@b+1,___fladd@grs
  6376  001AFE  C046  F042         	movff	___fladd@a+1,___fladd@b+1
  6377  001B02  C050  F046         	movff	___fladd@grs,___fladd@a+1
  6378  001B06  C043  F050         	movff	___fladd@b+2,___fladd@grs
  6379  001B0A  C047  F043         	movff	___fladd@a+2,___fladd@b+2
  6380  001B0E  C050  F047         	movff	___fladd@grs,___fladd@a+2
  6381  001B12  C044  F050         	movff	___fladd@b+3,___fladd@grs
  6382  001B16  C048  F044         	movff	___fladd@a+3,___fladd@b+3
  6383  001B1A  C050  F048         	movff	___fladd@grs,___fladd@a+3
  6384  001B1E                     l2960:
  6385  001B1E  0E00               	movlw	0
  6386  001B20  6E50               	movwf	___fladd@grs^0,c
  6387  001B22  504F               	movf	___fladd@bexp^0,w,c
  6388  001B24  C04E  F049         	movff	___fladd@aexp,??___fladd
  6389  001B28  6A4A               	clrf	(??___fladd+1)^0,c
  6390  001B2A  5E49               	subwf	??___fladd^0,f,c
  6391  001B2C  0E00               	movlw	0
  6392  001B2E  5A4A               	subwfb	(??___fladd+1)^0,f,c
  6393  001B30  BE4A               	btfsc	(??___fladd+1)^0,7,c
  6394  001B32  EFA4  F00D         	goto	u2741
  6395  001B36  504A               	movf	(??___fladd+1)^0,w,c
  6396  001B38  E109               	bnz	u2740
  6397  001B3A  0E1A               	movlw	26
  6398  001B3C  5C49               	subwf	??___fladd^0,w,c
  6399  001B3E  A0D8               	btfss	status,0,c
  6400  001B40  EFA4  F00D         	goto	u2741
  6401  001B44  EFA6  F00D         	goto	u2740
  6402  001B48                     u2741:
  6403  001B48  EFDD  F00D         	goto	l825
  6404  001B4C                     u2740:
  6405  001B4C  5041               	movf	___fladd@b^0,w,c
  6406  001B4E  1042               	iorwf	(___fladd@b+1)^0,w,c
  6407  001B50  1043               	iorwf	(___fladd@b+2)^0,w,c
  6408  001B52  1044               	iorwf	(___fladd@b+3)^0,w,c
  6409  001B54  A4D8               	btfss	status,2,c
  6410  001B56  EFAF  F00D         	goto	u2751
  6411  001B5A  EFB2  F00D         	goto	u2750
  6412  001B5E                     u2751:
  6413  001B5E  0E01               	movlw	1
  6414  001B60  EFB3  F00D         	goto	u2760
  6415  001B64                     u2750:
  6416  001B64  0E00               	movlw	0
  6417  001B66                     u2760:
  6418  001B66  6E50               	movwf	___fladd@grs^0,c
  6419  001B68  0E00               	movlw	0
  6420  001B6A  6E41               	movwf	___fladd@b^0,c
  6421  001B6C  0E00               	movlw	0
  6422  001B6E  6E42               	movwf	(___fladd@b+1)^0,c
  6423  001B70  0E00               	movlw	0
  6424  001B72  6E43               	movwf	(___fladd@b+2)^0,c
  6425  001B74  0E00               	movlw	0
  6426  001B76  6E44               	movwf	(___fladd@b+3)^0,c
  6427  001B78  C04E  F04F         	movff	___fladd@aexp,___fladd@bexp
  6428  001B7C  EFE6  F00D         	goto	l824
  6429  001B80                     l826:
  6430  001B80  A050               	btfss	___fladd@grs^0,0,c
  6431  001B82  EFC5  F00D         	goto	u2771
  6432  001B86  EFC7  F00D         	goto	u2770
  6433  001B8A                     u2771:
  6434  001B8A  EFCD  F00D         	goto	l2972
  6435  001B8E                     u2770:
  6436  001B8E  90D8               	bcf	status,0,c
  6437  001B90  3050               	rrcf	___fladd@grs^0,w,c
  6438  001B92  0901               	iorlw	1
  6439  001B94  6E50               	movwf	___fladd@grs^0,c
  6440  001B96  EFCF  F00D         	goto	l2974
  6441  001B9A                     l2972:
  6442  001B9A  90D8               	bcf	status,0,c
  6443  001B9C  3250               	rrcf	___fladd@grs^0,f,c
  6444  001B9E                     l2974:
  6445  001B9E  A041               	btfss	___fladd@b^0,0,c
  6446  001BA0  EFD4  F00D         	goto	u2781
  6447  001BA4  EFD6  F00D         	goto	u2780
  6448  001BA8                     u2781:
  6449  001BA8  EFD7  F00D         	goto	l2978
  6450  001BAC                     u2780:
  6451  001BAC  8E50               	bsf	___fladd@grs^0,7,c
  6452  001BAE                     l2978:
  6453  001BAE  3444               	rlcf	(___fladd@b+3)^0,w,c
  6454  001BB0  3244               	rrcf	(___fladd@b+3)^0,f,c
  6455  001BB2  3243               	rrcf	(___fladd@b+2)^0,f,c
  6456  001BB4  3242               	rrcf	(___fladd@b+1)^0,f,c
  6457  001BB6  3241               	rrcf	___fladd@b^0,f,c
  6458  001BB8  2A4F               	incf	___fladd@bexp^0,f,c
  6459  001BBA                     l825:
  6460  001BBA  504E               	movf	___fladd@aexp^0,w,c
  6461  001BBC  5C4F               	subwf	___fladd@bexp^0,w,c
  6462  001BBE  A0D8               	btfss	status,0,c
  6463  001BC0  EFE4  F00D         	goto	u2791
  6464  001BC4  EFE6  F00D         	goto	u2790
  6465  001BC8                     u2791:
  6466  001BC8  EFC0  F00D         	goto	l826
  6467  001BCC                     u2790:
  6468  001BCC                     l824:
  6469  001BCC  BC4D               	btfsc	___fladd@signs^0,6,c
  6470  001BCE  EFEB  F00D         	goto	u2801
  6471  001BD2  EFED  F00D         	goto	u2800
  6472  001BD6                     u2801:
  6473  001BD6  EF2D  F00E         	goto	l3006
  6474  001BDA                     u2800:
  6475  001BDA  504F               	movf	___fladd@bexp^0,w,c
  6476  001BDC  A4D8               	btfss	status,2,c
  6477  001BDE  EFF3  F00D         	goto	u2811
  6478  001BE2  EFF5  F00D         	goto	u2810
  6479  001BE6                     u2811:
  6480  001BE6  EFFF  F00D         	goto	l2988
  6481  001BEA                     u2810:
  6482  001BEA  0E00               	movlw	0
  6483  001BEC  6E41               	movwf	?___fladd^0,c
  6484  001BEE  0E00               	movlw	0
  6485  001BF0  6E42               	movwf	(?___fladd+1)^0,c
  6486  001BF2  0E00               	movlw	0
  6487  001BF4  6E43               	movwf	(?___fladd+2)^0,c
  6488  001BF6  0E00               	movlw	0
  6489  001BF8  6E44               	movwf	(?___fladd+3)^0,c
  6490  001BFA  EF4E  F00F         	goto	l833
  6491  001BFE                     l2988:
  6492  001BFE  5045               	movf	___fladd@a^0,w,c
  6493  001C00  2641               	addwf	___fladd@b^0,f,c
  6494  001C02  5046               	movf	(___fladd@a+1)^0,w,c
  6495  001C04  2242               	addwfc	(___fladd@b+1)^0,f,c
  6496  001C06  5047               	movf	(___fladd@a+2)^0,w,c
  6497  001C08  2243               	addwfc	(___fladd@b+2)^0,f,c
  6498  001C0A  5048               	movf	(___fladd@a+3)^0,w,c
  6499  001C0C  2244               	addwfc	(___fladd@b+3)^0,f,c
  6500  001C0E  A044               	btfss	(___fladd@b+3)^0,0,c
  6501  001C10  EF0C  F00E         	goto	u2821
  6502  001C14  EF0E  F00E         	goto	u2820
  6503  001C18                     u2821:
  6504  001C18  EFBA  F00E         	goto	l3042
  6505  001C1C                     u2820:
  6506  001C1C  A050               	btfss	___fladd@grs^0,0,c
  6507  001C1E  EF13  F00E         	goto	u2831
  6508  001C22  EF15  F00E         	goto	u2830
  6509  001C26                     u2831:
  6510  001C26  EF1B  F00E         	goto	l2996
  6511  001C2A                     u2830:
  6512  001C2A  90D8               	bcf	status,0,c
  6513  001C2C  3050               	rrcf	___fladd@grs^0,w,c
  6514  001C2E  0901               	iorlw	1
  6515  001C30  6E50               	movwf	___fladd@grs^0,c
  6516  001C32  EF1D  F00E         	goto	l2998
  6517  001C36                     l2996:
  6518  001C36  90D8               	bcf	status,0,c
  6519  001C38  3250               	rrcf	___fladd@grs^0,f,c
  6520  001C3A                     l2998:
  6521  001C3A  A041               	btfss	___fladd@b^0,0,c
  6522  001C3C  EF22  F00E         	goto	u2841
  6523  001C40  EF24  F00E         	goto	u2840
  6524  001C44                     u2841:
  6525  001C44  EF25  F00E         	goto	l3002
  6526  001C48                     u2840:
  6527  001C48  8E50               	bsf	___fladd@grs^0,7,c
  6528  001C4A                     l3002:
  6529  001C4A  3444               	rlcf	(___fladd@b+3)^0,w,c
  6530  001C4C  3244               	rrcf	(___fladd@b+3)^0,f,c
  6531  001C4E  3243               	rrcf	(___fladd@b+2)^0,f,c
  6532  001C50  3242               	rrcf	(___fladd@b+1)^0,f,c
  6533  001C52  3241               	rrcf	___fladd@b^0,f,c
  6534  001C54  2A4F               	incf	___fladd@bexp^0,f,c
  6535  001C56  EFBA  F00E         	goto	l3042
  6536  001C5A                     l3006:
  6537  001C5A  5045               	movf	___fladd@a^0,w,c
  6538  001C5C  5C41               	subwf	___fladd@b^0,w,c
  6539  001C5E  5046               	movf	(___fladd@a+1)^0,w,c
  6540  001C60  5842               	subwfb	(___fladd@b+1)^0,w,c
  6541  001C62  5047               	movf	(___fladd@a+2)^0,w,c
  6542  001C64  5843               	subwfb	(___fladd@b+2)^0,w,c
  6543  001C66  5044               	movf	(___fladd@b+3)^0,w,c
  6544  001C68  0A80               	xorlw	128
  6545  001C6A  6E49               	movwf	??___fladd^0,c
  6546  001C6C  5048               	movf	(___fladd@a+3)^0,w,c
  6547  001C6E  0A80               	xorlw	128
  6548  001C70  5849               	subwfb	??___fladd^0,w,c
  6549  001C72  B0D8               	btfsc	status,0,c
  6550  001C74  EF3E  F00E         	goto	u2851
  6551  001C78  EF40  F00E         	goto	u2850
  6552  001C7C                     u2851:
  6553  001C7C  EF6B  F00E         	goto	l3016
  6554  001C80                     u2850:
  6555  001C80  5041               	movf	___fladd@b^0,w,c
  6556  001C82  5C45               	subwf	___fladd@a^0,w,c
  6557  001C84  6E49               	movwf	??___fladd^0,c
  6558  001C86  5042               	movf	(___fladd@b+1)^0,w,c
  6559  001C88  5846               	subwfb	(___fladd@a+1)^0,w,c
  6560  001C8A  6E4A               	movwf	(??___fladd+1)^0,c
  6561  001C8C  5043               	movf	(___fladd@b+2)^0,w,c
  6562  001C8E  5847               	subwfb	(___fladd@a+2)^0,w,c
  6563  001C90  6E4B               	movwf	(??___fladd+2)^0,c
  6564  001C92  5044               	movf	(___fladd@b+3)^0,w,c
  6565  001C94  5848               	subwfb	(___fladd@a+3)^0,w,c
  6566  001C96  6E4C               	movwf	(??___fladd+3)^0,c
  6567  001C98  0EFF               	movlw	255
  6568  001C9A  2449               	addwf	??___fladd^0,w,c
  6569  001C9C  6E41               	movwf	___fladd@b^0,c
  6570  001C9E  0EFF               	movlw	255
  6571  001CA0  204A               	addwfc	(??___fladd+1)^0,w,c
  6572  001CA2  6E42               	movwf	(___fladd@b+1)^0,c
  6573  001CA4  0EFF               	movlw	255
  6574  001CA6  204B               	addwfc	(??___fladd+2)^0,w,c
  6575  001CA8  6E43               	movwf	(___fladd@b+2)^0,c
  6576  001CAA  0EFF               	movlw	255
  6577  001CAC  204C               	addwfc	(??___fladd+3)^0,w,c
  6578  001CAE  6E44               	movwf	(___fladd@b+3)^0,c
  6579  001CB0  0E80               	movlw	128
  6580  001CB2  1A4D               	xorwf	___fladd@signs^0,f,c
  6581  001CB4  6C50               	negf	___fladd@grs^0,c
  6582  001CB6  5050               	movf	___fladd@grs^0,w,c
  6583  001CB8  A4D8               	btfss	status,2,c
  6584  001CBA  EF61  F00E         	goto	u2861
  6585  001CBE  EF63  F00E         	goto	u2860
  6586  001CC2                     u2861:
  6587  001CC2  EF73  F00E         	goto	l841
  6588  001CC6                     u2860:
  6589  001CC6  0E01               	movlw	1
  6590  001CC8  2641               	addwf	___fladd@b^0,f,c
  6591  001CCA  0E00               	movlw	0
  6592  001CCC  2242               	addwfc	(___fladd@b+1)^0,f,c
  6593  001CCE  2243               	addwfc	(___fladd@b+2)^0,f,c
  6594  001CD0  2244               	addwfc	(___fladd@b+3)^0,f,c
  6595  001CD2  EF73  F00E         	goto	l841
  6596  001CD6                     l3016:
  6597  001CD6  5045               	movf	___fladd@a^0,w,c
  6598  001CD8  5E41               	subwf	___fladd@b^0,f,c
  6599  001CDA  5046               	movf	(___fladd@a+1)^0,w,c
  6600  001CDC  5A42               	subwfb	(___fladd@b+1)^0,f,c
  6601  001CDE  5047               	movf	(___fladd@a+2)^0,w,c
  6602  001CE0  5A43               	subwfb	(___fladd@b+2)^0,f,c
  6603  001CE2  5048               	movf	(___fladd@a+3)^0,w,c
  6604  001CE4  5A44               	subwfb	(___fladd@b+3)^0,f,c
  6605  001CE6                     l841:
  6606  001CE6  5041               	movf	___fladd@b^0,w,c
  6607  001CE8  1042               	iorwf	(___fladd@b+1)^0,w,c
  6608  001CEA  1043               	iorwf	(___fladd@b+2)^0,w,c
  6609  001CEC  1044               	iorwf	(___fladd@b+3)^0,w,c
  6610  001CEE  A4D8               	btfss	status,2,c
  6611  001CF0  EF7C  F00E         	goto	u2871
  6612  001CF4  EF7E  F00E         	goto	u2870
  6613  001CF8                     u2871:
  6614  001CF8  EFB3  F00E         	goto	l3040
  6615  001CFC                     u2870:
  6616  001CFC  5050               	movf	___fladd@grs^0,w,c
  6617  001CFE  A4D8               	btfss	status,2,c
  6618  001D00  EF84  F00E         	goto	u2881
  6619  001D04  EF86  F00E         	goto	u2880
  6620  001D08                     u2881:
  6621  001D08  EFB3  F00E         	goto	l3040
  6622  001D0C                     u2880:
  6623  001D0C  0E00               	movlw	0
  6624  001D0E  6E41               	movwf	?___fladd^0,c
  6625  001D10  0E00               	movlw	0
  6626  001D12  6E42               	movwf	(?___fladd+1)^0,c
  6627  001D14  0E00               	movlw	0
  6628  001D16  6E43               	movwf	(?___fladd+2)^0,c
  6629  001D18  0E00               	movlw	0
  6630  001D1A  6E44               	movwf	(?___fladd+3)^0,c
  6631  001D1C  EF4E  F00F         	goto	l833
  6632  001D20                     l3024:
  6633  001D20  90D8               	bcf	status,0,c
  6634  001D22  3641               	rlcf	___fladd@b^0,f,c
  6635  001D24  3642               	rlcf	(___fladd@b+1)^0,f,c
  6636  001D26  3643               	rlcf	(___fladd@b+2)^0,f,c
  6637  001D28  3644               	rlcf	(___fladd@b+3)^0,f,c
  6638  001D2A  AE50               	btfss	___fladd@grs^0,7,c
  6639  001D2C  EF9A  F00E         	goto	u2891
  6640  001D30  EF9C  F00E         	goto	u2890
  6641  001D34                     u2891:
  6642  001D34  EF9D  F00E         	goto	l3030
  6643  001D38                     u2890:
  6644  001D38  8041               	bsf	___fladd@b^0,0,c
  6645  001D3A                     l3030:
  6646  001D3A  A050               	btfss	___fladd@grs^0,0,c
  6647  001D3C  EFA2  F00E         	goto	u2901
  6648  001D40  EFA4  F00E         	goto	u2900
  6649  001D44                     u2901:
  6650  001D44  EFA8  F00E         	goto	l3034
  6651  001D48                     u2900:
  6652  001D48  80D8               	bsf	status,0,c
  6653  001D4A  3650               	rlcf	___fladd@grs^0,f,c
  6654  001D4C  EFAA  F00E         	goto	l3036
  6655  001D50                     l3034:
  6656  001D50  90D8               	bcf	status,0,c
  6657  001D52  3650               	rlcf	___fladd@grs^0,f,c
  6658  001D54                     l3036:
  6659  001D54  504F               	movf	___fladd@bexp^0,w,c
  6660  001D56  B4D8               	btfsc	status,2,c
  6661  001D58  EFB0  F00E         	goto	u2911
  6662  001D5C  EFB2  F00E         	goto	u2910
  6663  001D60                     u2911:
  6664  001D60  EFB3  F00E         	goto	l3040
  6665  001D64                     u2910:
  6666  001D64  064F               	decf	___fladd@bexp^0,f,c
  6667  001D66                     l3040:
  6668  001D66  AE43               	btfss	(___fladd@b+2)^0,7,c
  6669  001D68  EFB8  F00E         	goto	u2921
  6670  001D6C  EFBA  F00E         	goto	u2920
  6671  001D70                     u2921:
  6672  001D70  EF90  F00E         	goto	l3024
  6673  001D74                     u2920:
  6674  001D74                     l3042:
  6675  001D74  0E00               	movlw	0
  6676  001D76  6E4E               	movwf	___fladd@aexp^0,c
  6677  001D78  AE50               	btfss	___fladd@grs^0,7,c
  6678  001D7A  EFC1  F00E         	goto	u2931
  6679  001D7E  EFC3  F00E         	goto	u2930
  6680  001D82                     u2931:
  6681  001D82  EFDB  F00E         	goto	l850
  6682  001D86                     u2930:
  6683  001D86  C050  F049         	movff	___fladd@grs,??___fladd
  6684  001D8A  0E7F               	movlw	127
  6685  001D8C  1649               	andwf	??___fladd^0,f,c
  6686  001D8E  B4D8               	btfsc	status,2,c
  6687  001D90  EFCC  F00E         	goto	u2941
  6688  001D94  EFCE  F00E         	goto	u2940
  6689  001D98                     u2941:
  6690  001D98  EFD2  F00E         	goto	l851
  6691  001D9C                     u2940:
  6692  001D9C                     l3048:
  6693  001D9C  0E01               	movlw	1
  6694  001D9E  6E4E               	movwf	___fladd@aexp^0,c
  6695  001DA0  EFDB  F00E         	goto	l850
  6696  001DA4                     l851:
  6697  001DA4  A041               	btfss	___fladd@b^0,0,c
  6698  001DA6  EFD7  F00E         	goto	u2951
  6699  001DAA  EFD9  F00E         	goto	u2950
  6700  001DAE                     u2951:
  6701  001DAE  EFDB  F00E         	goto	l850
  6702  001DB2                     u2950:
  6703  001DB2  EFCE  F00E         	goto	l3048
  6704  001DB6                     l850:
  6705  001DB6  504E               	movf	___fladd@aexp^0,w,c
  6706  001DB8  B4D8               	btfsc	status,2,c
  6707  001DBA  EFE1  F00E         	goto	u2961
  6708  001DBE  EFE3  F00E         	goto	u2960
  6709  001DC2                     u2961:
  6710  001DC2  EF0E  F00F         	goto	l3060
  6711  001DC6                     u2960:
  6712  001DC6  0E01               	movlw	1
  6713  001DC8  2641               	addwf	___fladd@b^0,f,c
  6714  001DCA  0E00               	movlw	0
  6715  001DCC  2242               	addwfc	(___fladd@b+1)^0,f,c
  6716  001DCE  2243               	addwfc	(___fladd@b+2)^0,f,c
  6717  001DD0  2244               	addwfc	(___fladd@b+3)^0,f,c
  6718  001DD2  A044               	btfss	(___fladd@b+3)^0,0,c
  6719  001DD4  EFEE  F00E         	goto	u2971
  6720  001DD8  EFF0  F00E         	goto	u2970
  6721  001DDC                     u2971:
  6722  001DDC  EF0E  F00F         	goto	l3060
  6723  001DE0                     u2970:
  6724  001DE0  C041  F049         	movff	___fladd@b,??___fladd
  6725  001DE4  C042  F04A         	movff	___fladd@b+1,??___fladd+1
  6726  001DE8  C043  F04B         	movff	___fladd@b+2,??___fladd+2
  6727  001DEC  C044  F04C         	movff	___fladd@b+3,??___fladd+3
  6728  001DF0  344C               	rlcf	(??___fladd+3)^0,w,c
  6729  001DF2  324C               	rrcf	(??___fladd+3)^0,f,c
  6730  001DF4  324B               	rrcf	(??___fladd+2)^0,f,c
  6731  001DF6  324A               	rrcf	(??___fladd+1)^0,f,c
  6732  001DF8  3249               	rrcf	??___fladd^0,f,c
  6733  001DFA  C049  F041         	movff	??___fladd,___fladd@b
  6734  001DFE  C04A  F042         	movff	??___fladd+1,___fladd@b+1
  6735  001E02  C04B  F043         	movff	??___fladd+2,___fladd@b+2
  6736  001E06  C04C  F044         	movff	??___fladd+3,___fladd@b+3
  6737  001E0A  284F               	incf	___fladd@bexp^0,w,c
  6738  001E0C  B4D8               	btfsc	status,2,c
  6739  001E0E  EF0B  F00F         	goto	u2981
  6740  001E12  EF0D  F00F         	goto	u2980
  6741  001E16                     u2981:
  6742  001E16  EF0E  F00F         	goto	l3060
  6743  001E1A                     u2980:
  6744  001E1A  2A4F               	incf	___fladd@bexp^0,f,c
  6745  001E1C                     l3060:
  6746  001E1C  284F               	incf	___fladd@bexp^0,w,c
  6747  001E1E  B4D8               	btfsc	status,2,c
  6748  001E20  EF14  F00F         	goto	u2991
  6749  001E24  EF16  F00F         	goto	u2990
  6750  001E28                     u2991:
  6751  001E28  EF1E  F00F         	goto	l3064
  6752  001E2C                     u2990:
  6753  001E2C  504F               	movf	___fladd@bexp^0,w,c
  6754  001E2E  A4D8               	btfss	status,2,c
  6755  001E30  EF1C  F00F         	goto	u3001
  6756  001E34  EF1E  F00F         	goto	u3000
  6757  001E38                     u3001:
  6758  001E38  EF30  F00F         	goto	l3068
  6759  001E3C                     u3000:
  6760  001E3C                     l3064:
  6761  001E3C  0E00               	movlw	0
  6762  001E3E  6E41               	movwf	___fladd@b^0,c
  6763  001E40  0E00               	movlw	0
  6764  001E42  6E42               	movwf	(___fladd@b+1)^0,c
  6765  001E44  0E00               	movlw	0
  6766  001E46  6E43               	movwf	(___fladd@b+2)^0,c
  6767  001E48  0E00               	movlw	0
  6768  001E4A  6E44               	movwf	(___fladd@b+3)^0,c
  6769  001E4C  504F               	movf	___fladd@bexp^0,w,c
  6770  001E4E  A4D8               	btfss	status,2,c
  6771  001E50  EF2C  F00F         	goto	u3011
  6772  001E54  EF2E  F00F         	goto	u3010
  6773  001E58                     u3011:
  6774  001E58  EF30  F00F         	goto	l3068
  6775  001E5C                     u3010:
  6776  001E5C  0E00               	movlw	0
  6777  001E5E  6E4D               	movwf	___fladd@signs^0,c
  6778  001E60                     l3068:
  6779  001E60  A04F               	btfss	___fladd@bexp^0,0,c
  6780  001E62  EF35  F00F         	goto	u3021
  6781  001E66  EF37  F00F         	goto	u3020
  6782  001E6A                     u3021:
  6783  001E6A  EF3A  F00F         	goto	l3072
  6784  001E6E                     u3020:
  6785  001E6E  8E43               	bsf	(___fladd@b+2)^0,7,c
  6786  001E70  EF3B  F00F         	goto	l3074
  6787  001E74                     l3072:
  6788  001E74  9E43               	bcf	(___fladd@b+2)^0,7,c
  6789  001E76                     l3074:
  6790  001E76  90D8               	bcf	status,0,c
  6791  001E78  304F               	rrcf	___fladd@bexp^0,w,c
  6792  001E7A  6E44               	movwf	(___fladd@b+3)^0,c
  6793  001E7C  AE4D               	btfss	___fladd@signs^0,7,c
  6794  001E7E  EF43  F00F         	goto	u3031
  6795  001E82  EF45  F00F         	goto	u3030
  6796  001E86                     u3031:
  6797  001E86  EF46  F00F         	goto	l3080
  6798  001E8A                     u3030:
  6799  001E8A  8E44               	bsf	(___fladd@b+3)^0,7,c
  6800  001E8C                     l3080:
  6801  001E8C  C041  F041         	movff	___fladd@b,?___fladd
  6802  001E90  C042  F042         	movff	___fladd@b+1,?___fladd+1
  6803  001E94  C043  F043         	movff	___fladd@b+2,?___fladd+2
  6804  001E98  C044  F044         	movff	___fladd@b+3,?___fladd+3
  6805  001E9C                     l833:
  6806  001E9C  0012               	return		;funcret
  6807  001E9E                     __end_of___fladd:
  6808                           	callstack 0
  6809                           
  6810 ;; *************** function ___fldiv *****************
  6811 ;; Defined at:
  6812 ;;		line 11 in file "C:\Program Files\Microchip\xc8\v2.32\pic\sources\c99\common\sprcdiv.c"
  6813 ;; Parameters:    Size  Location     Type
  6814 ;;  b               4   39[COMRAM] unsigned char 
  6815 ;;  a               4   43[COMRAM] unsigned char 
  6816 ;; Auto vars:     Size  Location     Type
  6817 ;;  grs             4   58[COMRAM] unsigned long 
  6818 ;;  rem             4   51[COMRAM] unsigned long 
  6819 ;;  new_exp         2   56[COMRAM] short 
  6820 ;;  aexp            1   63[COMRAM] unsigned char 
  6821 ;;  bexp            1   62[COMRAM] unsigned char 
  6822 ;;  sign            1   55[COMRAM] unsigned char 
  6823 ;; Return value:  Size  Location     Type
  6824 ;;                  4   39[COMRAM] unsigned char 
  6825 ;; Registers used:
  6826 ;;		wreg, status,2, status,0
  6827 ;; Tracked objects:
  6828 ;;		On entry : 0/0
  6829 ;;		On exit  : 0/0
  6830 ;;		Unchanged: 0/0
  6831 ;; Data sizes:     COMRAM   BANK0   BANK1   BANK2   BANK3   BANK4   BANK5   BANK6   BANK7
  6832 ;;      Params:         8       0       0       0       0       0       0       0       0
  6833 ;;      Locals:        13       0       0       0       0       0       0       0       0
  6834 ;;      Temps:          4       0       0       0       0       0       0       0       0
  6835 ;;      Totals:        25       0       0       0       0       0       0       0       0
  6836 ;;Total ram usage:       25 bytes
  6837 ;; Hardware stack levels used: 1
  6838 ;; This function calls:
  6839 ;;		Nothing
  6840 ;; This function is called by:
  6841 ;;		_tocar_nota
  6842 ;;		_silencio
  6843 ;;		_cancion1
  6844 ;; This function uses a non-reentrant model
  6845 ;;
  6846                           
  6847                           	psect	text22
  6848  0022C8                     __ptext22:
  6849                           	callstack 0
  6850  0022C8                     ___fldiv:
  6851                           	callstack 28
  6852  0022C8  502B               	movf	(___fldiv@b+3)^0,w,c
  6853  0022CA  0B80               	andlw	128
  6854  0022CC  6E38               	movwf	___fldiv@sign^0,c
  6855  0022CE  502B               	movf	(___fldiv@b+3)^0,w,c
  6856  0022D0  242B               	addwf	(___fldiv@b+3)^0,w,c
  6857  0022D2  6E3F               	movwf	___fldiv@bexp^0,c
  6858  0022D4  AE2A               	btfss	(___fldiv@b+2)^0,7,c
  6859  0022D6  EF6F  F011         	goto	u3101
  6860  0022DA  EF71  F011         	goto	u3100
  6861  0022DE                     u3101:
  6862  0022DE  EF72  F011         	goto	l3212
  6863  0022E2                     u3100:
  6864  0022E2  803F               	bsf	___fldiv@bexp^0,0,c
  6865  0022E4                     l3212:
  6866  0022E4  503F               	movf	___fldiv@bexp^0,w,c
  6867  0022E6  B4D8               	btfsc	status,2,c
  6868  0022E8  EF78  F011         	goto	u3111
  6869  0022EC  EF7A  F011         	goto	u3110
  6870  0022F0                     u3111:
  6871  0022F0  EF8F  F011         	goto	l3222
  6872  0022F4                     u3110:
  6873  0022F4  283F               	incf	___fldiv@bexp^0,w,c
  6874  0022F6  A4D8               	btfss	status,2,c
  6875  0022F8  EF80  F011         	goto	u3121
  6876  0022FC  EF82  F011         	goto	u3120
  6877  002300                     u3121:
  6878  002300  EF8A  F011         	goto	l3218
  6879  002304                     u3120:
  6880  002304  0E00               	movlw	0
  6881  002306  6E28               	movwf	___fldiv@b^0,c
  6882  002308  0E00               	movlw	0
  6883  00230A  6E29               	movwf	(___fldiv@b+1)^0,c
  6884  00230C  0E00               	movlw	0
  6885  00230E  6E2A               	movwf	(___fldiv@b+2)^0,c
  6886  002310  0E00               	movlw	0
  6887  002312  6E2B               	movwf	(___fldiv@b+3)^0,c
  6888  002314                     l3218:
  6889  002314  8E2A               	bsf	(___fldiv@b+2)^0,7,c
  6890  002316  0E00               	movlw	0
  6891  002318  6E2B               	movwf	(___fldiv@b+3)^0,c
  6892  00231A  EF97  F011         	goto	l3224
  6893  00231E                     l3222:
  6894  00231E  0E00               	movlw	0
  6895  002320  6E28               	movwf	___fldiv@b^0,c
  6896  002322  0E00               	movlw	0
  6897  002324  6E29               	movwf	(___fldiv@b+1)^0,c
  6898  002326  0E00               	movlw	0
  6899  002328  6E2A               	movwf	(___fldiv@b+2)^0,c
  6900  00232A  0E00               	movlw	0
  6901  00232C  6E2B               	movwf	(___fldiv@b+3)^0,c
  6902  00232E                     l3224:
  6903  00232E  502F               	movf	(___fldiv@a+3)^0,w,c
  6904  002330  0B80               	andlw	128
  6905  002332  1A38               	xorwf	___fldiv@sign^0,f,c
  6906  002334  502F               	movf	(___fldiv@a+3)^0,w,c
  6907  002336  242F               	addwf	(___fldiv@a+3)^0,w,c
  6908  002338  6E40               	movwf	___fldiv@aexp^0,c
  6909  00233A  AE2E               	btfss	(___fldiv@a+2)^0,7,c
  6910  00233C  EFA2  F011         	goto	u3131
  6911  002340  EFA4  F011         	goto	u3130
  6912  002344                     u3131:
  6913  002344  EFA5  F011         	goto	l3232
  6914  002348                     u3130:
  6915  002348  8040               	bsf	___fldiv@aexp^0,0,c
  6916  00234A                     l3232:
  6917  00234A  5040               	movf	___fldiv@aexp^0,w,c
  6918  00234C  B4D8               	btfsc	status,2,c
  6919  00234E  EFAB  F011         	goto	u3141
  6920  002352  EFAD  F011         	goto	u3140
  6921  002356                     u3141:
  6922  002356  EFC2  F011         	goto	l3242
  6923  00235A                     u3140:
  6924  00235A  2840               	incf	___fldiv@aexp^0,w,c
  6925  00235C  A4D8               	btfss	status,2,c
  6926  00235E  EFB3  F011         	goto	u3151
  6927  002362  EFB5  F011         	goto	u3150
  6928  002366                     u3151:
  6929  002366  EFBD  F011         	goto	l3238
  6930  00236A                     u3150:
  6931  00236A  0E00               	movlw	0
  6932  00236C  6E2C               	movwf	___fldiv@a^0,c
  6933  00236E  0E00               	movlw	0
  6934  002370  6E2D               	movwf	(___fldiv@a+1)^0,c
  6935  002372  0E00               	movlw	0
  6936  002374  6E2E               	movwf	(___fldiv@a+2)^0,c
  6937  002376  0E00               	movlw	0
  6938  002378  6E2F               	movwf	(___fldiv@a+3)^0,c
  6939  00237A                     l3238:
  6940  00237A  8E2E               	bsf	(___fldiv@a+2)^0,7,c
  6941  00237C  0E00               	movlw	0
  6942  00237E  6E2F               	movwf	(___fldiv@a+3)^0,c
  6943  002380  EFCA  F011         	goto	l3244
  6944  002384                     l3242:
  6945  002384  0E00               	movlw	0
  6946  002386  6E2C               	movwf	___fldiv@a^0,c
  6947  002388  0E00               	movlw	0
  6948  00238A  6E2D               	movwf	(___fldiv@a+1)^0,c
  6949  00238C  0E00               	movlw	0
  6950  00238E  6E2E               	movwf	(___fldiv@a+2)^0,c
  6951  002390  0E00               	movlw	0
  6952  002392  6E2F               	movwf	(___fldiv@a+3)^0,c
  6953  002394                     l3244:
  6954  002394  502C               	movf	___fldiv@a^0,w,c
  6955  002396  102D               	iorwf	(___fldiv@a+1)^0,w,c
  6956  002398  102E               	iorwf	(___fldiv@a+2)^0,w,c
  6957  00239A  102F               	iorwf	(___fldiv@a+3)^0,w,c
  6958  00239C  A4D8               	btfss	status,2,c
  6959  00239E  EFD3  F011         	goto	u3161
  6960  0023A2  EFD5  F011         	goto	u3160
  6961  0023A6                     u3161:
  6962  0023A6  EFED  F011         	goto	l3256
  6963  0023AA                     u3160:
  6964  0023AA  0E00               	movlw	0
  6965  0023AC  6E28               	movwf	___fldiv@b^0,c
  6966  0023AE  0E00               	movlw	0
  6967  0023B0  6E29               	movwf	(___fldiv@b+1)^0,c
  6968  0023B2  0E00               	movlw	0
  6969  0023B4  6E2A               	movwf	(___fldiv@b+2)^0,c
  6970  0023B6  0E00               	movlw	0
  6971  0023B8  6E2B               	movwf	(___fldiv@b+3)^0,c
  6972  0023BA  0E80               	movlw	128
  6973  0023BC  122A               	iorwf	(___fldiv@b+2)^0,f,c
  6974  0023BE  0E7F               	movlw	127
  6975  0023C0  122B               	iorwf	(___fldiv@b+3)^0,f,c
  6976  0023C2                     l3250:
  6977  0023C2  5038               	movf	___fldiv@sign^0,w,c
  6978  0023C4  122B               	iorwf	(___fldiv@b+3)^0,f,c
  6979  0023C6  C028  F028         	movff	___fldiv@b,?___fldiv
  6980  0023CA  C029  F029         	movff	___fldiv@b+1,?___fldiv+1
  6981  0023CE  C02A  F02A         	movff	___fldiv@b+2,?___fldiv+2
  6982  0023D2  C02B  F02B         	movff	___fldiv@b+3,?___fldiv+3
  6983  0023D6  EF30  F013         	goto	l878
  6984  0023DA                     l3256:
  6985  0023DA  503F               	movf	___fldiv@bexp^0,w,c
  6986  0023DC  A4D8               	btfss	status,2,c
  6987  0023DE  EFF3  F011         	goto	u3171
  6988  0023E2  EFF5  F011         	goto	u3170
  6989  0023E6                     u3171:
  6990  0023E6  EFFF  F011         	goto	l3264
  6991  0023EA                     u3170:
  6992  0023EA  0E00               	movlw	0
  6993  0023EC  6E28               	movwf	?___fldiv^0,c
  6994  0023EE  0E00               	movlw	0
  6995  0023F0  6E29               	movwf	(?___fldiv+1)^0,c
  6996  0023F2  0E00               	movlw	0
  6997  0023F4  6E2A               	movwf	(?___fldiv+2)^0,c
  6998  0023F6  0E00               	movlw	0
  6999  0023F8  6E2B               	movwf	(?___fldiv+3)^0,c
  7000  0023FA  EF30  F013         	goto	l878
  7001  0023FE                     l3264:
  7002  0023FE  5040               	movf	___fldiv@aexp^0,w,c
  7003  002400  C03F  F030         	movff	___fldiv@bexp,??___fldiv
  7004  002404  6A31               	clrf	(??___fldiv+1)^0,c
  7005  002406  5E30               	subwf	??___fldiv^0,f,c
  7006  002408  0E00               	movlw	0
  7007  00240A  5A31               	subwfb	(??___fldiv+1)^0,f,c
  7008  00240C  0E7F               	movlw	127
  7009  00240E  2430               	addwf	??___fldiv^0,w,c
  7010  002410  6E39               	movwf	___fldiv@new_exp^0,c
  7011  002412  0E00               	movlw	0
  7012  002414  2031               	addwfc	(??___fldiv+1)^0,w,c
  7013  002416  6E3A               	movwf	(___fldiv@new_exp+1)^0,c
  7014  002418  C028  F034         	movff	___fldiv@b,___fldiv@rem
  7015  00241C  C029  F035         	movff	___fldiv@b+1,___fldiv@rem+1
  7016  002420  C02A  F036         	movff	___fldiv@b+2,___fldiv@rem+2
  7017  002424  C02B  F037         	movff	___fldiv@b+3,___fldiv@rem+3
  7018  002428  0E00               	movlw	0
  7019  00242A  6E28               	movwf	___fldiv@b^0,c
  7020  00242C  0E00               	movlw	0
  7021  00242E  6E29               	movwf	(___fldiv@b+1)^0,c
  7022  002430  0E00               	movlw	0
  7023  002432  6E2A               	movwf	(___fldiv@b+2)^0,c
  7024  002434  0E00               	movlw	0
  7025  002436  6E2B               	movwf	(___fldiv@b+3)^0,c
  7026  002438  0E00               	movlw	0
  7027  00243A  6E3B               	movwf	___fldiv@grs^0,c
  7028  00243C  0E00               	movlw	0
  7029  00243E  6E3C               	movwf	(___fldiv@grs+1)^0,c
  7030  002440  0E00               	movlw	0
  7031  002442  6E3D               	movwf	(___fldiv@grs+2)^0,c
  7032  002444  0E00               	movlw	0
  7033  002446  6E3E               	movwf	(___fldiv@grs+3)^0,c
  7034  002448  0E00               	movlw	0
  7035  00244A  6E40               	movwf	___fldiv@aexp^0,c
  7036  00244C  EF60  F012         	goto	l880
  7037  002450                     l3274:
  7038  002450  5040               	movf	___fldiv@aexp^0,w,c
  7039  002452  B4D8               	btfsc	status,2,c
  7040  002454  EF2E  F012         	goto	u3181
  7041  002458  EF30  F012         	goto	u3180
  7042  00245C                     u3181:
  7043  00245C  EF47  F012         	goto	l3282
  7044  002460                     u3180:
  7045  002460  90D8               	bcf	status,0,c
  7046  002462  3634               	rlcf	___fldiv@rem^0,f,c
  7047  002464  3635               	rlcf	(___fldiv@rem+1)^0,f,c
  7048  002466  3636               	rlcf	(___fldiv@rem+2)^0,f,c
  7049  002468  3637               	rlcf	(___fldiv@rem+3)^0,f,c
  7050  00246A  90D8               	bcf	status,0,c
  7051  00246C  3628               	rlcf	___fldiv@b^0,f,c
  7052  00246E  3629               	rlcf	(___fldiv@b+1)^0,f,c
  7053  002470  362A               	rlcf	(___fldiv@b+2)^0,f,c
  7054  002472  362B               	rlcf	(___fldiv@b+3)^0,f,c
  7055  002474  AE3E               	btfss	(___fldiv@grs+3)^0,7,c
  7056  002476  EF3F  F012         	goto	u3191
  7057  00247A  EF41  F012         	goto	u3190
  7058  00247E                     u3191:
  7059  00247E  EF42  F012         	goto	l883
  7060  002482                     u3190:
  7061  002482  8028               	bsf	___fldiv@b^0,0,c
  7062  002484                     l883:
  7063  002484  90D8               	bcf	status,0,c
  7064  002486  363B               	rlcf	___fldiv@grs^0,f,c
  7065  002488  363C               	rlcf	(___fldiv@grs+1)^0,f,c
  7066  00248A  363D               	rlcf	(___fldiv@grs+2)^0,f,c
  7067  00248C  363E               	rlcf	(___fldiv@grs+3)^0,f,c
  7068  00248E                     l3282:
  7069  00248E  502C               	movf	___fldiv@a^0,w,c
  7070  002490  5C34               	subwf	___fldiv@rem^0,w,c
  7071  002492  502D               	movf	(___fldiv@a+1)^0,w,c
  7072  002494  5835               	subwfb	(___fldiv@rem+1)^0,w,c
  7073  002496  502E               	movf	(___fldiv@a+2)^0,w,c
  7074  002498  5836               	subwfb	(___fldiv@rem+2)^0,w,c
  7075  00249A  502F               	movf	(___fldiv@a+3)^0,w,c
  7076  00249C  5837               	subwfb	(___fldiv@rem+3)^0,w,c
  7077  00249E  A0D8               	btfss	status,0,c
  7078  0024A0  EF54  F012         	goto	u3201
  7079  0024A4  EF56  F012         	goto	u3200
  7080  0024A8                     u3201:
  7081  0024A8  EF5F  F012         	goto	l3288
  7082  0024AC                     u3200:
  7083  0024AC  8C3E               	bsf	(___fldiv@grs+3)^0,6,c
  7084  0024AE  502C               	movf	___fldiv@a^0,w,c
  7085  0024B0  5E34               	subwf	___fldiv@rem^0,f,c
  7086  0024B2  502D               	movf	(___fldiv@a+1)^0,w,c
  7087  0024B4  5A35               	subwfb	(___fldiv@rem+1)^0,f,c
  7088  0024B6  502E               	movf	(___fldiv@a+2)^0,w,c
  7089  0024B8  5A36               	subwfb	(___fldiv@rem+2)^0,f,c
  7090  0024BA  502F               	movf	(___fldiv@a+3)^0,w,c
  7091  0024BC  5A37               	subwfb	(___fldiv@rem+3)^0,f,c
  7092  0024BE                     l3288:
  7093  0024BE  2A40               	incf	___fldiv@aexp^0,f,c
  7094  0024C0                     l880:
  7095  0024C0  0E19               	movlw	25
  7096  0024C2  6440               	cpfsgt	___fldiv@aexp^0,c
  7097  0024C4  EF66  F012         	goto	u3211
  7098  0024C8  EF68  F012         	goto	u3210
  7099  0024CC                     u3211:
  7100  0024CC  EF28  F012         	goto	l3274
  7101  0024D0                     u3210:
  7102  0024D0  5034               	movf	___fldiv@rem^0,w,c
  7103  0024D2  1035               	iorwf	(___fldiv@rem+1)^0,w,c
  7104  0024D4  1036               	iorwf	(___fldiv@rem+2)^0,w,c
  7105  0024D6  1037               	iorwf	(___fldiv@rem+3)^0,w,c
  7106  0024D8  B4D8               	btfsc	status,2,c
  7107  0024DA  EF71  F012         	goto	u3221
  7108  0024DE  EF73  F012         	goto	u3220
  7109  0024E2                     u3221:
  7110  0024E2  EF8B  F012         	goto	l3300
  7111  0024E6                     u3220:
  7112  0024E6  803B               	bsf	___fldiv@grs^0,0,c
  7113  0024E8  EF8B  F012         	goto	l3300
  7114  0024EC                     l3294:
  7115  0024EC  90D8               	bcf	status,0,c
  7116  0024EE  3628               	rlcf	___fldiv@b^0,f,c
  7117  0024F0  3629               	rlcf	(___fldiv@b+1)^0,f,c
  7118  0024F2  362A               	rlcf	(___fldiv@b+2)^0,f,c
  7119  0024F4  362B               	rlcf	(___fldiv@b+3)^0,f,c
  7120  0024F6  AE3E               	btfss	(___fldiv@grs+3)^0,7,c
  7121  0024F8  EF80  F012         	goto	u3231
  7122  0024FC  EF82  F012         	goto	u3230
  7123  002500                     u3231:
  7124  002500  EF83  F012         	goto	l889
  7125  002504                     u3230:
  7126  002504  8028               	bsf	___fldiv@b^0,0,c
  7127  002506                     l889:
  7128  002506  90D8               	bcf	status,0,c
  7129  002508  363B               	rlcf	___fldiv@grs^0,f,c
  7130  00250A  363C               	rlcf	(___fldiv@grs+1)^0,f,c
  7131  00250C  363D               	rlcf	(___fldiv@grs+2)^0,f,c
  7132  00250E  363E               	rlcf	(___fldiv@grs+3)^0,f,c
  7133  002510  0639               	decf	___fldiv@new_exp^0,f,c
  7134  002512  A0D8               	btfss	status,0,c
  7135  002514  063A               	decf	(___fldiv@new_exp+1)^0,f,c
  7136  002516                     l3300:
  7137  002516  AE2A               	btfss	(___fldiv@b+2)^0,7,c
  7138  002518  EF90  F012         	goto	u3241
  7139  00251C  EF92  F012         	goto	u3240
  7140  002520                     u3241:
  7141  002520  EF76  F012         	goto	l3294
  7142  002524                     u3240:
  7143  002524  0E00               	movlw	0
  7144  002526  6E40               	movwf	___fldiv@aexp^0,c
  7145  002528  AE3E               	btfss	(___fldiv@grs+3)^0,7,c
  7146  00252A  EF99  F012         	goto	u3251
  7147  00252E  EF9B  F012         	goto	u3250
  7148  002532                     u3251:
  7149  002532  EFBF  F012         	goto	l891
  7150  002536                     u3250:
  7151  002536  0EFF               	movlw	255
  7152  002538  143B               	andwf	___fldiv@grs^0,w,c
  7153  00253A  6E30               	movwf	??___fldiv^0,c
  7154  00253C  0EFF               	movlw	255
  7155  00253E  143C               	andwf	(___fldiv@grs+1)^0,w,c
  7156  002540  6E31               	movwf	(??___fldiv+1)^0,c
  7157  002542  0EFF               	movlw	255
  7158  002544  143D               	andwf	(___fldiv@grs+2)^0,w,c
  7159  002546  6E32               	movwf	(??___fldiv+2)^0,c
  7160  002548  0E7F               	movlw	127
  7161  00254A  143E               	andwf	(___fldiv@grs+3)^0,w,c
  7162  00254C  6E33               	movwf	(??___fldiv+3)^0,c
  7163  00254E  5030               	movf	??___fldiv^0,w,c
  7164  002550  1031               	iorwf	(??___fldiv+1)^0,w,c
  7165  002552  1032               	iorwf	(??___fldiv+2)^0,w,c
  7166  002554  1033               	iorwf	(??___fldiv+3)^0,w,c
  7167  002556  B4D8               	btfsc	status,2,c
  7168  002558  EFB0  F012         	goto	u3261
  7169  00255C  EFB2  F012         	goto	u3260
  7170  002560                     u3261:
  7171  002560  EFB6  F012         	goto	l892
  7172  002564                     u3260:
  7173  002564                     l3308:
  7174  002564  0E01               	movlw	1
  7175  002566  6E40               	movwf	___fldiv@aexp^0,c
  7176  002568  EFBF  F012         	goto	l891
  7177  00256C                     l892:
  7178  00256C  A028               	btfss	___fldiv@b^0,0,c
  7179  00256E  EFBB  F012         	goto	u3271
  7180  002572  EFBD  F012         	goto	u3270
  7181  002576                     u3271:
  7182  002576  EFBF  F012         	goto	l891
  7183  00257A                     u3270:
  7184  00257A  EFB2  F012         	goto	l3308
  7185  00257E                     l891:
  7186  00257E  5040               	movf	___fldiv@aexp^0,w,c
  7187  002580  B4D8               	btfsc	status,2,c
  7188  002582  EFC5  F012         	goto	u3281
  7189  002586  EFC7  F012         	goto	u3280
  7190  00258A                     u3281:
  7191  00258A  EFEB  F012         	goto	l3320
  7192  00258E                     u3280:
  7193  00258E  0E01               	movlw	1
  7194  002590  2628               	addwf	___fldiv@b^0,f,c
  7195  002592  0E00               	movlw	0
  7196  002594  2229               	addwfc	(___fldiv@b+1)^0,f,c
  7197  002596  222A               	addwfc	(___fldiv@b+2)^0,f,c
  7198  002598  222B               	addwfc	(___fldiv@b+3)^0,f,c
  7199  00259A  A02B               	btfss	(___fldiv@b+3)^0,0,c
  7200  00259C  EFD2  F012         	goto	u3291
  7201  0025A0  EFD4  F012         	goto	u3290
  7202  0025A4                     u3291:
  7203  0025A4  EFEB  F012         	goto	l3320
  7204  0025A8                     u3290:
  7205  0025A8  C028  F030         	movff	___fldiv@b,??___fldiv
  7206  0025AC  C029  F031         	movff	___fldiv@b+1,??___fldiv+1
  7207  0025B0  C02A  F032         	movff	___fldiv@b+2,??___fldiv+2
  7208  0025B4  C02B  F033         	movff	___fldiv@b+3,??___fldiv+3
  7209  0025B8  3433               	rlcf	(??___fldiv+3)^0,w,c
  7210  0025BA  3233               	rrcf	(??___fldiv+3)^0,f,c
  7211  0025BC  3232               	rrcf	(??___fldiv+2)^0,f,c
  7212  0025BE  3231               	rrcf	(??___fldiv+1)^0,f,c
  7213  0025C0  3230               	rrcf	??___fldiv^0,f,c
  7214  0025C2  C030  F028         	movff	??___fldiv,___fldiv@b
  7215  0025C6  C031  F029         	movff	??___fldiv+1,___fldiv@b+1
  7216  0025CA  C032  F02A         	movff	??___fldiv+2,___fldiv@b+2
  7217  0025CE  C033  F02B         	movff	??___fldiv+3,___fldiv@b+3
  7218  0025D2  4A39               	infsnz	___fldiv@new_exp^0,f,c
  7219  0025D4  2A3A               	incf	(___fldiv@new_exp+1)^0,f,c
  7220  0025D6                     l3320:
  7221  0025D6  BE3A               	btfsc	(___fldiv@new_exp+1)^0,7,c
  7222  0025D8  EFF6  F012         	goto	u3301
  7223  0025DC  503A               	movf	(___fldiv@new_exp+1)^0,w,c
  7224  0025DE  E108               	bnz	u3300
  7225  0025E0  2839               	incf	___fldiv@new_exp^0,w,c
  7226  0025E2  A0D8               	btfss	status,0,c
  7227  0025E4  EFF6  F012         	goto	u3301
  7228  0025E8  EFF8  F012         	goto	u3300
  7229  0025EC                     u3301:
  7230  0025EC  EF03  F013         	goto	l3324
  7231  0025F0                     u3300:
  7232  0025F0  0E00               	movlw	0
  7233  0025F2  6E3A               	movwf	(___fldiv@new_exp+1)^0,c
  7234  0025F4  6839               	setf	___fldiv@new_exp^0,c
  7235  0025F6  0E00               	movlw	0
  7236  0025F8  6E28               	movwf	___fldiv@b^0,c
  7237  0025FA  0E00               	movlw	0
  7238  0025FC  6E29               	movwf	(___fldiv@b+1)^0,c
  7239  0025FE  0E00               	movlw	0
  7240  002600  6E2A               	movwf	(___fldiv@b+2)^0,c
  7241  002602  0E00               	movlw	0
  7242  002604  6E2B               	movwf	(___fldiv@b+3)^0,c
  7243  002606                     l3324:
  7244  002606  BE3A               	btfsc	(___fldiv@new_exp+1)^0,7,c
  7245  002608  EF10  F013         	goto	u3310
  7246  00260C  503A               	movf	(___fldiv@new_exp+1)^0,w,c
  7247  00260E  E106               	bnz	u3311
  7248  002610  0439               	decf	___fldiv@new_exp^0,w,c
  7249  002612  B0D8               	btfsc	status,0,c
  7250  002614  EF0E  F013         	goto	u3311
  7251  002618  EF10  F013         	goto	u3310
  7252  00261C                     u3311:
  7253  00261C  EF1E  F013         	goto	l3328
  7254  002620                     u3310:
  7255  002620  0E00               	movlw	0
  7256  002622  6E3A               	movwf	(___fldiv@new_exp+1)^0,c
  7257  002624  0E00               	movlw	0
  7258  002626  6E39               	movwf	___fldiv@new_exp^0,c
  7259  002628  0E00               	movlw	0
  7260  00262A  6E28               	movwf	___fldiv@b^0,c
  7261  00262C  0E00               	movlw	0
  7262  00262E  6E29               	movwf	(___fldiv@b+1)^0,c
  7263  002630  0E00               	movlw	0
  7264  002632  6E2A               	movwf	(___fldiv@b+2)^0,c
  7265  002634  0E00               	movlw	0
  7266  002636  6E2B               	movwf	(___fldiv@b+3)^0,c
  7267  002638  0E00               	movlw	0
  7268  00263A  6E38               	movwf	___fldiv@sign^0,c
  7269  00263C                     l3328:
  7270  00263C  C039  F03F         	movff	___fldiv@new_exp,___fldiv@bexp
  7271  002640  A03F               	btfss	___fldiv@bexp^0,0,c
  7272  002642  EF25  F013         	goto	u3321
  7273  002646  EF27  F013         	goto	u3320
  7274  00264A                     u3321:
  7275  00264A  EF2A  F013         	goto	l3334
  7276  00264E                     u3320:
  7277  00264E  8E2A               	bsf	(___fldiv@b+2)^0,7,c
  7278  002650  EF2B  F013         	goto	l3336
  7279  002654                     l3334:
  7280  002654  9E2A               	bcf	(___fldiv@b+2)^0,7,c
  7281  002656                     l3336:
  7282  002656  90D8               	bcf	status,0,c
  7283  002658  303F               	rrcf	___fldiv@bexp^0,w,c
  7284  00265A  6E2B               	movwf	(___fldiv@b+3)^0,c
  7285  00265C  EFE1  F011         	goto	l3250
  7286  002660                     l878:
  7287  002660  0012               	return		;funcret
  7288  002662                     __end_of___fldiv:
  7289                           	callstack 0
  7290                           
  7291 ;; *************** function _putrsXLCD *****************
  7292 ;; Defined at:
  7293 ;;		line 118 in file "LCD_lib.c"
  7294 ;; Parameters:    Size  Location     Type
  7295 ;;  buffer          2    1[COMRAM] PTR const unsigned char 
  7296 ;;		 -> STR_5(16), buffer1(23), 
  7297 ;; Auto vars:     Size  Location     Type
  7298 ;;		None
  7299 ;; Return value:  Size  Location     Type
  7300 ;;                  1    wreg      void 
  7301 ;; Registers used:
  7302 ;;		wreg, fsr1l, fsr1h, status,2, status,0, tblptrl, tblptrh, tblptru, cstack
  7303 ;; Tracked objects:
  7304 ;;		On entry : 0/0
  7305 ;;		On exit  : 0/0
  7306 ;;		Unchanged: 0/0
  7307 ;; Data sizes:     COMRAM   BANK0   BANK1   BANK2   BANK3   BANK4   BANK5   BANK6   BANK7
  7308 ;;      Params:         2       0       0       0       0       0       0       0       0
  7309 ;;      Locals:         0       0       0       0       0       0       0       0       0
  7310 ;;      Temps:          0       0       0       0       0       0       0       0       0
  7311 ;;      Totals:         2       0       0       0       0       0       0       0       0
  7312 ;;Total ram usage:        2 bytes
  7313 ;; Hardware stack levels used: 1
  7314 ;; Hardware stack levels required when called: 3
  7315 ;; This function calls:
  7316 ;;		_BusyXLCD
  7317 ;;		_WriteDataXLCD
  7318 ;; This function is called by:
  7319 ;;		_cancion1
  7320 ;;		_main
  7321 ;; This function uses a non-reentrant model
  7322 ;;
  7323                           
  7324                           	psect	text23
  7325  003CD8                     __ptext23:
  7326                           	callstack 0
  7327  003CD8                     _putrsXLCD:
  7328                           	callstack 27
  7329  003CD8                     
  7330                           ;LCD_lib.c: 118: void putrsXLCD(const char *buffer);LCD_lib.c: 119: {;LCD_lib.c: 120:   
      +                                while(*buffer)
  7331  003CD8  EF8C  F01E         	goto	l3590
  7332  003CDC                     l3584:
  7333  003CDC  ECA5  F01F         	call	_BusyXLCD	;wreg free
  7334  003CE0  0900               	iorlw	0
  7335  003CE2  A4D8               	btfss	status,2,c
  7336  003CE4  EF76  F01E         	goto	u3671
  7337  003CE8  EF78  F01E         	goto	u3670
  7338  003CEC                     u3671:
  7339  003CEC  EF6E  F01E         	goto	l3584
  7340  003CF0                     u3670:
  7341  003CF0                     
  7342                           ;LCD_lib.c: 123:                 WriteDataXLCD(*buffer);
  7343  003CF0  C002  FFF6         	movff	putrsXLCD@buffer,tblptrl
  7344  003CF4  C003  FFF7         	movff	putrsXLCD@buffer+1,tblptrh
  7345  003CF8  6AF8               	clrf	tblptru,c
  7346  003CFA  0E07               	movlw	(high __ramtop+-1)
  7347  003CFC  64F7               	cpfsgt	tblptrh,c
  7348  003CFE  D003               	bra	u3687
  7349  003D00  0008               	tblrd		*
  7350  003D02  50F5               	movf	tablat,w,c
  7351  003D04  D005               	bra	u3680
  7352  003D06                     u3687:
  7353  003D06  CFF6 FFE1          	movff	tblptrl,fsr1l
  7354  003D0A  CFF7 FFE2          	movff	tblptrh,fsr1h
  7355  003D0E  50E7               	movf	indf1,w,c
  7356  003D10                     u3680:
  7357  003D10  EC59  F01F         	call	_WriteDataXLCD
  7358  003D14                     
  7359                           ;LCD_lib.c: 124:                 buffer++;
  7360  003D14  4A02               	infsnz	putrsXLCD@buffer^0,f,c
  7361  003D16  2A03               	incf	(putrsXLCD@buffer+1)^0,f,c
  7362  003D18                     l3590:
  7363                           
  7364                           ;LCD_lib.c: 120:         while(*buffer)
  7365  003D18  C002  FFF6         	movff	putrsXLCD@buffer,tblptrl
  7366  003D1C  C003  FFF7         	movff	putrsXLCD@buffer+1,tblptrh
  7367  003D20  6AF8               	clrf	tblptru,c
  7368  003D22  0E07               	movlw	(high __ramtop+-1)
  7369  003D24  64F7               	cpfsgt	tblptrh,c
  7370  003D26  D003               	bra	u3697
  7371  003D28  0008               	tblrd		*
  7372  003D2A  50F5               	movf	tablat,w,c
  7373  003D2C  D005               	bra	u3690
  7374  003D2E                     u3697:
  7375  003D2E  CFF6 FFE1          	movff	tblptrl,fsr1l
  7376  003D32  CFF7 FFE2          	movff	tblptrh,fsr1h
  7377  003D36  50E7               	movf	indf1,w,c
  7378  003D38                     u3690:
  7379  003D38  0900               	iorlw	0
  7380  003D3A  A4D8               	btfss	status,2,c
  7381  003D3C  EFA2  F01E         	goto	u3701
  7382  003D40  EFA4  F01E         	goto	u3700
  7383  003D44                     u3701:
  7384  003D44  EF6E  F01E         	goto	l3584
  7385  003D48                     u3700:
  7386  003D48  0012               	return		;funcret
  7387  003D4A                     __end_of_putrsXLCD:
  7388                           	callstack 0
  7389                           
  7390 ;; *************** function _leerADC *****************
  7391 ;; Defined at:
  7392 ;;		line 111 in file "main.c"
  7393 ;; Parameters:    Size  Location     Type
  7394 ;;  canal           2    8[COMRAM] int 
  7395 ;; Auto vars:     Size  Location     Type
  7396 ;;  final           2   16[COMRAM] int 
  7397 ;;  digital         2   14[COMRAM] int 
  7398 ;; Return value:  Size  Location     Type
  7399 ;;                  2    8[COMRAM] int 
  7400 ;; Registers used:
  7401 ;;		wreg, status,2, status,0, cstack
  7402 ;; Tracked objects:
  7403 ;;		On entry : 0/0
  7404 ;;		On exit  : 0/0
  7405 ;;		Unchanged: 0/0
  7406 ;; Data sizes:     COMRAM   BANK0   BANK1   BANK2   BANK3   BANK4   BANK5   BANK6   BANK7
  7407 ;;      Params:         2       0       0       0       0       0       0       0       0
  7408 ;;      Locals:         4       0       0       0       0       0       0       0       0
  7409 ;;      Temps:          4       0       0       0       0       0       0       0       0
  7410 ;;      Totals:        10       0       0       0       0       0       0       0       0
  7411 ;;Total ram usage:       10 bytes
  7412 ;; Hardware stack levels used: 1
  7413 ;; Hardware stack levels required when called: 1
  7414 ;; This function calls:
  7415 ;;		___awdiv
  7416 ;; This function is called by:
  7417 ;;		_cancion1
  7418 ;; This function uses a non-reentrant model
  7419 ;;
  7420                           
  7421                           	psect	text24
  7422  003B04                     __ptext24:
  7423                           	callstack 0
  7424  003B04                     _leerADC:
  7425                           	callstack 28
  7426  003B04                     
  7427                           ;main.c: 112:     int digital;;main.c: 113:     int final;;main.c: 114:     ADCON0 =(ADC
      +                          ON0 & 0b11000011)|((canal<<2) & 0b00111100);
  7428  003B04  C009  F00B         	movff	leerADC@canal,??_leerADC
  7429  003B08  90D8               	bcf	status,0,c
  7430  003B0A  360B               	rlcf	??_leerADC^0,f,c
  7431  003B0C  90D8               	bcf	status,0,c
  7432  003B0E  360B               	rlcf	??_leerADC^0,f,c
  7433  003B10  0E3C               	movlw	60
  7434  003B12  160B               	andwf	??_leerADC^0,f,c
  7435  003B14  50C2               	movf	194,w,c	;volatile
  7436  003B16  0BC3               	andlw	195
  7437  003B18  100B               	iorwf	??_leerADC^0,w,c
  7438  003B1A  6EC2               	movwf	194,c	;volatile
  7439                           
  7440                           ;main.c: 115:     ADCON0 |= ((1<<ADON)|(1<<GO));
  7441  003B1C  B2C2               	btfsc	4034,1,c	;volatile
  7442  003B1E  EF93  F01D         	goto	u3791
  7443  003B22  EF97  F01D         	goto	u3790
  7444  003B26                     u3791:
  7445  003B26  6A0B               	clrf	??_leerADC^0,c
  7446  003B28  2A0B               	incf	??_leerADC^0,f,c
  7447  003B2A  EF98  F01D         	goto	u3808
  7448  003B2E                     u3790:
  7449  003B2E  6A0B               	clrf	??_leerADC^0,c
  7450  003B30                     u3808:
  7451  003B30  0E01               	movlw	1
  7452  003B32  6E0C               	movwf	(??_leerADC+1)^0,c
  7453  003B34  2A0B               	incf	??_leerADC^0,f,c
  7454  003B36  EF9F  F01D         	goto	u3814
  7455  003B3A                     u3815:
  7456  003B3A  90D8               	bcf	status,0,c
  7457  003B3C  360C               	rlcf	(??_leerADC+1)^0,f,c
  7458  003B3E                     u3814:
  7459  003B3E  2E0B               	decfsz	??_leerADC^0,f,c
  7460  003B40  EF9D  F01D         	goto	u3815
  7461  003B44  B0C2               	btfsc	4034,0,c	;volatile
  7462  003B46  EFA7  F01D         	goto	u3821
  7463  003B4A  EFAB  F01D         	goto	u3820
  7464  003B4E                     u3821:
  7465  003B4E  6A0D               	clrf	(??_leerADC+2)^0,c
  7466  003B50  2A0D               	incf	(??_leerADC+2)^0,f,c
  7467  003B52  EFAC  F01D         	goto	u3838
  7468  003B56                     u3820:
  7469  003B56  6A0D               	clrf	(??_leerADC+2)^0,c
  7470  003B58                     u3838:
  7471  003B58  0E01               	movlw	1
  7472  003B5A  6E0E               	movwf	(??_leerADC+3)^0,c
  7473  003B5C  2A0D               	incf	(??_leerADC+2)^0,f,c
  7474  003B5E  EFB3  F01D         	goto	u3844
  7475  003B62                     u3845:
  7476  003B62  90D8               	bcf	status,0,c
  7477  003B64  360E               	rlcf	(??_leerADC+3)^0,f,c
  7478  003B66                     u3844:
  7479  003B66  2E0D               	decfsz	(??_leerADC+2)^0,f,c
  7480  003B68  EFB1  F01D         	goto	u3845
  7481  003B6C  500E               	movf	(??_leerADC+3)^0,w,c
  7482  003B6E  100C               	iorwf	(??_leerADC+1)^0,w,c
  7483  003B70  12C2               	iorwf	194,f,c	;volatile
  7484  003B72                     l232:
  7485  003B72  B2C2               	btfsc	194,1,c	;volatile
  7486  003B74  EFBE  F01D         	goto	u3851
  7487  003B78  EFC0  F01D         	goto	u3850
  7488  003B7C                     u3851:
  7489  003B7C  EFB9  F01D         	goto	l232
  7490  003B80                     u3850:
  7491  003B80                     
  7492                           ;main.c: 117:     digital = ((ADRESH << 8) + ADRESL);
  7493  003B80  50C4               	movf	196,w,c	;volatile
  7494  003B82  6E0C               	movwf	(??_leerADC+1)^0,c
  7495  003B84  6A0B               	clrf	??_leerADC^0,c
  7496  003B86  50C3               	movf	195,w,c	;volatile
  7497  003B88  240B               	addwf	??_leerADC^0,w,c
  7498  003B8A  6E0F               	movwf	leerADC@digital^0,c
  7499  003B8C  0E00               	movlw	0
  7500  003B8E  200C               	addwfc	(??_leerADC+1)^0,w,c
  7501  003B90  6E10               	movwf	(leerADC@digital+1)^0,c
  7502  003B92                     
  7503                           ;main.c: 118:     final = digital/64;
  7504  003B92  C00F  F001         	movff	leerADC@digital,___awdiv@dividend
  7505  003B96  C010  F002         	movff	leerADC@digital+1,___awdiv@dividend+1
  7506  003B9A  0E00               	movlw	0
  7507  003B9C  6E04               	movwf	(___awdiv@divisor+1)^0,c
  7508  003B9E  0E40               	movlw	64
  7509  003BA0  6E03               	movwf	___awdiv@divisor^0,c
  7510  003BA2  EC20  F01D         	call	___awdiv	;wreg free
  7511  003BA6  C001  F011         	movff	?___awdiv,leerADC@final
  7512  003BAA  C002  F012         	movff	?___awdiv+1,leerADC@final+1
  7513  003BAE                     
  7514                           ;main.c: 119:     return(final);
  7515  003BAE  C011  F009         	movff	leerADC@final,?_leerADC
  7516  003BB2  C012  F00A         	movff	leerADC@final+1,?_leerADC+1
  7517  003BB6  0012               	return		;funcret
  7518  003BB8                     __end_of_leerADC:
  7519                           	callstack 0
  7520                           
  7521 ;; *************** function ___awdiv *****************
  7522 ;; Defined at:
  7523 ;;		line 7 in file "C:\Program Files\Microchip\xc8\v2.32\pic\sources\c99\common\awdiv.c"
  7524 ;; Parameters:    Size  Location     Type
  7525 ;;  dividend        2    0[COMRAM] int 
  7526 ;;  divisor         2    2[COMRAM] int 
  7527 ;; Auto vars:     Size  Location     Type
  7528 ;;  quotient        2    6[COMRAM] int 
  7529 ;;  sign            1    5[COMRAM] unsigned char 
  7530 ;;  counter         1    4[COMRAM] unsigned char 
  7531 ;; Return value:  Size  Location     Type
  7532 ;;                  2    0[COMRAM] int 
  7533 ;; Registers used:
  7534 ;;		wreg, status,2, status,0
  7535 ;; Tracked objects:
  7536 ;;		On entry : 0/0
  7537 ;;		On exit  : 0/0
  7538 ;;		Unchanged: 0/0
  7539 ;; Data sizes:     COMRAM   BANK0   BANK1   BANK2   BANK3   BANK4   BANK5   BANK6   BANK7
  7540 ;;      Params:         4       0       0       0       0       0       0       0       0
  7541 ;;      Locals:         4       0       0       0       0       0       0       0       0
  7542 ;;      Temps:          0       0       0       0       0       0       0       0       0
  7543 ;;      Totals:         8       0       0       0       0       0       0       0       0
  7544 ;;Total ram usage:        8 bytes
  7545 ;; Hardware stack levels used: 1
  7546 ;; This function calls:
  7547 ;;		Nothing
  7548 ;; This function is called by:
  7549 ;;		_leerADC
  7550 ;;		_cancion1
  7551 ;; This function uses a non-reentrant model
  7552 ;;
  7553                           
  7554                           	psect	text25
  7555  003A40                     __ptext25:
  7556                           	callstack 0
  7557  003A40                     ___awdiv:
  7558                           	callstack 28
  7559  003A40  0E00               	movlw	0
  7560  003A42  6E06               	movwf	___awdiv@sign^0,c
  7561  003A44  BE04               	btfsc	(___awdiv@divisor+1)^0,7,c
  7562  003A46  EF29  F01D         	goto	u3330
  7563  003A4A  EF27  F01D         	goto	u3331
  7564  003A4E                     u3331:
  7565  003A4E  EF2F  F01D         	goto	l3358
  7566  003A52                     u3330:
  7567  003A52  6C03               	negf	___awdiv@divisor^0,c
  7568  003A54  1E04               	comf	(___awdiv@divisor+1)^0,f,c
  7569  003A56  B0D8               	btfsc	status,0,c
  7570  003A58  2A04               	incf	(___awdiv@divisor+1)^0,f,c
  7571  003A5A  0E01               	movlw	1
  7572  003A5C  6E06               	movwf	___awdiv@sign^0,c
  7573  003A5E                     l3358:
  7574  003A5E  BE02               	btfsc	(___awdiv@dividend+1)^0,7,c
  7575  003A60  EF36  F01D         	goto	u3340
  7576  003A64  EF34  F01D         	goto	u3341
  7577  003A68                     u3341:
  7578  003A68  EF3C  F01D         	goto	l3364
  7579  003A6C                     u3340:
  7580  003A6C  6C01               	negf	___awdiv@dividend^0,c
  7581  003A6E  1E02               	comf	(___awdiv@dividend+1)^0,f,c
  7582  003A70  B0D8               	btfsc	status,0,c
  7583  003A72  2A02               	incf	(___awdiv@dividend+1)^0,f,c
  7584  003A74  0E01               	movlw	1
  7585  003A76  1A06               	xorwf	___awdiv@sign^0,f,c
  7586  003A78                     l3364:
  7587  003A78  0E00               	movlw	0
  7588  003A7A  6E08               	movwf	(___awdiv@quotient+1)^0,c
  7589  003A7C  0E00               	movlw	0
  7590  003A7E  6E07               	movwf	___awdiv@quotient^0,c
  7591  003A80  5003               	movf	___awdiv@divisor^0,w,c
  7592  003A82  1004               	iorwf	(___awdiv@divisor+1)^0,w,c
  7593  003A84  B4D8               	btfsc	status,2,c
  7594  003A86  EF47  F01D         	goto	u3351
  7595  003A8A  EF49  F01D         	goto	u3350
  7596  003A8E                     u3351:
  7597  003A8E  EF71  F01D         	goto	l3386
  7598  003A92                     u3350:
  7599  003A92  0E01               	movlw	1
  7600  003A94  6E05               	movwf	___awdiv@counter^0,c
  7601  003A96  EF51  F01D         	goto	l3372
  7602  003A9A                     l3370:
  7603  003A9A  90D8               	bcf	status,0,c
  7604  003A9C  3603               	rlcf	___awdiv@divisor^0,f,c
  7605  003A9E  3604               	rlcf	(___awdiv@divisor+1)^0,f,c
  7606  003AA0  2A05               	incf	___awdiv@counter^0,f,c
  7607  003AA2                     l3372:
  7608  003AA2  AE04               	btfss	(___awdiv@divisor+1)^0,7,c
  7609  003AA4  EF56  F01D         	goto	u3361
  7610  003AA8  EF58  F01D         	goto	u3360
  7611  003AAC                     u3361:
  7612  003AAC  EF4D  F01D         	goto	l3370
  7613  003AB0                     u3360:
  7614  003AB0                     l3374:
  7615  003AB0  90D8               	bcf	status,0,c
  7616  003AB2  3607               	rlcf	___awdiv@quotient^0,f,c
  7617  003AB4  3608               	rlcf	(___awdiv@quotient+1)^0,f,c
  7618  003AB6  5003               	movf	___awdiv@divisor^0,w,c
  7619  003AB8  5C01               	subwf	___awdiv@dividend^0,w,c
  7620  003ABA  5004               	movf	(___awdiv@divisor+1)^0,w,c
  7621  003ABC  5802               	subwfb	(___awdiv@dividend+1)^0,w,c
  7622  003ABE  A0D8               	btfss	status,0,c
  7623  003AC0  EF64  F01D         	goto	u3371
  7624  003AC4  EF66  F01D         	goto	u3370
  7625  003AC8                     u3371:
  7626  003AC8  EF6B  F01D         	goto	l3382
  7627  003ACC                     u3370:
  7628  003ACC  5003               	movf	___awdiv@divisor^0,w,c
  7629  003ACE  5E01               	subwf	___awdiv@dividend^0,f,c
  7630  003AD0  5004               	movf	(___awdiv@divisor+1)^0,w,c
  7631  003AD2  5A02               	subwfb	(___awdiv@dividend+1)^0,f,c
  7632  003AD4  8007               	bsf	___awdiv@quotient^0,0,c
  7633  003AD6                     l3382:
  7634  003AD6  90D8               	bcf	status,0,c
  7635  003AD8  3204               	rrcf	(___awdiv@divisor+1)^0,f,c
  7636  003ADA  3203               	rrcf	___awdiv@divisor^0,f,c
  7637  003ADC  2E05               	decfsz	___awdiv@counter^0,f,c
  7638  003ADE  EF58  F01D         	goto	l3374
  7639  003AE2                     l3386:
  7640  003AE2  5006               	movf	___awdiv@sign^0,w,c
  7641  003AE4  B4D8               	btfsc	status,2,c
  7642  003AE6  EF77  F01D         	goto	u3381
  7643  003AEA  EF79  F01D         	goto	u3380
  7644  003AEE                     u3381:
  7645  003AEE  EF7D  F01D         	goto	l3390
  7646  003AF2                     u3380:
  7647  003AF2  6C07               	negf	___awdiv@quotient^0,c
  7648  003AF4  1E08               	comf	(___awdiv@quotient+1)^0,f,c
  7649  003AF6  B0D8               	btfsc	status,0,c
  7650  003AF8  2A08               	incf	(___awdiv@quotient+1)^0,f,c
  7651  003AFA                     l3390:
  7652  003AFA  C007  F001         	movff	___awdiv@quotient,?___awdiv
  7653  003AFE  C008  F002         	movff	___awdiv@quotient+1,?___awdiv+1
  7654  003B02  0012               	return		;funcret
  7655  003B04                     __end_of___awdiv:
  7656                           	callstack 0
  7657                           
  7658 ;; *************** function ___wmul *****************
  7659 ;; Defined at:
  7660 ;;		line 15 in file "C:\Program Files\Microchip\xc8\v2.32\pic\sources\c99\common\Umul16.c"
  7661 ;; Parameters:    Size  Location     Type
  7662 ;;  multiplier      2    0[COMRAM] unsigned int 
  7663 ;;  multiplicand    2    2[COMRAM] unsigned int 
  7664 ;; Auto vars:     Size  Location     Type
  7665 ;;  product         2    4[COMRAM] unsigned int 
  7666 ;; Return value:  Size  Location     Type
  7667 ;;                  2    0[COMRAM] unsigned int 
  7668 ;; Registers used:
  7669 ;;		wreg, status,2, status,0, prodl, prodh
  7670 ;; Tracked objects:
  7671 ;;		On entry : 0/0
  7672 ;;		On exit  : 0/0
  7673 ;;		Unchanged: 0/0
  7674 ;; Data sizes:     COMRAM   BANK0   BANK1   BANK2   BANK3   BANK4   BANK5   BANK6   BANK7
  7675 ;;      Params:         4       0       0       0       0       0       0       0       0
  7676 ;;      Locals:         2       0       0       0       0       0       0       0       0
  7677 ;;      Temps:          0       0       0       0       0       0       0       0       0
  7678 ;;      Totals:         6       0       0       0       0       0       0       0       0
  7679 ;;Total ram usage:        6 bytes
  7680 ;; Hardware stack levels used: 1
  7681 ;; This function calls:
  7682 ;;		Nothing
  7683 ;; This function is called by:
  7684 ;;		_cancion1
  7685 ;; This function uses a non-reentrant model
  7686 ;;
  7687                           
  7688                           	psect	text26
  7689  004116                     __ptext26:
  7690                           	callstack 0
  7691  004116                     ___wmul:
  7692                           	callstack 29
  7693  004116  5001               	movf	___wmul@multiplier^0,w,c
  7694  004118  0203               	mulwf	___wmul@multiplicand^0,c
  7695  00411A  CFF3 F005          	movff	prodl,___wmul@product
  7696  00411E  CFF4 F006          	movff	prodh,___wmul@product+1
  7697  004122  5001               	movf	___wmul@multiplier^0,w,c
  7698  004124  0204               	mulwf	(___wmul@multiplicand+1)^0,c
  7699  004126  50F3               	movf	243,w,c
  7700  004128  2606               	addwf	(___wmul@product+1)^0,f,c
  7701  00412A  5002               	movf	(___wmul@multiplier+1)^0,w,c
  7702  00412C  0203               	mulwf	___wmul@multiplicand^0,c
  7703  00412E  50F3               	movf	243,w,c
  7704  004130  2606               	addwf	(___wmul@product+1)^0,f,c
  7705  004132  C005  F001         	movff	___wmul@product,?___wmul
  7706  004136  C006  F002         	movff	___wmul@product+1,?___wmul+1
  7707  00413A  0012               	return		;funcret
  7708  00413C                     __end_of___wmul:
  7709                           	callstack 0
  7710                           
  7711 ;; *************** function ___flmul *****************
  7712 ;; Defined at:
  7713 ;;		line 8 in file "C:\Program Files\Microchip\xc8\v2.32\pic\sources\c99\common\sprcmul.c"
  7714 ;; Parameters:    Size  Location     Type
  7715 ;;  b               4   14[COMRAM] unsigned int 
  7716 ;;  a               4   18[COMRAM] unsigned int 
  7717 ;; Auto vars:     Size  Location     Type
  7718 ;;  prod            4   33[COMRAM] struct .
  7719 ;;  grs             4   27[COMRAM] unsigned long 
  7720 ;;  temp            2   37[COMRAM] struct .
  7721 ;;  bexp            1   32[COMRAM] unsigned char 
  7722 ;;  aexp            1   31[COMRAM] unsigned char 
  7723 ;;  sign            1   26[COMRAM] unsigned char 
  7724 ;; Return value:  Size  Location     Type
  7725 ;;                  4   14[COMRAM] unsigned char 
  7726 ;; Registers used:
  7727 ;;		wreg, status,2, status,0, prodl, prodh
  7728 ;; Tracked objects:
  7729 ;;		On entry : 0/0
  7730 ;;		On exit  : 0/0
  7731 ;;		Unchanged: 0/0
  7732 ;; Data sizes:     COMRAM   BANK0   BANK1   BANK2   BANK3   BANK4   BANK5   BANK6   BANK7
  7733 ;;      Params:         8       0       0       0       0       0       0       0       0
  7734 ;;      Locals:        13       0       0       0       0       0       0       0       0
  7735 ;;      Temps:          4       0       0       0       0       0       0       0       0
  7736 ;;      Totals:        25       0       0       0       0       0       0       0       0
  7737 ;;Total ram usage:       25 bytes
  7738 ;; Hardware stack levels used: 1
  7739 ;; This function calls:
  7740 ;;		Nothing
  7741 ;; This function is called by:
  7742 ;;		_cancion1
  7743 ;; This function uses a non-reentrant model
  7744 ;;
  7745                           
  7746                           	psect	text27
  7747  001E9E                     __ptext27:
  7748                           	callstack 0
  7749  001E9E                     ___flmul:
  7750                           	callstack 29
  7751  001E9E  5012               	movf	(___flmul@b+3)^0,w,c
  7752  001EA0  0B80               	andlw	128
  7753  001EA2  6E1B               	movwf	___flmul@sign^0,c
  7754  001EA4  5012               	movf	(___flmul@b+3)^0,w,c
  7755  001EA6  2412               	addwf	(___flmul@b+3)^0,w,c
  7756  001EA8  6E21               	movwf	___flmul@bexp^0,c
  7757  001EAA  AE11               	btfss	(___flmul@b+2)^0,7,c
  7758  001EAC  EF5A  F00F         	goto	u3861
  7759  001EB0  EF5C  F00F         	goto	u3860
  7760  001EB4                     u3861:
  7761  001EB4  EF5D  F00F         	goto	l3662
  7762  001EB8                     u3860:
  7763  001EB8  8021               	bsf	___flmul@bexp^0,0,c
  7764  001EBA                     l3662:
  7765  001EBA  5021               	movf	___flmul@bexp^0,w,c
  7766  001EBC  B4D8               	btfsc	status,2,c
  7767  001EBE  EF63  F00F         	goto	u3871
  7768  001EC2  EF65  F00F         	goto	u3870
  7769  001EC6                     u3871:
  7770  001EC6  EF78  F00F         	goto	l3670
  7771  001ECA                     u3870:
  7772  001ECA  2821               	incf	___flmul@bexp^0,w,c
  7773  001ECC  A4D8               	btfss	status,2,c
  7774  001ECE  EF6B  F00F         	goto	u3881
  7775  001ED2  EF6D  F00F         	goto	u3880
  7776  001ED6                     u3881:
  7777  001ED6  EF75  F00F         	goto	l3668
  7778  001EDA                     u3880:
  7779  001EDA  0E00               	movlw	0
  7780  001EDC  6E0F               	movwf	___flmul@b^0,c
  7781  001EDE  0E00               	movlw	0
  7782  001EE0  6E10               	movwf	(___flmul@b+1)^0,c
  7783  001EE2  0E00               	movlw	0
  7784  001EE4  6E11               	movwf	(___flmul@b+2)^0,c
  7785  001EE6  0E00               	movlw	0
  7786  001EE8  6E12               	movwf	(___flmul@b+3)^0,c
  7787  001EEA                     l3668:
  7788  001EEA  8E11               	bsf	(___flmul@b+2)^0,7,c
  7789  001EEC  EF80  F00F         	goto	l3672
  7790  001EF0                     l3670:
  7791  001EF0  0E00               	movlw	0
  7792  001EF2  6E0F               	movwf	___flmul@b^0,c
  7793  001EF4  0E00               	movlw	0
  7794  001EF6  6E10               	movwf	(___flmul@b+1)^0,c
  7795  001EF8  0E00               	movlw	0
  7796  001EFA  6E11               	movwf	(___flmul@b+2)^0,c
  7797  001EFC  0E00               	movlw	0
  7798  001EFE  6E12               	movwf	(___flmul@b+3)^0,c
  7799  001F00                     l3672:
  7800  001F00  5016               	movf	(___flmul@a+3)^0,w,c
  7801  001F02  0B80               	andlw	128
  7802  001F04  1A1B               	xorwf	___flmul@sign^0,f,c
  7803  001F06  5016               	movf	(___flmul@a+3)^0,w,c
  7804  001F08  2416               	addwf	(___flmul@a+3)^0,w,c
  7805  001F0A  6E20               	movwf	___flmul@aexp^0,c
  7806  001F0C  AE15               	btfss	(___flmul@a+2)^0,7,c
  7807  001F0E  EF8B  F00F         	goto	u3891
  7808  001F12  EF8D  F00F         	goto	u3890
  7809  001F16                     u3891:
  7810  001F16  EF8E  F00F         	goto	l3680
  7811  001F1A                     u3890:
  7812  001F1A  8020               	bsf	___flmul@aexp^0,0,c
  7813  001F1C                     l3680:
  7814  001F1C  5020               	movf	___flmul@aexp^0,w,c
  7815  001F1E  B4D8               	btfsc	status,2,c
  7816  001F20  EF94  F00F         	goto	u3901
  7817  001F24  EF96  F00F         	goto	u3900
  7818  001F28                     u3901:
  7819  001F28  EFA9  F00F         	goto	l3688
  7820  001F2C                     u3900:
  7821  001F2C  2820               	incf	___flmul@aexp^0,w,c
  7822  001F2E  A4D8               	btfss	status,2,c
  7823  001F30  EF9C  F00F         	goto	u3911
  7824  001F34  EF9E  F00F         	goto	u3910
  7825  001F38                     u3911:
  7826  001F38  EFA6  F00F         	goto	l3686
  7827  001F3C                     u3910:
  7828  001F3C  0E00               	movlw	0
  7829  001F3E  6E13               	movwf	___flmul@a^0,c
  7830  001F40  0E00               	movlw	0
  7831  001F42  6E14               	movwf	(___flmul@a+1)^0,c
  7832  001F44  0E00               	movlw	0
  7833  001F46  6E15               	movwf	(___flmul@a+2)^0,c
  7834  001F48  0E00               	movlw	0
  7835  001F4A  6E16               	movwf	(___flmul@a+3)^0,c
  7836  001F4C                     l3686:
  7837  001F4C  8E15               	bsf	(___flmul@a+2)^0,7,c
  7838  001F4E  EFB1  F00F         	goto	l910
  7839  001F52                     l3688:
  7840  001F52  0E00               	movlw	0
  7841  001F54  6E13               	movwf	___flmul@a^0,c
  7842  001F56  0E00               	movlw	0
  7843  001F58  6E14               	movwf	(___flmul@a+1)^0,c
  7844  001F5A  0E00               	movlw	0
  7845  001F5C  6E15               	movwf	(___flmul@a+2)^0,c
  7846  001F5E  0E00               	movlw	0
  7847  001F60  6E16               	movwf	(___flmul@a+3)^0,c
  7848  001F62                     l910:
  7849  001F62  5020               	movf	___flmul@aexp^0,w,c
  7850  001F64  B4D8               	btfsc	status,2,c
  7851  001F66  EFB7  F00F         	goto	u3921
  7852  001F6A  EFB9  F00F         	goto	u3920
  7853  001F6E                     u3921:
  7854  001F6E  EFC1  F00F         	goto	l3692
  7855  001F72                     u3920:
  7856  001F72  5021               	movf	___flmul@bexp^0,w,c
  7857  001F74  A4D8               	btfss	status,2,c
  7858  001F76  EFBF  F00F         	goto	u3931
  7859  001F7A  EFC1  F00F         	goto	u3930
  7860  001F7E                     u3931:
  7861  001F7E  EFCB  F00F         	goto	l3696
  7862  001F82                     u3930:
  7863  001F82                     l3692:
  7864  001F82  0E00               	movlw	0
  7865  001F84  6E0F               	movwf	?___flmul^0,c
  7866  001F86  0E00               	movlw	0
  7867  001F88  6E10               	movwf	(?___flmul+1)^0,c
  7868  001F8A  0E00               	movlw	0
  7869  001F8C  6E11               	movwf	(?___flmul+2)^0,c
  7870  001F8E  0E00               	movlw	0
  7871  001F90  6E12               	movwf	(?___flmul+3)^0,c
  7872  001F92  EF63  F011         	goto	l914
  7873  001F96                     l3696:
  7874  001F96  5015               	movf	(___flmul@a+2)^0,w,c
  7875  001F98  020F               	mulwf	___flmul@b^0,c
  7876  001F9A  CFF3 F026          	movff	prodl,___flmul@temp
  7877  001F9E  CFF4 F027          	movff	prodh,___flmul@temp+1
  7878  001FA2  5026               	movf	___flmul@temp^0,w,c
  7879  001FA4  6E1C               	movwf	___flmul@grs^0,c
  7880  001FA6  6A1D               	clrf	(___flmul@grs+1)^0,c
  7881  001FA8  6A1E               	clrf	(___flmul@grs+2)^0,c
  7882  001FAA  6A1F               	clrf	(___flmul@grs+3)^0,c
  7883  001FAC  5027               	movf	(___flmul@temp+1)^0,w,c
  7884  001FAE  6E22               	movwf	___flmul@prod^0,c
  7885  001FB0  6A23               	clrf	(___flmul@prod+1)^0,c
  7886  001FB2  6A24               	clrf	(___flmul@prod+2)^0,c
  7887  001FB4  6A25               	clrf	(___flmul@prod+3)^0,c
  7888  001FB6  5014               	movf	(___flmul@a+1)^0,w,c
  7889  001FB8  0210               	mulwf	(___flmul@b+1)^0,c
  7890  001FBA  CFF3 F026          	movff	prodl,___flmul@temp
  7891  001FBE  CFF4 F027          	movff	prodh,___flmul@temp+1
  7892  001FC2  5026               	movf	___flmul@temp^0,w,c
  7893  001FC4  261C               	addwf	___flmul@grs^0,f,c
  7894  001FC6  0E00               	movlw	0
  7895  001FC8  221D               	addwfc	(___flmul@grs+1)^0,f,c
  7896  001FCA  221E               	addwfc	(___flmul@grs+2)^0,f,c
  7897  001FCC  221F               	addwfc	(___flmul@grs+3)^0,f,c
  7898  001FCE  5027               	movf	(___flmul@temp+1)^0,w,c
  7899  001FD0  2622               	addwf	___flmul@prod^0,f,c
  7900  001FD2  0E00               	movlw	0
  7901  001FD4  2223               	addwfc	(___flmul@prod+1)^0,f,c
  7902  001FD6  2224               	addwfc	(___flmul@prod+2)^0,f,c
  7903  001FD8  2225               	addwfc	(___flmul@prod+3)^0,f,c
  7904  001FDA  5013               	movf	___flmul@a^0,w,c
  7905  001FDC  0211               	mulwf	(___flmul@b+2)^0,c
  7906  001FDE  CFF3 F026          	movff	prodl,___flmul@temp
  7907  001FE2  CFF4 F027          	movff	prodh,___flmul@temp+1
  7908  001FE6  5026               	movf	___flmul@temp^0,w,c
  7909  001FE8  261C               	addwf	___flmul@grs^0,f,c
  7910  001FEA  0E00               	movlw	0
  7911  001FEC  221D               	addwfc	(___flmul@grs+1)^0,f,c
  7912  001FEE  221E               	addwfc	(___flmul@grs+2)^0,f,c
  7913  001FF0  221F               	addwfc	(___flmul@grs+3)^0,f,c
  7914  001FF2  5027               	movf	(___flmul@temp+1)^0,w,c
  7915  001FF4  2622               	addwf	___flmul@prod^0,f,c
  7916  001FF6  0E00               	movlw	0
  7917  001FF8  2223               	addwfc	(___flmul@prod+1)^0,f,c
  7918  001FFA  2224               	addwfc	(___flmul@prod+2)^0,f,c
  7919  001FFC  2225               	addwfc	(___flmul@prod+3)^0,f,c
  7920  001FFE  C01E  F01F         	movff	___flmul@grs+2,___flmul@grs+3
  7921  002002  C01D  F01E         	movff	___flmul@grs+1,___flmul@grs+2
  7922  002006  C01C  F01D         	movff	___flmul@grs,___flmul@grs+1
  7923  00200A  6A1C               	clrf	___flmul@grs^0,c
  7924  00200C  5013               	movf	___flmul@a^0,w,c
  7925  00200E  0210               	mulwf	(___flmul@b+1)^0,c
  7926  002010  CFF3 F026          	movff	prodl,___flmul@temp
  7927  002014  CFF4 F027          	movff	prodh,___flmul@temp+1
  7928  002018  5026               	movf	___flmul@temp^0,w,c
  7929  00201A  261C               	addwf	___flmul@grs^0,f,c
  7930  00201C  5027               	movf	(___flmul@temp+1)^0,w,c
  7931  00201E  221D               	addwfc	(___flmul@grs+1)^0,f,c
  7932  002020  0E00               	movlw	0
  7933  002022  221E               	addwfc	(___flmul@grs+2)^0,f,c
  7934  002024  0E00               	movlw	0
  7935  002026  221F               	addwfc	(___flmul@grs+3)^0,f,c
  7936  002028  5014               	movf	(___flmul@a+1)^0,w,c
  7937  00202A  020F               	mulwf	___flmul@b^0,c
  7938  00202C  CFF3 F026          	movff	prodl,___flmul@temp
  7939  002030  CFF4 F027          	movff	prodh,___flmul@temp+1
  7940  002034  5026               	movf	___flmul@temp^0,w,c
  7941  002036  261C               	addwf	___flmul@grs^0,f,c
  7942  002038  5027               	movf	(___flmul@temp+1)^0,w,c
  7943  00203A  221D               	addwfc	(___flmul@grs+1)^0,f,c
  7944  00203C  0E00               	movlw	0
  7945  00203E  221E               	addwfc	(___flmul@grs+2)^0,f,c
  7946  002040  0E00               	movlw	0
  7947  002042  221F               	addwfc	(___flmul@grs+3)^0,f,c
  7948  002044  C01E  F01F         	movff	___flmul@grs+2,___flmul@grs+3
  7949  002048  C01D  F01E         	movff	___flmul@grs+1,___flmul@grs+2
  7950  00204C  C01C  F01D         	movff	___flmul@grs,___flmul@grs+1
  7951  002050  6A1C               	clrf	___flmul@grs^0,c
  7952  002052  5013               	movf	___flmul@a^0,w,c
  7953  002054  020F               	mulwf	___flmul@b^0,c
  7954  002056  CFF3 F026          	movff	prodl,___flmul@temp
  7955  00205A  CFF4 F027          	movff	prodh,___flmul@temp+1
  7956  00205E  5026               	movf	___flmul@temp^0,w,c
  7957  002060  261C               	addwf	___flmul@grs^0,f,c
  7958  002062  5027               	movf	(___flmul@temp+1)^0,w,c
  7959  002064  221D               	addwfc	(___flmul@grs+1)^0,f,c
  7960  002066  0E00               	movlw	0
  7961  002068  221E               	addwfc	(___flmul@grs+2)^0,f,c
  7962  00206A  0E00               	movlw	0
  7963  00206C  221F               	addwfc	(___flmul@grs+3)^0,f,c
  7964  00206E  5015               	movf	(___flmul@a+2)^0,w,c
  7965  002070  0210               	mulwf	(___flmul@b+1)^0,c
  7966  002072  CFF3 F026          	movff	prodl,___flmul@temp
  7967  002076  CFF4 F027          	movff	prodh,___flmul@temp+1
  7968  00207A  5026               	movf	___flmul@temp^0,w,c
  7969  00207C  2622               	addwf	___flmul@prod^0,f,c
  7970  00207E  5027               	movf	(___flmul@temp+1)^0,w,c
  7971  002080  2223               	addwfc	(___flmul@prod+1)^0,f,c
  7972  002082  0E00               	movlw	0
  7973  002084  2224               	addwfc	(___flmul@prod+2)^0,f,c
  7974  002086  0E00               	movlw	0
  7975  002088  2225               	addwfc	(___flmul@prod+3)^0,f,c
  7976  00208A  5014               	movf	(___flmul@a+1)^0,w,c
  7977  00208C  0211               	mulwf	(___flmul@b+2)^0,c
  7978  00208E  CFF3 F026          	movff	prodl,___flmul@temp
  7979  002092  CFF4 F027          	movff	prodh,___flmul@temp+1
  7980  002096  5026               	movf	___flmul@temp^0,w,c
  7981  002098  2622               	addwf	___flmul@prod^0,f,c
  7982  00209A  5027               	movf	(___flmul@temp+1)^0,w,c
  7983  00209C  2223               	addwfc	(___flmul@prod+1)^0,f,c
  7984  00209E  0E00               	movlw	0
  7985  0020A0  2224               	addwfc	(___flmul@prod+2)^0,f,c
  7986  0020A2  0E00               	movlw	0
  7987  0020A4  2225               	addwfc	(___flmul@prod+3)^0,f,c
  7988  0020A6  5015               	movf	(___flmul@a+2)^0,w,c
  7989  0020A8  0211               	mulwf	(___flmul@b+2)^0,c
  7990  0020AA  CFF3 F026          	movff	prodl,___flmul@temp
  7991  0020AE  CFF4 F027          	movff	prodh,___flmul@temp+1
  7992  0020B2  5026               	movf	___flmul@temp^0,w,c
  7993  0020B4  6E17               	movwf	??___flmul^0,c
  7994  0020B6  5027               	movf	(___flmul@temp+1)^0,w,c
  7995  0020B8  6E18               	movwf	(??___flmul+1)^0,c
  7996  0020BA  6A19               	clrf	(??___flmul+2)^0,c
  7997  0020BC  6A1A               	clrf	(??___flmul+3)^0,c
  7998  0020BE  C019  F01A         	movff	??___flmul+2,??___flmul+3
  7999  0020C2  C018  F019         	movff	??___flmul+1,??___flmul+2
  8000  0020C6  C017  F018         	movff	??___flmul,??___flmul+1
  8001  0020CA  6A17               	clrf	??___flmul^0,c
  8002  0020CC  5017               	movf	??___flmul^0,w,c
  8003  0020CE  2622               	addwf	___flmul@prod^0,f,c
  8004  0020D0  5018               	movf	(??___flmul+1)^0,w,c
  8005  0020D2  2223               	addwfc	(___flmul@prod+1)^0,f,c
  8006  0020D4  5019               	movf	(??___flmul+2)^0,w,c
  8007  0020D6  2224               	addwfc	(___flmul@prod+2)^0,f,c
  8008  0020D8  501A               	movf	(??___flmul+3)^0,w,c
  8009  0020DA  2225               	addwfc	(___flmul@prod+3)^0,f,c
  8010  0020DC  C01C  F017         	movff	___flmul@grs,??___flmul
  8011  0020E0  C01D  F018         	movff	___flmul@grs+1,??___flmul+1
  8012  0020E4  C01E  F019         	movff	___flmul@grs+2,??___flmul+2
  8013  0020E8  C01F  F01A         	movff	___flmul@grs+3,??___flmul+3
  8014  0020EC  0E19               	movlw	25
  8015  0020EE  EF7E  F010         	goto	u3940
  8016  0020F2                     u3945:
  8017  0020F2  90D8               	bcf	status,0,c
  8018  0020F4  321A               	rrcf	(??___flmul+3)^0,f,c
  8019  0020F6  3219               	rrcf	(??___flmul+2)^0,f,c
  8020  0020F8  3218               	rrcf	(??___flmul+1)^0,f,c
  8021  0020FA  3217               	rrcf	??___flmul^0,f,c
  8022  0020FC                     u3940:
  8023  0020FC  2EE8               	decfsz	wreg,f,c
  8024  0020FE  EF79  F010         	goto	u3945
  8025  002102  5017               	movf	??___flmul^0,w,c
  8026  002104  2622               	addwf	___flmul@prod^0,f,c
  8027  002106  5018               	movf	(??___flmul+1)^0,w,c
  8028  002108  2223               	addwfc	(___flmul@prod+1)^0,f,c
  8029  00210A  5019               	movf	(??___flmul+2)^0,w,c
  8030  00210C  2224               	addwfc	(___flmul@prod+2)^0,f,c
  8031  00210E  501A               	movf	(??___flmul+3)^0,w,c
  8032  002110  2225               	addwfc	(___flmul@prod+3)^0,f,c
  8033  002112  C01E  F01F         	movff	___flmul@grs+2,___flmul@grs+3
  8034  002116  C01D  F01E         	movff	___flmul@grs+1,___flmul@grs+2
  8035  00211A  C01C  F01D         	movff	___flmul@grs,___flmul@grs+1
  8036  00211E  6A1C               	clrf	___flmul@grs^0,c
  8037  002120  5020               	movf	___flmul@aexp^0,w,c
  8038  002122  C021  F017         	movff	___flmul@bexp,??___flmul
  8039  002126  6A18               	clrf	(??___flmul+1)^0,c
  8040  002128  2617               	addwf	??___flmul^0,f,c
  8041  00212A  0E00               	movlw	0
  8042  00212C  2218               	addwfc	(??___flmul+1)^0,f,c
  8043  00212E  0E82               	movlw	130
  8044  002130  2417               	addwf	??___flmul^0,w,c
  8045  002132  6E26               	movwf	___flmul@temp^0,c
  8046  002134  0EFF               	movlw	255
  8047  002136  2018               	addwfc	(??___flmul+1)^0,w,c
  8048  002138  6E27               	movwf	(___flmul@temp+1)^0,c
  8049  00213A  EFB4  F010         	goto	l3744
  8050  00213E                     l3738:
  8051  00213E  90D8               	bcf	status,0,c
  8052  002140  3622               	rlcf	___flmul@prod^0,f,c
  8053  002142  3623               	rlcf	(___flmul@prod+1)^0,f,c
  8054  002144  3624               	rlcf	(___flmul@prod+2)^0,f,c
  8055  002146  3625               	rlcf	(___flmul@prod+3)^0,f,c
  8056  002148  AE1F               	btfss	(___flmul@grs+3)^0,7,c
  8057  00214A  EFA9  F010         	goto	u3951
  8058  00214E  EFAB  F010         	goto	u3950
  8059  002152                     u3951:
  8060  002152  EFAC  F010         	goto	l917
  8061  002156                     u3950:
  8062  002156  8022               	bsf	___flmul@prod^0,0,c
  8063  002158                     l917:
  8064  002158  90D8               	bcf	status,0,c
  8065  00215A  361C               	rlcf	___flmul@grs^0,f,c
  8066  00215C  361D               	rlcf	(___flmul@grs+1)^0,f,c
  8067  00215E  361E               	rlcf	(___flmul@grs+2)^0,f,c
  8068  002160  361F               	rlcf	(___flmul@grs+3)^0,f,c
  8069  002162  0626               	decf	___flmul@temp^0,f,c
  8070  002164  A0D8               	btfss	status,0,c
  8071  002166  0627               	decf	(___flmul@temp+1)^0,f,c
  8072  002168                     l3744:
  8073  002168  AE24               	btfss	(___flmul@prod+2)^0,7,c
  8074  00216A  EFB9  F010         	goto	u3961
  8075  00216E  EFBB  F010         	goto	u3960
  8076  002172                     u3961:
  8077  002172  EF9F  F010         	goto	l3738
  8078  002176                     u3960:
  8079  002176  0E00               	movlw	0
  8080  002178  6E20               	movwf	___flmul@aexp^0,c
  8081  00217A  AE1F               	btfss	(___flmul@grs+3)^0,7,c
  8082  00217C  EFC2  F010         	goto	u3971
  8083  002180  EFC4  F010         	goto	u3970
  8084  002184                     u3971:
  8085  002184  EFE8  F010         	goto	l919
  8086  002188                     u3970:
  8087  002188  0EFF               	movlw	255
  8088  00218A  141C               	andwf	___flmul@grs^0,w,c
  8089  00218C  6E17               	movwf	??___flmul^0,c
  8090  00218E  0EFF               	movlw	255
  8091  002190  141D               	andwf	(___flmul@grs+1)^0,w,c
  8092  002192  6E18               	movwf	(??___flmul+1)^0,c
  8093  002194  0EFF               	movlw	255
  8094  002196  141E               	andwf	(___flmul@grs+2)^0,w,c
  8095  002198  6E19               	movwf	(??___flmul+2)^0,c
  8096  00219A  0E7F               	movlw	127
  8097  00219C  141F               	andwf	(___flmul@grs+3)^0,w,c
  8098  00219E  6E1A               	movwf	(??___flmul+3)^0,c
  8099  0021A0  5017               	movf	??___flmul^0,w,c
  8100  0021A2  1018               	iorwf	(??___flmul+1)^0,w,c
  8101  0021A4  1019               	iorwf	(??___flmul+2)^0,w,c
  8102  0021A6  101A               	iorwf	(??___flmul+3)^0,w,c
  8103  0021A8  B4D8               	btfsc	status,2,c
  8104  0021AA  EFD9  F010         	goto	u3981
  8105  0021AE  EFDB  F010         	goto	u3980
  8106  0021B2                     u3981:
  8107  0021B2  EFDF  F010         	goto	l920
  8108  0021B6                     u3980:
  8109  0021B6                     l3752:
  8110  0021B6  0E01               	movlw	1
  8111  0021B8  6E20               	movwf	___flmul@aexp^0,c
  8112  0021BA  EFE8  F010         	goto	l919
  8113  0021BE                     l920:
  8114  0021BE  A022               	btfss	___flmul@prod^0,0,c
  8115  0021C0  EFE4  F010         	goto	u3991
  8116  0021C4  EFE6  F010         	goto	u3990
  8117  0021C8                     u3991:
  8118  0021C8  EFE8  F010         	goto	l919
  8119  0021CC                     u3990:
  8120  0021CC  EFDB  F010         	goto	l3752
  8121  0021D0                     l919:
  8122  0021D0  5020               	movf	___flmul@aexp^0,w,c
  8123  0021D2  B4D8               	btfsc	status,2,c
  8124  0021D4  EFEE  F010         	goto	u4001
  8125  0021D8  EFF0  F010         	goto	u4000
  8126  0021DC                     u4001:
  8127  0021DC  EF14  F011         	goto	l3764
  8128  0021E0                     u4000:
  8129  0021E0  0E01               	movlw	1
  8130  0021E2  2622               	addwf	___flmul@prod^0,f,c
  8131  0021E4  0E00               	movlw	0
  8132  0021E6  2223               	addwfc	(___flmul@prod+1)^0,f,c
  8133  0021E8  2224               	addwfc	(___flmul@prod+2)^0,f,c
  8134  0021EA  2225               	addwfc	(___flmul@prod+3)^0,f,c
  8135  0021EC  A025               	btfss	(___flmul@prod+3)^0,0,c
  8136  0021EE  EFFB  F010         	goto	u4011
  8137  0021F2  EFFD  F010         	goto	u4010
  8138  0021F6                     u4011:
  8139  0021F6  EF14  F011         	goto	l3764
  8140  0021FA                     u4010:
  8141  0021FA  C022  F017         	movff	___flmul@prod,??___flmul
  8142  0021FE  C023  F018         	movff	___flmul@prod+1,??___flmul+1
  8143  002202  C024  F019         	movff	___flmul@prod+2,??___flmul+2
  8144  002206  C025  F01A         	movff	___flmul@prod+3,??___flmul+3
  8145  00220A  341A               	rlcf	(??___flmul+3)^0,w,c
  8146  00220C  321A               	rrcf	(??___flmul+3)^0,f,c
  8147  00220E  3219               	rrcf	(??___flmul+2)^0,f,c
  8148  002210  3218               	rrcf	(??___flmul+1)^0,f,c
  8149  002212  3217               	rrcf	??___flmul^0,f,c
  8150  002214  C017  F022         	movff	??___flmul,___flmul@prod
  8151  002218  C018  F023         	movff	??___flmul+1,___flmul@prod+1
  8152  00221C  C019  F024         	movff	??___flmul+2,___flmul@prod+2
  8153  002220  C01A  F025         	movff	??___flmul+3,___flmul@prod+3
  8154  002224  4A26               	infsnz	___flmul@temp^0,f,c
  8155  002226  2A27               	incf	(___flmul@temp+1)^0,f,c
  8156  002228                     l3764:
  8157  002228  BE27               	btfsc	(___flmul@temp+1)^0,7,c
  8158  00222A  EF1F  F011         	goto	u4021
  8159  00222E  5027               	movf	(___flmul@temp+1)^0,w,c
  8160  002230  E108               	bnz	u4020
  8161  002232  2826               	incf	___flmul@temp^0,w,c
  8162  002234  A0D8               	btfss	status,0,c
  8163  002236  EF1F  F011         	goto	u4021
  8164  00223A  EF21  F011         	goto	u4020
  8165  00223E                     u4021:
  8166  00223E  EF2B  F011         	goto	l3768
  8167  002242                     u4020:
  8168  002242  0E00               	movlw	0
  8169  002244  6E22               	movwf	___flmul@prod^0,c
  8170  002246  0E00               	movlw	0
  8171  002248  6E23               	movwf	(___flmul@prod+1)^0,c
  8172  00224A  0E80               	movlw	128
  8173  00224C  6E24               	movwf	(___flmul@prod+2)^0,c
  8174  00224E  0E7F               	movlw	127
  8175  002250  6E25               	movwf	(___flmul@prod+3)^0,c
  8176  002252  EF59  F011         	goto	l3780
  8177  002256                     l3768:
  8178  002256  BE27               	btfsc	(___flmul@temp+1)^0,7,c
  8179  002258  EF38  F011         	goto	u4030
  8180  00225C  5027               	movf	(___flmul@temp+1)^0,w,c
  8181  00225E  E106               	bnz	u4031
  8182  002260  0426               	decf	___flmul@temp^0,w,c
  8183  002262  B0D8               	btfsc	status,0,c
  8184  002264  EF36  F011         	goto	u4031
  8185  002268  EF38  F011         	goto	u4030
  8186  00226C                     u4031:
  8187  00226C  EF44  F011         	goto	l927
  8188  002270                     u4030:
  8189  002270  0E00               	movlw	0
  8190  002272  6E22               	movwf	___flmul@prod^0,c
  8191  002274  0E00               	movlw	0
  8192  002276  6E23               	movwf	(___flmul@prod+1)^0,c
  8193  002278  0E00               	movlw	0
  8194  00227A  6E24               	movwf	(___flmul@prod+2)^0,c
  8195  00227C  0E00               	movlw	0
  8196  00227E  6E25               	movwf	(___flmul@prod+3)^0,c
  8197  002280  0E00               	movlw	0
  8198  002282  6E1B               	movwf	___flmul@sign^0,c
  8199  002284  EF59  F011         	goto	l3780
  8200  002288                     l927:
  8201  002288  C026  F021         	movff	___flmul@temp,___flmul@bexp
  8202  00228C  0EFF               	movlw	255
  8203  00228E  1622               	andwf	___flmul@prod^0,f,c
  8204  002290  0EFF               	movlw	255
  8205  002292  1623               	andwf	(___flmul@prod+1)^0,f,c
  8206  002294  0E7F               	movlw	127
  8207  002296  1624               	andwf	(___flmul@prod+2)^0,f,c
  8208  002298  0E00               	movlw	0
  8209  00229A  1625               	andwf	(___flmul@prod+3)^0,f,c
  8210  00229C  A021               	btfss	___flmul@bexp^0,0,c
  8211  00229E  EF53  F011         	goto	u4041
  8212  0022A2  EF55  F011         	goto	u4040
  8213  0022A6                     u4041:
  8214  0022A6  EF56  F011         	goto	l3778
  8215  0022AA                     u4040:
  8216  0022AA  8E24               	bsf	(___flmul@prod+2)^0,7,c
  8217  0022AC                     l3778:
  8218  0022AC  90D8               	bcf	status,0,c
  8219  0022AE  3021               	rrcf	___flmul@bexp^0,w,c
  8220  0022B0  6E25               	movwf	(___flmul@prod+3)^0,c
  8221  0022B2                     l3780:
  8222  0022B2  501B               	movf	___flmul@sign^0,w,c
  8223  0022B4  1225               	iorwf	(___flmul@prod+3)^0,f,c
  8224  0022B6  C022  F00F         	movff	___flmul@prod,?___flmul
  8225  0022BA  C023  F010         	movff	___flmul@prod+1,?___flmul+1
  8226  0022BE  C024  F011         	movff	___flmul@prod+2,?___flmul+2
  8227  0022C2  C025  F012         	movff	___flmul@prod+3,?___flmul+3
  8228  0022C6                     l914:
  8229  0022C6  0012               	return		;funcret
  8230  0022C8                     __end_of___flmul:
  8231                           	callstack 0
  8232                           
  8233 ;; *************** function ___flge *****************
  8234 ;; Defined at:
  8235 ;;		line 4 in file "C:\Program Files\Microchip\xc8\v2.32\pic\sources\c99\common\flge.c"
  8236 ;; Parameters:    Size  Location     Type
  8237 ;;  ff1             4    0[COMRAM] unsigned char 
  8238 ;;  ff2             4    4[COMRAM] unsigned char 
  8239 ;; Auto vars:     Size  Location     Type
  8240 ;;		None
  8241 ;; Return value:  Size  Location     Type
  8242 ;;		None               void
  8243 ;; Registers used:
  8244 ;;		wreg, status,2, status,0
  8245 ;; Tracked objects:
  8246 ;;		On entry : 0/0
  8247 ;;		On exit  : 0/0
  8248 ;;		Unchanged: 0/0
  8249 ;; Data sizes:     COMRAM   BANK0   BANK1   BANK2   BANK3   BANK4   BANK5   BANK6   BANK7
  8250 ;;      Params:         8       0       0       0       0       0       0       0       0
  8251 ;;      Locals:         0       0       0       0       0       0       0       0       0
  8252 ;;      Temps:          4       0       0       0       0       0       0       0       0
  8253 ;;      Totals:        12       0       0       0       0       0       0       0       0
  8254 ;;Total ram usage:       12 bytes
  8255 ;; Hardware stack levels used: 1
  8256 ;; This function calls:
  8257 ;;		Nothing
  8258 ;; This function is called by:
  8259 ;;		_cancion1
  8260 ;; This function uses a non-reentrant model
  8261 ;;
  8262                           
  8263                           	psect	text28
  8264  0035DA                     __ptext28:
  8265                           	callstack 0
  8266  0035DA                     ___flge:
  8267                           	callstack 29
  8268  0035DA  0E00               	movlw	0
  8269  0035DC  1401               	andwf	___flge@ff1^0,w,c
  8270  0035DE  6E09               	movwf	??___flge^0,c
  8271  0035E0  0E00               	movlw	0
  8272  0035E2  1402               	andwf	(___flge@ff1+1)^0,w,c
  8273  0035E4  6E0A               	movwf	(??___flge+1)^0,c
  8274  0035E6  0E80               	movlw	128
  8275  0035E8  1403               	andwf	(___flge@ff1+2)^0,w,c
  8276  0035EA  6E0B               	movwf	(??___flge+2)^0,c
  8277  0035EC  0E7F               	movlw	127
  8278  0035EE  1404               	andwf	(___flge@ff1+3)^0,w,c
  8279  0035F0  6E0C               	movwf	(??___flge+3)^0,c
  8280  0035F2  5009               	movf	??___flge^0,w,c
  8281  0035F4  100A               	iorwf	(??___flge+1)^0,w,c
  8282  0035F6  100B               	iorwf	(??___flge+2)^0,w,c
  8283  0035F8  100C               	iorwf	(??___flge+3)^0,w,c
  8284  0035FA  A4D8               	btfss	status,2,c
  8285  0035FC  EF02  F01B         	goto	u4081
  8286  003600  EF04  F01B         	goto	u4080
  8287  003604                     u4081:
  8288  003604  EF0C  F01B         	goto	l3806
  8289  003608                     u4080:
  8290  003608  0E00               	movlw	0
  8291  00360A  6E01               	movwf	___flge@ff1^0,c
  8292  00360C  0E00               	movlw	0
  8293  00360E  6E02               	movwf	(___flge@ff1+1)^0,c
  8294  003610  0E00               	movlw	0
  8295  003612  6E03               	movwf	(___flge@ff1+2)^0,c
  8296  003614  0E00               	movlw	0
  8297  003616  6E04               	movwf	(___flge@ff1+3)^0,c
  8298  003618                     l3806:
  8299  003618  0E00               	movlw	0
  8300  00361A  1405               	andwf	___flge@ff2^0,w,c
  8301  00361C  6E09               	movwf	??___flge^0,c
  8302  00361E  0E00               	movlw	0
  8303  003620  1406               	andwf	(___flge@ff2+1)^0,w,c
  8304  003622  6E0A               	movwf	(??___flge+1)^0,c
  8305  003624  0E80               	movlw	128
  8306  003626  1407               	andwf	(___flge@ff2+2)^0,w,c
  8307  003628  6E0B               	movwf	(??___flge+2)^0,c
  8308  00362A  0E7F               	movlw	127
  8309  00362C  1408               	andwf	(___flge@ff2+3)^0,w,c
  8310  00362E  6E0C               	movwf	(??___flge+3)^0,c
  8311  003630  5009               	movf	??___flge^0,w,c
  8312  003632  100A               	iorwf	(??___flge+1)^0,w,c
  8313  003634  100B               	iorwf	(??___flge+2)^0,w,c
  8314  003636  100C               	iorwf	(??___flge+3)^0,w,c
  8315  003638  A4D8               	btfss	status,2,c
  8316  00363A  EF21  F01B         	goto	u4091
  8317  00363E  EF23  F01B         	goto	u4090
  8318  003642                     u4091:
  8319  003642  EF2B  F01B         	goto	l3810
  8320  003646                     u4090:
  8321  003646  0E00               	movlw	0
  8322  003648  6E05               	movwf	___flge@ff2^0,c
  8323  00364A  0E00               	movlw	0
  8324  00364C  6E06               	movwf	(___flge@ff2+1)^0,c
  8325  00364E  0E00               	movlw	0
  8326  003650  6E07               	movwf	(___flge@ff2+2)^0,c
  8327  003652  0E00               	movlw	0
  8328  003654  6E08               	movwf	(___flge@ff2+3)^0,c
  8329  003656                     l3810:
  8330  003656  AE04               	btfss	(___flge@ff1+3)^0,7,c
  8331  003658  EF30  F01B         	goto	u4101
  8332  00365C  EF32  F01B         	goto	u4100
  8333  003660                     u4101:
  8334  003660  EF3B  F01B         	goto	l3814
  8335  003664                     u4100:
  8336  003664  6C01               	negf	___flge@ff1^0,c
  8337  003666  1E02               	comf	(___flge@ff1+1)^0,f,c
  8338  003668  B0D8               	btfsc	status,0,c
  8339  00366A  2A02               	incf	(___flge@ff1+1)^0,f,c
  8340  00366C  1E03               	comf	(___flge@ff1+2)^0,f,c
  8341  00366E  B0D8               	btfsc	status,0,c
  8342  003670  2A03               	incf	(___flge@ff1+2)^0,f,c
  8343  003672  0E80               	movlw	128
  8344  003674  5604               	subfwb	(___flge@ff1+3)^0,f,c
  8345  003676                     l3814:
  8346  003676  AE08               	btfss	(___flge@ff2+3)^0,7,c
  8347  003678  EF40  F01B         	goto	u4111
  8348  00367C  EF42  F01B         	goto	u4110
  8349  003680                     u4111:
  8350  003680  EF4B  F01B         	goto	l561
  8351  003684                     u4110:
  8352  003684  6C05               	negf	___flge@ff2^0,c
  8353  003686  1E06               	comf	(___flge@ff2+1)^0,f,c
  8354  003688  B0D8               	btfsc	status,0,c
  8355  00368A  2A06               	incf	(___flge@ff2+1)^0,f,c
  8356  00368C  1E07               	comf	(___flge@ff2+2)^0,f,c
  8357  00368E  B0D8               	btfsc	status,0,c
  8358  003690  2A07               	incf	(___flge@ff2+2)^0,f,c
  8359  003692  0E80               	movlw	128
  8360  003694  5608               	subfwb	(___flge@ff2+3)^0,f,c
  8361  003696                     l561:
  8362  003696  0E00               	movlw	0
  8363  003698  1A01               	xorwf	___flge@ff1^0,f,c
  8364  00369A  0E00               	movlw	0
  8365  00369C  1A02               	xorwf	(___flge@ff1+1)^0,f,c
  8366  00369E  0E00               	movlw	0
  8367  0036A0  1A03               	xorwf	(___flge@ff1+2)^0,f,c
  8368  0036A2  0E80               	movlw	128
  8369  0036A4  1A04               	xorwf	(___flge@ff1+3)^0,f,c
  8370  0036A6  0E00               	movlw	0
  8371  0036A8  1A05               	xorwf	___flge@ff2^0,f,c
  8372  0036AA  0E00               	movlw	0
  8373  0036AC  1A06               	xorwf	(___flge@ff2+1)^0,f,c
  8374  0036AE  0E00               	movlw	0
  8375  0036B0  1A07               	xorwf	(___flge@ff2+2)^0,f,c
  8376  0036B2  0E80               	movlw	128
  8377  0036B4  1A08               	xorwf	(___flge@ff2+3)^0,f,c
  8378  0036B6  5005               	movf	___flge@ff2^0,w,c
  8379  0036B8  5C01               	subwf	___flge@ff1^0,w,c
  8380  0036BA  5006               	movf	(___flge@ff2+1)^0,w,c
  8381  0036BC  5802               	subwfb	(___flge@ff1+1)^0,w,c
  8382  0036BE  5007               	movf	(___flge@ff2+2)^0,w,c
  8383  0036C0  5803               	subwfb	(___flge@ff1+2)^0,w,c
  8384  0036C2  5008               	movf	(___flge@ff2+3)^0,w,c
  8385  0036C4  5804               	subwfb	(___flge@ff1+3)^0,w,c
  8386  0036C6  B0D8               	btfsc	status,0,c
  8387  0036C8  EF68  F01B         	goto	u4121
  8388  0036CC  EF6A  F01B         	goto	u4120
  8389  0036D0                     u4121:
  8390  0036D0  EF6D  F01B         	goto	l3820
  8391  0036D4                     u4120:
  8392  0036D4  90D8               	bcf	status,0,c
  8393  0036D6  EF6E  F01B         	goto	l566
  8394  0036DA                     l3820:
  8395  0036DA  80D8               	bsf	status,0,c
  8396  0036DC                     l566:
  8397  0036DC  0012               	return		;funcret
  8398  0036DE                     __end_of___flge:
  8399                           	callstack 0
  8400                           
  8401 ;; *************** function ___fleq *****************
  8402 ;; Defined at:
  8403 ;;		line 4 in file "C:\Program Files\Microchip\xc8\v2.32\pic\sources\c99\common\fleq.c"
  8404 ;; Parameters:    Size  Location     Type
  8405 ;;  ff1             4    6[COMRAM] unsigned char 
  8406 ;;  ff2             4   10[COMRAM] unsigned char 
  8407 ;; Auto vars:     Size  Location     Type
  8408 ;;		None
  8409 ;; Return value:  Size  Location     Type
  8410 ;;		None               void
  8411 ;; Registers used:
  8412 ;;		wreg, status,2, status,0
  8413 ;; Tracked objects:
  8414 ;;		On entry : 0/0
  8415 ;;		On exit  : 0/0
  8416 ;;		Unchanged: 0/0
  8417 ;; Data sizes:     COMRAM   BANK0   BANK1   BANK2   BANK3   BANK4   BANK5   BANK6   BANK7
  8418 ;;      Params:         8       0       0       0       0       0       0       0       0
  8419 ;;      Locals:         0       0       0       0       0       0       0       0       0
  8420 ;;      Temps:          4       0       0       0       0       0       0       0       0
  8421 ;;      Totals:        12       0       0       0       0       0       0       0       0
  8422 ;;Total ram usage:       12 bytes
  8423 ;; Hardware stack levels used: 1
  8424 ;; This function calls:
  8425 ;;		Nothing
  8426 ;; This function is called by:
  8427 ;;		_cancion1
  8428 ;; This function uses a non-reentrant model
  8429 ;;
  8430                           
  8431                           	psect	text29
  8432  003BB8                     __ptext29:
  8433                           	callstack 0
  8434  003BB8                     ___fleq:
  8435                           	callstack 29
  8436  003BB8  0E00               	movlw	0
  8437  003BBA  1407               	andwf	___fleq@ff1^0,w,c
  8438  003BBC  6E0F               	movwf	??___fleq^0,c
  8439  003BBE  0E00               	movlw	0
  8440  003BC0  1408               	andwf	(___fleq@ff1+1)^0,w,c
  8441  003BC2  6E10               	movwf	(??___fleq+1)^0,c
  8442  003BC4  0E80               	movlw	128
  8443  003BC6  1409               	andwf	(___fleq@ff1+2)^0,w,c
  8444  003BC8  6E11               	movwf	(??___fleq+2)^0,c
  8445  003BCA  0E7F               	movlw	127
  8446  003BCC  140A               	andwf	(___fleq@ff1+3)^0,w,c
  8447  003BCE  6E12               	movwf	(??___fleq+3)^0,c
  8448  003BD0  500F               	movf	??___fleq^0,w,c
  8449  003BD2  1010               	iorwf	(??___fleq+1)^0,w,c
  8450  003BD4  1011               	iorwf	(??___fleq+2)^0,w,c
  8451  003BD6  1012               	iorwf	(??___fleq+3)^0,w,c
  8452  003BD8  A4D8               	btfss	status,2,c
  8453  003BDA  EFF1  F01D         	goto	u4051
  8454  003BDE  EFF3  F01D         	goto	u4050
  8455  003BE2                     u4051:
  8456  003BE2  EFFB  F01D         	goto	l3790
  8457  003BE6                     u4050:
  8458  003BE6  0E00               	movlw	0
  8459  003BE8  6E07               	movwf	___fleq@ff1^0,c
  8460  003BEA  0E00               	movlw	0
  8461  003BEC  6E08               	movwf	(___fleq@ff1+1)^0,c
  8462  003BEE  0E00               	movlw	0
  8463  003BF0  6E09               	movwf	(___fleq@ff1+2)^0,c
  8464  003BF2  0E00               	movlw	0
  8465  003BF4  6E0A               	movwf	(___fleq@ff1+3)^0,c
  8466  003BF6                     l3790:
  8467  003BF6  0E00               	movlw	0
  8468  003BF8  140B               	andwf	___fleq@ff2^0,w,c
  8469  003BFA  6E0F               	movwf	??___fleq^0,c
  8470  003BFC  0E00               	movlw	0
  8471  003BFE  140C               	andwf	(___fleq@ff2+1)^0,w,c
  8472  003C00  6E10               	movwf	(??___fleq+1)^0,c
  8473  003C02  0E80               	movlw	128
  8474  003C04  140D               	andwf	(___fleq@ff2+2)^0,w,c
  8475  003C06  6E11               	movwf	(??___fleq+2)^0,c
  8476  003C08  0E7F               	movlw	127
  8477  003C0A  140E               	andwf	(___fleq@ff2+3)^0,w,c
  8478  003C0C  6E12               	movwf	(??___fleq+3)^0,c
  8479  003C0E  500F               	movf	??___fleq^0,w,c
  8480  003C10  1010               	iorwf	(??___fleq+1)^0,w,c
  8481  003C12  1011               	iorwf	(??___fleq+2)^0,w,c
  8482  003C14  1012               	iorwf	(??___fleq+3)^0,w,c
  8483  003C16  A4D8               	btfss	status,2,c
  8484  003C18  EF10  F01E         	goto	u4061
  8485  003C1C  EF12  F01E         	goto	u4060
  8486  003C20                     u4061:
  8487  003C20  EF1A  F01E         	goto	l3794
  8488  003C24                     u4060:
  8489  003C24  0E00               	movlw	0
  8490  003C26  6E0B               	movwf	___fleq@ff2^0,c
  8491  003C28  0E00               	movlw	0
  8492  003C2A  6E0C               	movwf	(___fleq@ff2+1)^0,c
  8493  003C2C  0E00               	movlw	0
  8494  003C2E  6E0D               	movwf	(___fleq@ff2+2)^0,c
  8495  003C30  0E00               	movlw	0
  8496  003C32  6E0E               	movwf	(___fleq@ff2+3)^0,c
  8497  003C34                     l3794:
  8498  003C34  500B               	movf	___fleq@ff2^0,w,c
  8499  003C36  1807               	xorwf	___fleq@ff1^0,w,c
  8500  003C38  E10F               	bnz	u4070
  8501  003C3A  500C               	movf	(___fleq@ff2+1)^0,w,c
  8502  003C3C  1808               	xorwf	(___fleq@ff1+1)^0,w,c
  8503  003C3E  E10C               	bnz	u4070
  8504  003C40  500D               	movf	(___fleq@ff2+2)^0,w,c
  8505  003C42  1809               	xorwf	(___fleq@ff1+2)^0,w,c
  8506  003C44  E109               	bnz	u4070
  8507  003C46  500E               	movf	(___fleq@ff2+3)^0,w,c
  8508  003C48  180A               	xorwf	(___fleq@ff1+3)^0,w,c
  8509  003C4A  B4D8               	btfsc	status,2,c
  8510  003C4C  EF2A  F01E         	goto	u4071
  8511  003C50  EF2C  F01E         	goto	u4070
  8512  003C54                     u4071:
  8513  003C54  EF2F  F01E         	goto	l3798
  8514  003C58                     u4070:
  8515  003C58  90D8               	bcf	status,0,c
  8516  003C5A  EF30  F01E         	goto	l555
  8517  003C5E                     l3798:
  8518  003C5E  80D8               	bsf	status,0,c
  8519  003C60                     l555:
  8520  003C60  0012               	return		;funcret
  8521  003C62                     __end_of___fleq:
  8522                           	callstack 0
  8523                           
  8524 ;; *************** function _LCD_gotoXY *****************
  8525 ;; Defined at:
  8526 ;;		line 35 in file "LCD_lib.c"
  8527 ;; Parameters:    Size  Location     Type
  8528 ;;  x               2   18[COMRAM] int 
  8529 ;;  y               2   20[COMRAM] int 
  8530 ;; Auto vars:     Size  Location     Type
  8531 ;;		None
  8532 ;; Return value:  Size  Location     Type
  8533 ;;                  1    wreg      void 
  8534 ;; Registers used:
  8535 ;;		wreg, status,2, status,0, cstack
  8536 ;; Tracked objects:
  8537 ;;		On entry : 0/0
  8538 ;;		On exit  : 0/0
  8539 ;;		Unchanged: 0/0
  8540 ;; Data sizes:     COMRAM   BANK0   BANK1   BANK2   BANK3   BANK4   BANK5   BANK6   BANK7
  8541 ;;      Params:         4       0       0       0       0       0       0       0       0
  8542 ;;      Locals:         0       0       0       0       0       0       0       0       0
  8543 ;;      Temps:          0       0       0       0       0       0       0       0       0
  8544 ;;      Totals:         4       0       0       0       0       0       0       0       0
  8545 ;;Total ram usage:        4 bytes
  8546 ;; Hardware stack levels used: 1
  8547 ;; Hardware stack levels required when called: 2
  8548 ;; This function calls:
  8549 ;;		_WriteCmdXLCD
  8550 ;; This function is called by:
  8551 ;;		_cancion1
  8552 ;; This function uses a non-reentrant model
  8553 ;;
  8554                           
  8555                           	psect	text30
  8556  0040BE                     __ptext30:
  8557                           	callstack 0
  8558  0040BE                     _LCD_gotoXY:
  8559                           	callstack 27
  8560  0040BE                     
  8561                           ;LCD_lib.c: 35: void LCD_gotoXY(int x,int y);LCD_lib.c: 36: {;LCD_lib.c: 37:     if ( x>
      +                          0 ){WriteCmdXLCD(0b11000000 +y);}
  8562  0040BE  BE14               	btfsc	(LCD_gotoXY@x+1)^0,7,c
  8563  0040C0  EF6A  F020         	goto	u3571
  8564  0040C4  5014               	movf	(LCD_gotoXY@x+1)^0,w,c
  8565  0040C6  E108               	bnz	u3570
  8566  0040C8  0413               	decf	LCD_gotoXY@x^0,w,c
  8567  0040CA  A0D8               	btfss	status,0,c
  8568  0040CC  EF6A  F020         	goto	u3571
  8569  0040D0  EF6C  F020         	goto	u3570
  8570  0040D4                     u3571:
  8571  0040D4  EF72  F020         	goto	l3496
  8572  0040D8                     u3570:
  8573  0040D8  5015               	movf	LCD_gotoXY@y^0,w,c
  8574  0040DA  0FC0               	addlw	192
  8575  0040DC  EC0A  F020         	call	_WriteCmdXLCD
  8576  0040E0  EF76  F020         	goto	l36
  8577  0040E4                     l3496:
  8578  0040E4  5015               	movf	LCD_gotoXY@y^0,w,c
  8579  0040E6  0F80               	addlw	128
  8580  0040E8  EC0A  F020         	call	_WriteCmdXLCD
  8581  0040EC                     l36:
  8582  0040EC  0012               	return		;funcret
  8583  0040EE                     __end_of_LCD_gotoXY:
  8584                           	callstack 0
  8585                           
  8586 ;; *************** function _LCD_WriteChr_CGRAM *****************
  8587 ;; Defined at:
  8588 ;;		line 43 in file "LCD_lib.c"
  8589 ;; Parameters:    Size  Location     Type
  8590 ;;  buffer          2    4[COMRAM] PTR const unsigned char 
  8591 ;;		 -> personajeI(8), personajeD(8), personaje(9), 
  8592 ;;  Addres          1    6[COMRAM] unsigned char 
  8593 ;; Auto vars:     Size  Location     Type
  8594 ;;  i               1    7[COMRAM] unsigned char 
  8595 ;; Return value:  Size  Location     Type
  8596 ;;                  1    wreg      void 
  8597 ;; Registers used:
  8598 ;;		wreg, status,2, status,0, tblptrl, tblptrh, tblptru, prodl, prodh, cstack
  8599 ;; Tracked objects:
  8600 ;;		On entry : 0/0
  8601 ;;		On exit  : 0/0
  8602 ;;		Unchanged: 0/0
  8603 ;; Data sizes:     COMRAM   BANK0   BANK1   BANK2   BANK3   BANK4   BANK5   BANK6   BANK7
  8604 ;;      Params:         3       0       0       0       0       0       0       0       0
  8605 ;;      Locals:         1       0       0       0       0       0       0       0       0
  8606 ;;      Temps:          0       0       0       0       0       0       0       0       0
  8607 ;;      Totals:         4       0       0       0       0       0       0       0       0
  8608 ;;Total ram usage:        4 bytes
  8609 ;; Hardware stack levels used: 1
  8610 ;; Hardware stack levels required when called: 3
  8611 ;; This function calls:
  8612 ;;		_SetCGRamAddr
  8613 ;;		_WriteDataXLCD
  8614 ;; This function is called by:
  8615 ;;		_main
  8616 ;; This function uses a non-reentrant model
  8617 ;;
  8618                           
  8619                           	psect	text31
  8620  004088                     __ptext31:
  8621                           	callstack 0
  8622  004088                     _LCD_WriteChr_CGRAM:
  8623                           	callstack 27
  8624  004088                     
  8625                           ;LCD_lib.c: 46:     SetCGRamAddr(Addres*8);
  8626  004088  5007               	movf	LCD_WriteChr_CGRAM@Addres^0,w,c
  8627  00408A  0D08               	mullw	8
  8628  00408C  50F3               	movf	243,w,c
  8629  00408E  EC31  F01E         	call	_SetCGRamAddr
  8630  004092                     
  8631                           ;LCD_lib.c: 47:     for (i=0;i<8;i++)
  8632  004092  0E00               	movlw	0
  8633  004094  6E08               	movwf	LCD_WriteChr_CGRAM@i^0,c
  8634  004096                     l3834:
  8635                           
  8636                           ;LCD_lib.c: 48:     { WriteDataXLCD(*buffer);
  8637  004096  C005  FFF6         	movff	LCD_WriteChr_CGRAM@buffer,tblptrl
  8638  00409A  C006  FFF7         	movff	LCD_WriteChr_CGRAM@buffer+1,tblptrh
  8639  00409E                     	if	0	;tblptru may be non-zero
  8640  00409E                     	endif
  8641  00409E                     	if	0	;tblptru may be non-zero
  8642  00409E                     	endif
  8643  00409E  0008               	tblrd		*
  8644  0040A0  50F5               	movf	tablat,w,c
  8645  0040A2  EC59  F01F         	call	_WriteDataXLCD
  8646  0040A6                     
  8647                           ;LCD_lib.c: 49:        ++buffer;
  8648  0040A6  4A05               	infsnz	LCD_WriteChr_CGRAM@buffer^0,f,c
  8649  0040A8  2A06               	incf	(LCD_WriteChr_CGRAM@buffer+1)^0,f,c
  8650  0040AA                     
  8651                           ;LCD_lib.c: 50:     }
  8652  0040AA  2A08               	incf	LCD_WriteChr_CGRAM@i^0,f,c
  8653  0040AC  0E07               	movlw	7
  8654  0040AE  6408               	cpfsgt	LCD_WriteChr_CGRAM@i^0,c
  8655  0040B0  EF5C  F020         	goto	u4131
  8656  0040B4  EF5E  F020         	goto	u4130
  8657  0040B8                     u4131:
  8658  0040B8  EF4B  F020         	goto	l3834
  8659  0040BC                     u4130:
  8660  0040BC  0012               	return		;funcret
  8661  0040BE                     __end_of_LCD_WriteChr_CGRAM:
  8662                           	callstack 0
  8663                           
  8664 ;; *************** function _WriteDataXLCD *****************
  8665 ;; Defined at:
  8666 ;;		line 375 in file "LCD_lib.c"
  8667 ;; Parameters:    Size  Location     Type
  8668 ;;  data            1    wreg     unsigned char 
  8669 ;; Auto vars:     Size  Location     Type
  8670 ;;  data            1    0[COMRAM] unsigned char 
  8671 ;; Return value:  Size  Location     Type
  8672 ;;                  1    wreg      void 
  8673 ;; Registers used:
  8674 ;;		wreg, status,2, status,0, cstack
  8675 ;; Tracked objects:
  8676 ;;		On entry : 0/0
  8677 ;;		On exit  : 0/0
  8678 ;;		Unchanged: 0/0
  8679 ;; Data sizes:     COMRAM   BANK0   BANK1   BANK2   BANK3   BANK4   BANK5   BANK6   BANK7
  8680 ;;      Params:         0       0       0       0       0       0       0       0       0
  8681 ;;      Locals:         1       0       0       0       0       0       0       0       0
  8682 ;;      Temps:          0       0       0       0       0       0       0       0       0
  8683 ;;      Totals:         1       0       0       0       0       0       0       0       0
  8684 ;;Total ram usage:        1 bytes
  8685 ;; Hardware stack levels used: 1
  8686 ;; Hardware stack levels required when called: 2
  8687 ;; This function calls:
  8688 ;;		_BusyXLCD
  8689 ;;		_DelayFor18TCY
  8690 ;; This function is called by:
  8691 ;;		_LCD_WriteChr_CGRAM
  8692 ;;		_putrsXLCD
  8693 ;;		_cancion1
  8694 ;;		_putsXLCD
  8695 ;; This function uses a non-reentrant model
  8696 ;;
  8697                           
  8698                           	psect	text32
  8699  003EB2                     __ptext32:
  8700                           	callstack 0
  8701  003EB2                     _WriteDataXLCD:
  8702                           	callstack 27
  8703                           
  8704                           ;incstack = 0
  8705                           ;WriteDataXLCD@data stored from wreg
  8706  003EB2  6E01               	movwf	WriteDataXLCD@data^0,c
  8707  003EB4                     l3156:
  8708  003EB4  ECA5  F01F         	call	_BusyXLCD	;wreg free
  8709  003EB8  0900               	iorlw	0
  8710  003EBA  A4D8               	btfss	status,2,c
  8711  003EBC  EF62  F01F         	goto	u3081
  8712  003EC0  EF64  F01F         	goto	u3080
  8713  003EC4                     u3081:
  8714  003EC4  EF5A  F01F         	goto	l3156
  8715  003EC8                     u3080:
  8716  003EC8                     
  8717                           ;LCD_lib.c: 395:         TRISD &= 0xf0;
  8718  003EC8  0EF0               	movlw	240
  8719  003ECA  1695               	andwf	149,f,c	;volatile
  8720                           
  8721                           ;LCD_lib.c: 396:         PORTD &= 0xf0;
  8722  003ECC  0EF0               	movlw	240
  8723  003ECE  1683               	andwf	131,f,c	;volatile
  8724                           
  8725                           ;LCD_lib.c: 397:         PORTD |= ((data>>4)&0x0f);
  8726  003ED0  3801               	swapf	WriteDataXLCD@data^0,w,c
  8727  003ED2  0B0F               	andlw	15
  8728  003ED4  0B0F               	andlw	15
  8729  003ED6  1283               	iorwf	131,f,c	;volatile
  8730  003ED8                     
  8731                           ;LCD_lib.c: 399:         LATDbits.LATD5 = 1;
  8732  003ED8  8A8C               	bsf	140,5,c	;volatile
  8733  003EDA                     
  8734                           ;LCD_lib.c: 400:         LATDbits.LATD6 = 0;
  8735  003EDA  9C8C               	bcf	140,6,c	;volatile
  8736  003EDC                     
  8737                           ;LCD_lib.c: 401:         DelayFor18TCY();
  8738  003EDC  EC9E  F020         	call	_DelayFor18TCY	;wreg free
  8739  003EE0                     
  8740                           ;LCD_lib.c: 402:         LATDbits.LATD4 = 1;
  8741  003EE0  888C               	bsf	140,4,c	;volatile
  8742  003EE2                     
  8743                           ;LCD_lib.c: 403:         DelayFor18TCY();
  8744  003EE2  EC9E  F020         	call	_DelayFor18TCY	;wreg free
  8745  003EE6                     
  8746                           ;LCD_lib.c: 404:         LATDbits.LATD4 = 0;
  8747  003EE6  988C               	bcf	140,4,c	;volatile
  8748                           
  8749                           ;LCD_lib.c: 409:         PORTD &= 0xf0;
  8750  003EE8  0EF0               	movlw	240
  8751  003EEA  1683               	andwf	131,f,c	;volatile
  8752                           
  8753                           ;LCD_lib.c: 410:         PORTD |= (data&0x0f);
  8754  003EEC  5001               	movf	WriteDataXLCD@data^0,w,c
  8755  003EEE  0B0F               	andlw	15
  8756  003EF0  1283               	iorwf	131,f,c	;volatile
  8757  003EF2                     
  8758                           ;LCD_lib.c: 412:         DelayFor18TCY();
  8759  003EF2  EC9E  F020         	call	_DelayFor18TCY	;wreg free
  8760  003EF6                     
  8761                           ;LCD_lib.c: 413:         LATDbits.LATD4 = 1;
  8762  003EF6  888C               	bsf	140,4,c	;volatile
  8763  003EF8                     
  8764                           ;LCD_lib.c: 414:         DelayFor18TCY();
  8765  003EF8  EC9E  F020         	call	_DelayFor18TCY	;wreg free
  8766  003EFC                     
  8767                           ;LCD_lib.c: 415:         LATDbits.LATD4 = 0;
  8768  003EFC  988C               	bcf	140,4,c	;volatile
  8769                           
  8770                           ;LCD_lib.c: 419:         TRISD |= 0x0f;
  8771  003EFE  0E0F               	movlw	15
  8772  003F00  1295               	iorwf	149,f,c	;volatile
  8773  003F02  0012               	return		;funcret
  8774  003F04                     __end_of_WriteDataXLCD:
  8775                           	callstack 0
  8776                           
  8777 ;; *************** function _SetCGRamAddr *****************
  8778 ;; Defined at:
  8779 ;;		line 232 in file "LCD_lib.c"
  8780 ;; Parameters:    Size  Location     Type
  8781 ;;  CGaddr          1    wreg     unsigned char 
  8782 ;; Auto vars:     Size  Location     Type
  8783 ;;  CGaddr          1    3[COMRAM] unsigned char 
  8784 ;; Return value:  Size  Location     Type
  8785 ;;                  1    wreg      void 
  8786 ;; Registers used:
  8787 ;;		wreg, status,2, status,0, cstack
  8788 ;; Tracked objects:
  8789 ;;		On entry : 0/0
  8790 ;;		On exit  : 0/0
  8791 ;;		Unchanged: 0/0
  8792 ;; Data sizes:     COMRAM   BANK0   BANK1   BANK2   BANK3   BANK4   BANK5   BANK6   BANK7
  8793 ;;      Params:         0       0       0       0       0       0       0       0       0
  8794 ;;      Locals:         1       0       0       0       0       0       0       0       0
  8795 ;;      Temps:          3       0       0       0       0       0       0       0       0
  8796 ;;      Totals:         4       0       0       0       0       0       0       0       0
  8797 ;;Total ram usage:        4 bytes
  8798 ;; Hardware stack levels used: 1
  8799 ;; Hardware stack levels required when called: 2
  8800 ;; This function calls:
  8801 ;;		_BusyXLCD
  8802 ;; This function is called by:
  8803 ;;		_LCD_WriteChr_CGRAM
  8804 ;; This function uses a non-reentrant model
  8805 ;;
  8806                           
  8807                           	psect	text33
  8808  003C62                     __ptext33:
  8809                           	callstack 0
  8810  003C62                     _SetCGRamAddr:
  8811                           	callstack 27
  8812                           
  8813                           ;incstack = 0
  8814                           ;SetCGRamAddr@CGaddr stored from wreg
  8815  003C62  6E04               	movwf	SetCGRamAddr@CGaddr^0,c
  8816  003C64                     l3502:
  8817  003C64  ECA5  F01F         	call	_BusyXLCD	;wreg free
  8818  003C68  0900               	iorlw	0
  8819  003C6A  A4D8               	btfss	status,2,c
  8820  003C6C  EF3A  F01E         	goto	u3581
  8821  003C70  EF3C  F01E         	goto	u3580
  8822  003C74                     u3581:
  8823  003C74  EF32  F01E         	goto	l3502
  8824  003C78                     u3580:
  8825  003C78                     
  8826                           ;LCD_lib.c: 252:         TRISD &= 0xf0;
  8827  003C78  0EF0               	movlw	240
  8828  003C7A  1695               	andwf	149,f,c	;volatile
  8829                           
  8830                           ;LCD_lib.c: 253:         PORTD &= 0xf0;
  8831  003C7C  0EF0               	movlw	240
  8832  003C7E  1683               	andwf	131,f,c	;volatile
  8833                           
  8834                           ;LCD_lib.c: 254:         PORTD |= (((CGaddr |0b01000000)>>4) & 0x0f);
  8835  003C80  5004               	movf	SetCGRamAddr@CGaddr^0,w,c
  8836  003C82  6E01               	movwf	??_SetCGRamAddr^0,c
  8837  003C84  6A02               	clrf	(??_SetCGRamAddr+1)^0,c
  8838  003C86  0E40               	movlw	64
  8839  003C88  1201               	iorwf	??_SetCGRamAddr^0,f,c
  8840  003C8A  0E00               	movlw	0
  8841  003C8C  1202               	iorwf	(??_SetCGRamAddr+1)^0,f,c
  8842  003C8E  0E04               	movlw	4
  8843  003C90  6E03               	movwf	(??_SetCGRamAddr+2)^0,c
  8844  003C92                     u3595:
  8845  003C92  3402               	rlcf	(??_SetCGRamAddr+1)^0,w,c
  8846  003C94  3202               	rrcf	(??_SetCGRamAddr+1)^0,f,c
  8847  003C96  3201               	rrcf	??_SetCGRamAddr^0,f,c
  8848  003C98  2E03               	decfsz	(??_SetCGRamAddr+2)^0,f,c
  8849  003C9A  EF49  F01E         	goto	u3595
  8850  003C9E  5001               	movf	??_SetCGRamAddr^0,w,c
  8851  003CA0  0B0F               	andlw	15
  8852  003CA2  1283               	iorwf	131,f,c	;volatile
  8853  003CA4                     
  8854                           ;LCD_lib.c: 256:         LATDbits.LATD6 = 0;
  8855  003CA4  9C8C               	bcf	140,6,c	;volatile
  8856  003CA6                     
  8857                           ;LCD_lib.c: 257:         LATDbits.LATD5 = 0;
  8858  003CA6  9A8C               	bcf	140,5,c	;volatile
  8859  003CA8                     
  8860                           ;LCD_lib.c: 258:         _delay((unsigned long)((1)*(20000000/4000000.0)));
  8861  003CA8  D000               	nop2		;2 cycle nop
  8862  003CAA  D000               	nop2		;2 cycle nop
  8863  003CAC  F000               	nop	
  8864  003CAE                     
  8865                           ;LCD_lib.c: 259:         LATDbits.LATD4 = 1;
  8866  003CAE  888C               	bsf	140,4,c	;volatile
  8867  003CB0                     
  8868                           ;LCD_lib.c: 260:         _delay((unsigned long)((1)*(20000000/4000000.0)));
  8869  003CB0  D000               	nop2		;2 cycle nop
  8870  003CB2  D000               	nop2		;2 cycle nop
  8871  003CB4  F000               	nop	
  8872  003CB6                     
  8873                           ;LCD_lib.c: 261:         LATDbits.LATD4 = 0;
  8874  003CB6  988C               	bcf	140,4,c	;volatile
  8875                           
  8876                           ;LCD_lib.c: 266:         PORTD &= 0xf0;
  8877  003CB8  0EF0               	movlw	240
  8878  003CBA  1683               	andwf	131,f,c	;volatile
  8879                           
  8880                           ;LCD_lib.c: 267:         PORTD |= (CGaddr&0x0f);
  8881  003CBC  5004               	movf	SetCGRamAddr@CGaddr^0,w,c
  8882  003CBE  0B0F               	andlw	15
  8883  003CC0  1283               	iorwf	131,f,c	;volatile
  8884  003CC2                     
  8885                           ;LCD_lib.c: 269:         _delay((unsigned long)((1)*(20000000/4000000.0)));
  8886  003CC2  D000               	nop2		;2 cycle nop
  8887  003CC4  D000               	nop2		;2 cycle nop
  8888  003CC6  F000               	nop	
  8889  003CC8                     
  8890                           ;LCD_lib.c: 270:         LATDbits.LATD4 = 1;
  8891  003CC8  888C               	bsf	140,4,c	;volatile
  8892  003CCA                     
  8893                           ;LCD_lib.c: 271:         _delay((unsigned long)((1)*(20000000/4000000.0)));
  8894  003CCA  D000               	nop2		;2 cycle nop
  8895  003CCC  D000               	nop2		;2 cycle nop
  8896  003CCE  F000               	nop	
  8897  003CD0                     
  8898                           ;LCD_lib.c: 272:         LATDbits.LATD4 = 0;
  8899  003CD0  988C               	bcf	140,4,c	;volatile
  8900                           
  8901                           ;LCD_lib.c: 276:         TRISD |= 0x0f;
  8902  003CD2  0E0F               	movlw	15
  8903  003CD4  1295               	iorwf	149,f,c	;volatile
  8904  003CD6  0012               	return		;funcret
  8905  003CD8                     __end_of_SetCGRamAddr:
  8906                           	callstack 0
  8907                           
  8908 ;; *************** function _LCD_Init *****************
  8909 ;; Defined at:
  8910 ;;		line 336 in file "main.c"
  8911 ;; Parameters:    Size  Location     Type
  8912 ;;		None
  8913 ;; Auto vars:     Size  Location     Type
  8914 ;;		None
  8915 ;; Return value:  Size  Location     Type
  8916 ;;                  1    wreg      void 
  8917 ;; Registers used:
  8918 ;;		wreg, status,2, status,0, cstack
  8919 ;; Tracked objects:
  8920 ;;		On entry : 0/0
  8921 ;;		On exit  : 0/0
  8922 ;;		Unchanged: 0/0
  8923 ;; Data sizes:     COMRAM   BANK0   BANK1   BANK2   BANK3   BANK4   BANK5   BANK6   BANK7
  8924 ;;      Params:         0       0       0       0       0       0       0       0       0
  8925 ;;      Locals:         0       0       0       0       0       0       0       0       0
  8926 ;;      Temps:          0       0       0       0       0       0       0       0       0
  8927 ;;      Totals:         0       0       0       0       0       0       0       0       0
  8928 ;;Total ram usage:        0 bytes
  8929 ;; Hardware stack levels used: 1
  8930 ;; Hardware stack levels required when called: 3
  8931 ;; This function calls:
  8932 ;;		_BusyXLCD
  8933 ;;		_OpenXLCD
  8934 ;;		_WriteCmdXLCD
  8935 ;; This function is called by:
  8936 ;;		_main
  8937 ;; This function uses a non-reentrant model
  8938 ;;
  8939                           
  8940                           	psect	text34
  8941  0040EE                     __ptext34:
  8942                           	callstack 0
  8943  0040EE                     _LCD_Init:
  8944                           	callstack 27
  8945  0040EE                     
  8946                           ;main.c: 337:   OpenXLCD(0b00101100 & 0b00111000 );
  8947  0040EE  0E28               	movlw	40
  8948  0040F0  EC6F  F01B         	call	_OpenXLCD
  8949  0040F4                     l4086:
  8950  0040F4  ECA5  F01F         	call	_BusyXLCD	;wreg free
  8951  0040F8  0900               	iorlw	0
  8952  0040FA  A4D8               	btfss	status,2,c
  8953  0040FC  EF82  F020         	goto	u4441
  8954  004100  EF84  F020         	goto	u4440
  8955  004104                     u4441:
  8956  004104  EF7A  F020         	goto	l4086
  8957  004108                     u4440:
  8958  004108                     
  8959                           ;main.c: 339:     WriteCmdXLCD(0x06);
  8960  004108  0E06               	movlw	6
  8961  00410A  EC0A  F020         	call	_WriteCmdXLCD
  8962                           
  8963                           ;main.c: 340:     WriteCmdXLCD(0x0C);
  8964  00410E  0E0C               	movlw	12
  8965  004110  EC0A  F020         	call	_WriteCmdXLCD
  8966  004114  0012               	return		;funcret
  8967  004116                     __end_of_LCD_Init:
  8968                           	callstack 0
  8969                           
  8970 ;; *************** function _OpenXLCD *****************
  8971 ;; Defined at:
  8972 ;;		line 54 in file "LCD_lib.c"
  8973 ;; Parameters:    Size  Location     Type
  8974 ;;  lcdtype         1    wreg     unsigned char 
  8975 ;; Auto vars:     Size  Location     Type
  8976 ;;  lcdtype         1    4[COMRAM] unsigned char 
  8977 ;; Return value:  Size  Location     Type
  8978 ;;                  1    wreg      void 
  8979 ;; Registers used:
  8980 ;;		wreg, status,2, status,0, cstack
  8981 ;; Tracked objects:
  8982 ;;		On entry : 0/0
  8983 ;;		On exit  : 0/0
  8984 ;;		Unchanged: 0/0
  8985 ;; Data sizes:     COMRAM   BANK0   BANK1   BANK2   BANK3   BANK4   BANK5   BANK6   BANK7
  8986 ;;      Params:         0       0       0       0       0       0       0       0       0
  8987 ;;      Locals:         1       0       0       0       0       0       0       0       0
  8988 ;;      Temps:          0       0       0       0       0       0       0       0       0
  8989 ;;      Totals:         1       0       0       0       0       0       0       0       0
  8990 ;;Total ram usage:        1 bytes
  8991 ;; Hardware stack levels used: 1
  8992 ;; Hardware stack levels required when called: 2
  8993 ;; This function calls:
  8994 ;;		_BusyXLCD
  8995 ;;		_DelayPORXLCD
  8996 ;;		_SetDDRamAddr
  8997 ;;		_WriteCmdXLCD
  8998 ;; This function is called by:
  8999 ;;		_LCD_Init
  9000 ;; This function uses a non-reentrant model
  9001 ;;
  9002                           
  9003                           	psect	text35
  9004  0036DE                     __ptext35:
  9005                           	callstack 0
  9006  0036DE                     _OpenXLCD:
  9007                           	callstack 27
  9008                           
  9009                           ;incstack = 0
  9010                           ;OpenXLCD@lcdtype stored from wreg
  9011  0036DE  6E05               	movwf	OpenXLCD@lcdtype^0,c
  9012  0036E0                     
  9013                           ;LCD_lib.c: 54: void OpenXLCD(unsigned char lcdtype);LCD_lib.c: 55: {;LCD_lib.c: 66:    
      +                               PORTD &= 0xf0;
  9014  0036E0  0EF0               	movlw	240
  9015  0036E2  1683               	andwf	131,f,c	;volatile
  9016                           
  9017                           ;LCD_lib.c: 67:         TRISD &= 0xF0;
  9018  0036E4  0EF0               	movlw	240
  9019  0036E6  1695               	andwf	149,f,c	;volatile
  9020  0036E8                     
  9021                           ;LCD_lib.c: 70:         TRISDbits.TRISD6 = 0;
  9022  0036E8  9C95               	bcf	149,6,c	;volatile
  9023  0036EA                     
  9024                           ;LCD_lib.c: 71:         TRISDbits.TRISD5 = 0;
  9025  0036EA  9A95               	bcf	149,5,c	;volatile
  9026  0036EC                     
  9027                           ;LCD_lib.c: 72:         TRISDbits.TRISD4 = 0;
  9028  0036EC  9895               	bcf	149,4,c	;volatile
  9029  0036EE                     
  9030                           ;LCD_lib.c: 73:         LATDbits.LATD6 = 0;
  9031  0036EE  9C8C               	bcf	140,6,c	;volatile
  9032  0036F0                     
  9033                           ;LCD_lib.c: 74:         LATDbits.LATD5 = 0;
  9034  0036F0  9A8C               	bcf	140,5,c	;volatile
  9035  0036F2                     
  9036                           ;LCD_lib.c: 75:         LATDbits.LATD4 = 0;
  9037  0036F2  988C               	bcf	140,4,c	;volatile
  9038  0036F4                     
  9039                           ;LCD_lib.c: 78:         DelayPORXLCD();
  9040  0036F4  ECBF  F020         	call	_DelayPORXLCD	;wreg free
  9041  0036F8                     
  9042                           ;LCD_lib.c: 80:    WriteCmdXLCD(0x30);
  9043  0036F8  0E30               	movlw	48
  9044  0036FA  EC0A  F020         	call	_WriteCmdXLCD
  9045  0036FE                     
  9046                           ;LCD_lib.c: 81:          _delay((unsigned long)((1)*(20000000/4000000.0)));
  9047  0036FE  D000               	nop2		;2 cycle nop
  9048  003700  D000               	nop2		;2 cycle nop
  9049  003702  F000               	nop	
  9050  003704                     
  9051                           ;LCD_lib.c: 83:    WriteCmdXLCD(0x30);
  9052  003704  0E30               	movlw	48
  9053  003706  EC0A  F020         	call	_WriteCmdXLCD
  9054  00370A                     
  9055                           ;LCD_lib.c: 84:    _delay((unsigned long)((1)*(20000000/4000000.0)));
  9056  00370A  D000               	nop2		;2 cycle nop
  9057  00370C  D000               	nop2		;2 cycle nop
  9058  00370E  F000               	nop	
  9059  003710                     
  9060                           ;LCD_lib.c: 87:    WriteCmdXLCD(0x32);
  9061  003710  0E32               	movlw	50
  9062  003712  EC0A  F020         	call	_WriteCmdXLCD
  9063  003716                     l3554:
  9064  003716  ECA5  F01F         	call	_BusyXLCD	;wreg free
  9065  00371A  0900               	iorlw	0
  9066  00371C  A4D8               	btfss	status,2,c
  9067  00371E  EF93  F01B         	goto	u3601
  9068  003722  EF95  F01B         	goto	u3600
  9069  003726                     u3601:
  9070  003726  EF8B  F01B         	goto	l3554
  9071  00372A                     u3600:
  9072  00372A                     l3556:
  9073  00372A  ECA5  F01F         	call	_BusyXLCD	;wreg free
  9074  00372E  0900               	iorlw	0
  9075  003730  A4D8               	btfss	status,2,c
  9076  003732  EF9D  F01B         	goto	u3611
  9077  003736  EF9F  F01B         	goto	u3610
  9078  00373A                     u3611:
  9079  00373A  EF95  F01B         	goto	l3556
  9080  00373E                     u3610:
  9081  00373E                     
  9082                           ;LCD_lib.c: 94:         WriteCmdXLCD(lcdtype);
  9083  00373E  5005               	movf	OpenXLCD@lcdtype^0,w,c
  9084  003740  EC0A  F020         	call	_WriteCmdXLCD
  9085  003744                     l3560:
  9086  003744  ECA5  F01F         	call	_BusyXLCD	;wreg free
  9087  003748  0900               	iorlw	0
  9088  00374A  A4D8               	btfss	status,2,c
  9089  00374C  EFAA  F01B         	goto	u3621
  9090  003750  EFAC  F01B         	goto	u3620
  9091  003754                     u3621:
  9092  003754  EFA2  F01B         	goto	l3560
  9093  003758                     u3620:
  9094  003758                     
  9095                           ;LCD_lib.c: 98:         WriteCmdXLCD(0b00001011&0b00001101&0b00001110);
  9096  003758  0E08               	movlw	8
  9097  00375A  EC0A  F020         	call	_WriteCmdXLCD
  9098  00375E                     l3564:
  9099  00375E  ECA5  F01F         	call	_BusyXLCD	;wreg free
  9100  003762  0900               	iorlw	0
  9101  003764  A4D8               	btfss	status,2,c
  9102  003766  EFB7  F01B         	goto	u3631
  9103  00376A  EFB9  F01B         	goto	u3630
  9104  00376E                     u3631:
  9105  00376E  EFAF  F01B         	goto	l3564
  9106  003772                     u3630:
  9107  003772                     
  9108                           ;LCD_lib.c: 100:         WriteCmdXLCD(0b00001111&0b00001111&0b00001111);
  9109  003772  0E0F               	movlw	15
  9110  003774  EC0A  F020         	call	_WriteCmdXLCD
  9111  003778                     l3568:
  9112  003778  ECA5  F01F         	call	_BusyXLCD	;wreg free
  9113  00377C  0900               	iorlw	0
  9114  00377E  A4D8               	btfss	status,2,c
  9115  003780  EFC4  F01B         	goto	u3641
  9116  003784  EFC6  F01B         	goto	u3640
  9117  003788                     u3641:
  9118  003788  EFBC  F01B         	goto	l3568
  9119  00378C                     u3640:
  9120  00378C                     
  9121                           ;LCD_lib.c: 104:         WriteCmdXLCD(0x01);
  9122  00378C  0E01               	movlw	1
  9123  00378E  EC0A  F020         	call	_WriteCmdXLCD
  9124  003792                     l3572:
  9125  003792  ECA5  F01F         	call	_BusyXLCD	;wreg free
  9126  003796  0900               	iorlw	0
  9127  003798  A4D8               	btfss	status,2,c
  9128  00379A  EFD1  F01B         	goto	u3651
  9129  00379E  EFD3  F01B         	goto	u3650
  9130  0037A2                     u3651:
  9131  0037A2  EFC9  F01B         	goto	l3572
  9132  0037A6                     u3650:
  9133  0037A6                     
  9134                           ;LCD_lib.c: 108:         WriteCmdXLCD(0b00000100);
  9135  0037A6  0E04               	movlw	4
  9136  0037A8  EC0A  F020         	call	_WriteCmdXLCD
  9137  0037AC                     l3576:
  9138  0037AC  ECA5  F01F         	call	_BusyXLCD	;wreg free
  9139  0037B0  0900               	iorlw	0
  9140  0037B2  A4D8               	btfss	status,2,c
  9141  0037B4  EFDE  F01B         	goto	u3661
  9142  0037B8  EFE0  F01B         	goto	u3660
  9143  0037BC                     u3661:
  9144  0037BC  EFD6  F01B         	goto	l3576
  9145  0037C0                     u3660:
  9146  0037C0                     
  9147                           ;LCD_lib.c: 112:         SetDDRamAddr(0x80);
  9148  0037C0  0E80               	movlw	128
  9149  0037C2  EC03  F01F         	call	_SetDDRamAddr
  9150  0037C6  0012               	return		;funcret
  9151  0037C8                     __end_of_OpenXLCD:
  9152                           	callstack 0
  9153                           
  9154 ;; *************** function _WriteCmdXLCD *****************
  9155 ;; Defined at:
  9156 ;;		line 142 in file "LCD_lib.c"
  9157 ;; Parameters:    Size  Location     Type
  9158 ;;  cmd             1    wreg     unsigned char 
  9159 ;; Auto vars:     Size  Location     Type
  9160 ;;  cmd             1    0[COMRAM] unsigned char 
  9161 ;; Return value:  Size  Location     Type
  9162 ;;                  1    wreg      void 
  9163 ;; Registers used:
  9164 ;;		wreg, status,2, status,0, cstack
  9165 ;; Tracked objects:
  9166 ;;		On entry : 0/0
  9167 ;;		On exit  : 0/0
  9168 ;;		Unchanged: 0/0
  9169 ;; Data sizes:     COMRAM   BANK0   BANK1   BANK2   BANK3   BANK4   BANK5   BANK6   BANK7
  9170 ;;      Params:         0       0       0       0       0       0       0       0       0
  9171 ;;      Locals:         1       0       0       0       0       0       0       0       0
  9172 ;;      Temps:          0       0       0       0       0       0       0       0       0
  9173 ;;      Totals:         1       0       0       0       0       0       0       0       0
  9174 ;;Total ram usage:        1 bytes
  9175 ;; Hardware stack levels used: 1
  9176 ;; Hardware stack levels required when called: 1
  9177 ;; This function calls:
  9178 ;;		_DelayFor18TCY
  9179 ;; This function is called by:
  9180 ;;		_LCD_gotoXY
  9181 ;;		_OpenXLCD
  9182 ;;		_cancion1
  9183 ;;		_LCD_Init
  9184 ;;		_main
  9185 ;; This function uses a non-reentrant model
  9186 ;;
  9187                           
  9188                           	psect	text36
  9189  004014                     __ptext36:
  9190                           	callstack 0
  9191  004014                     _WriteCmdXLCD:
  9192                           	callstack 28
  9193                           
  9194                           ;incstack = 0
  9195                           ;WriteCmdXLCD@cmd stored from wreg
  9196  004014  6E01               	movwf	WriteCmdXLCD@cmd^0,c
  9197  004016                     
  9198                           ;LCD_lib.c: 142: void WriteCmdXLCD(unsigned char cmd);LCD_lib.c: 143: {;LCD_lib.c: 161: 
      +                                  TRISD &= 0xf0;
  9199  004016  0EF0               	movlw	240
  9200  004018  1695               	andwf	149,f,c	;volatile
  9201                           
  9202                           ;LCD_lib.c: 162:         PORTD &= 0xf0;
  9203  00401A  0EF0               	movlw	240
  9204  00401C  1683               	andwf	131,f,c	;volatile
  9205                           
  9206                           ;LCD_lib.c: 163:         PORTD |= (cmd>>4)&0x0f;
  9207  00401E  3801               	swapf	WriteCmdXLCD@cmd^0,w,c
  9208  004020  0B0F               	andlw	15
  9209  004022  0B0F               	andlw	15
  9210  004024  1283               	iorwf	131,f,c	;volatile
  9211  004026                     
  9212                           ;LCD_lib.c: 165:         LATDbits.LATD6 = 0;
  9213  004026  9C8C               	bcf	140,6,c	;volatile
  9214  004028                     
  9215                           ;LCD_lib.c: 166:         LATDbits.LATD5 = 0;
  9216  004028  9A8C               	bcf	140,5,c	;volatile
  9217  00402A                     
  9218                           ;LCD_lib.c: 167:         DelayFor18TCY();
  9219  00402A  EC9E  F020         	call	_DelayFor18TCY	;wreg free
  9220  00402E                     
  9221                           ;LCD_lib.c: 168:         LATDbits.LATD4 = 1;
  9222  00402E  888C               	bsf	140,4,c	;volatile
  9223  004030                     
  9224                           ;LCD_lib.c: 169:         DelayFor18TCY();
  9225  004030  EC9E  F020         	call	_DelayFor18TCY	;wreg free
  9226  004034                     
  9227                           ;LCD_lib.c: 170:         LATDbits.LATD4 = 0;
  9228  004034  988C               	bcf	140,4,c	;volatile
  9229                           
  9230                           ;LCD_lib.c: 175:         PORTD &= 0xf0;
  9231  004036  0EF0               	movlw	240
  9232  004038  1683               	andwf	131,f,c	;volatile
  9233                           
  9234                           ;LCD_lib.c: 176:         PORTD |= cmd&0x0f;
  9235  00403A  5001               	movf	WriteCmdXLCD@cmd^0,w,c
  9236  00403C  0B0F               	andlw	15
  9237  00403E  1283               	iorwf	131,f,c	;volatile
  9238  004040                     
  9239                           ;LCD_lib.c: 178:         DelayFor18TCY();
  9240  004040  EC9E  F020         	call	_DelayFor18TCY	;wreg free
  9241  004044                     
  9242                           ;LCD_lib.c: 179:         LATDbits.LATD4 = 1;
  9243  004044  888C               	bsf	140,4,c	;volatile
  9244  004046                     
  9245                           ;LCD_lib.c: 180:         DelayFor18TCY();
  9246  004046  EC9E  F020         	call	_DelayFor18TCY	;wreg free
  9247  00404A                     
  9248                           ;LCD_lib.c: 181:         LATDbits.LATD4 = 0;
  9249  00404A  988C               	bcf	140,4,c	;volatile
  9250                           
  9251                           ;LCD_lib.c: 185:         TRISD |= 0x0f;
  9252  00404C  0E0F               	movlw	15
  9253  00404E  1295               	iorwf	149,f,c	;volatile
  9254  004050  0012               	return		;funcret
  9255  004052                     __end_of_WriteCmdXLCD:
  9256                           	callstack 0
  9257                           
  9258 ;; *************** function _SetDDRamAddr *****************
  9259 ;; Defined at:
  9260 ;;		line 283 in file "LCD_lib.c"
  9261 ;; Parameters:    Size  Location     Type
  9262 ;;  DDaddr          1    wreg     unsigned char 
  9263 ;; Auto vars:     Size  Location     Type
  9264 ;;  DDaddr          1    3[COMRAM] unsigned char 
  9265 ;; Return value:  Size  Location     Type
  9266 ;;                  1    wreg      void 
  9267 ;; Registers used:
  9268 ;;		wreg, status,2, status,0, cstack
  9269 ;; Tracked objects:
  9270 ;;		On entry : 0/0
  9271 ;;		On exit  : 0/0
  9272 ;;		Unchanged: 0/0
  9273 ;; Data sizes:     COMRAM   BANK0   BANK1   BANK2   BANK3   BANK4   BANK5   BANK6   BANK7
  9274 ;;      Params:         0       0       0       0       0       0       0       0       0
  9275 ;;      Locals:         1       0       0       0       0       0       0       0       0
  9276 ;;      Temps:          3       0       0       0       0       0       0       0       0
  9277 ;;      Totals:         4       0       0       0       0       0       0       0       0
  9278 ;;Total ram usage:        4 bytes
  9279 ;; Hardware stack levels used: 1
  9280 ;; Hardware stack levels required when called: 1
  9281 ;; This function calls:
  9282 ;;		_DelayFor18TCY
  9283 ;; This function is called by:
  9284 ;;		_OpenXLCD
  9285 ;; This function uses a non-reentrant model
  9286 ;;
  9287                           
  9288                           	psect	text37
  9289  003E06                     __ptext37:
  9290                           	callstack 0
  9291  003E06                     _SetDDRamAddr:
  9292                           	callstack 27
  9293                           
  9294                           ;incstack = 0
  9295                           ;SetDDRamAddr@DDaddr stored from wreg
  9296  003E06  6E04               	movwf	SetDDRamAddr@DDaddr^0,c
  9297  003E08                     
  9298                           ;LCD_lib.c: 283: void SetDDRamAddr(unsigned char DDaddr);LCD_lib.c: 284: {;LCD_lib.c: 30
      +                          2:         TRISD &= 0xf0;
  9299  003E08  0EF0               	movlw	240
  9300  003E0A  1695               	andwf	149,f,c	;volatile
  9301                           
  9302                           ;LCD_lib.c: 303:         PORTD &= 0xf0;
  9303  003E0C  0EF0               	movlw	240
  9304  003E0E  1683               	andwf	131,f,c	;volatile
  9305                           
  9306                           ;LCD_lib.c: 304:         PORTD |= (((DDaddr | 0b10000000)>>4) & 0x0f);
  9307  003E10  5004               	movf	SetDDRamAddr@DDaddr^0,w,c
  9308  003E12  6E01               	movwf	??_SetDDRamAddr^0,c
  9309  003E14  6A02               	clrf	(??_SetDDRamAddr+1)^0,c
  9310  003E16  0E80               	movlw	128
  9311  003E18  1201               	iorwf	??_SetDDRamAddr^0,f,c
  9312  003E1A  0E00               	movlw	0
  9313  003E1C  1202               	iorwf	(??_SetDDRamAddr+1)^0,f,c
  9314  003E1E  0E04               	movlw	4
  9315  003E20  6E03               	movwf	(??_SetDDRamAddr+2)^0,c
  9316  003E22                     u3095:
  9317  003E22  3402               	rlcf	(??_SetDDRamAddr+1)^0,w,c
  9318  003E24  3202               	rrcf	(??_SetDDRamAddr+1)^0,f,c
  9319  003E26  3201               	rrcf	??_SetDDRamAddr^0,f,c
  9320  003E28  2E03               	decfsz	(??_SetDDRamAddr+2)^0,f,c
  9321  003E2A  EF11  F01F         	goto	u3095
  9322  003E2E  5001               	movf	??_SetDDRamAddr^0,w,c
  9323  003E30  0B0F               	andlw	15
  9324  003E32  1283               	iorwf	131,f,c	;volatile
  9325  003E34                     
  9326                           ;LCD_lib.c: 306:         LATDbits.LATD6 = 0;
  9327  003E34  9C8C               	bcf	140,6,c	;volatile
  9328  003E36                     
  9329                           ;LCD_lib.c: 307:         LATDbits.LATD5 = 0;
  9330  003E36  9A8C               	bcf	140,5,c	;volatile
  9331  003E38                     
  9332                           ;LCD_lib.c: 308:         DelayFor18TCY();
  9333  003E38  EC9E  F020         	call	_DelayFor18TCY	;wreg free
  9334  003E3C                     
  9335                           ;LCD_lib.c: 309:         LATDbits.LATD4 = 1;
  9336  003E3C  888C               	bsf	140,4,c	;volatile
  9337  003E3E                     
  9338                           ;LCD_lib.c: 310:         DelayFor18TCY();
  9339  003E3E  EC9E  F020         	call	_DelayFor18TCY	;wreg free
  9340  003E42                     
  9341                           ;LCD_lib.c: 311:         LATDbits.LATD4 = 0;
  9342  003E42  988C               	bcf	140,4,c	;volatile
  9343                           
  9344                           ;LCD_lib.c: 316:         PORTD &= 0xf0;
  9345  003E44  0EF0               	movlw	240
  9346  003E46  1683               	andwf	131,f,c	;volatile
  9347                           
  9348                           ;LCD_lib.c: 317:         PORTD |= (DDaddr&0x0f);
  9349  003E48  5004               	movf	SetDDRamAddr@DDaddr^0,w,c
  9350  003E4A  0B0F               	andlw	15
  9351  003E4C  1283               	iorwf	131,f,c	;volatile
  9352  003E4E                     
  9353                           ;LCD_lib.c: 319:         DelayFor18TCY();
  9354  003E4E  EC9E  F020         	call	_DelayFor18TCY	;wreg free
  9355  003E52                     
  9356                           ;LCD_lib.c: 320:         LATDbits.LATD4 = 1;
  9357  003E52  888C               	bsf	140,4,c	;volatile
  9358  003E54                     
  9359                           ;LCD_lib.c: 321:         DelayFor18TCY();
  9360  003E54  EC9E  F020         	call	_DelayFor18TCY	;wreg free
  9361  003E58                     
  9362                           ;LCD_lib.c: 322:         LATDbits.LATD4 = 0;
  9363  003E58  988C               	bcf	140,4,c	;volatile
  9364                           
  9365                           ;LCD_lib.c: 326:         TRISD |= 0x0f;
  9366  003E5A  0E0F               	movlw	15
  9367  003E5C  1295               	iorwf	149,f,c	;volatile
  9368  003E5E  0012               	return		;funcret
  9369  003E60                     __end_of_SetDDRamAddr:
  9370                           	callstack 0
  9371                           
  9372 ;; *************** function _DelayPORXLCD *****************
  9373 ;; Defined at:
  9374 ;;		line 24 in file "LCD_lib.c"
  9375 ;; Parameters:    Size  Location     Type
  9376 ;;		None
  9377 ;; Auto vars:     Size  Location     Type
  9378 ;;		None
  9379 ;; Return value:  Size  Location     Type
  9380 ;;                  1    wreg      void 
  9381 ;; Registers used:
  9382 ;;		wreg
  9383 ;; Tracked objects:
  9384 ;;		On entry : 0/0
  9385 ;;		On exit  : 0/0
  9386 ;;		Unchanged: 0/0
  9387 ;; Data sizes:     COMRAM   BANK0   BANK1   BANK2   BANK3   BANK4   BANK5   BANK6   BANK7
  9388 ;;      Params:         0       0       0       0       0       0       0       0       0
  9389 ;;      Locals:         0       0       0       0       0       0       0       0       0
  9390 ;;      Temps:          1       0       0       0       0       0       0       0       0
  9391 ;;      Totals:         1       0       0       0       0       0       0       0       0
  9392 ;;Total ram usage:        1 bytes
  9393 ;; Hardware stack levels used: 1
  9394 ;; This function calls:
  9395 ;;		Nothing
  9396 ;; This function is called by:
  9397 ;;		_OpenXLCD
  9398 ;; This function uses a non-reentrant model
  9399 ;;
  9400                           
  9401                           	psect	text38
  9402  00417E                     __ptext38:
  9403                           	callstack 0
  9404  00417E                     _DelayPORXLCD:
  9405                           	callstack 28
  9406  00417E                     
  9407                           ;LCD_lib.c: 25:     _delay((unsigned long)((15)*(20000000/4000.0)));
  9408  00417E  0E62               	movlw	98
  9409  004180  6E01               	movwf	??_DelayPORXLCD^0,c
  9410  004182  0E66               	movlw	102
  9411  004184                     u4657:
  9412  004184  2EE8               	decfsz	wreg,f,c
  9413  004186  D7FE               	bra	u4657
  9414  004188  2E01               	decfsz	??_DelayPORXLCD^0,f,c
  9415  00418A  D7FC               	bra	u4657
  9416  00418C  0012               	return		;funcret
  9417  00418E                     __end_of_DelayPORXLCD:
  9418                           	callstack 0
  9419                           
  9420 ;; *************** function _BusyXLCD *****************
  9421 ;; Defined at:
  9422 ;;		line 426 in file "LCD_lib.c"
  9423 ;; Parameters:    Size  Location     Type
  9424 ;;		None
  9425 ;; Auto vars:     Size  Location     Type
  9426 ;;		None
  9427 ;; Return value:  Size  Location     Type
  9428 ;;                  1    wreg      unsigned char 
  9429 ;; Registers used:
  9430 ;;		wreg, cstack
  9431 ;; Tracked objects:
  9432 ;;		On entry : 0/0
  9433 ;;		On exit  : 0/0
  9434 ;;		Unchanged: 0/0
  9435 ;; Data sizes:     COMRAM   BANK0   BANK1   BANK2   BANK3   BANK4   BANK5   BANK6   BANK7
  9436 ;;      Params:         0       0       0       0       0       0       0       0       0
  9437 ;;      Locals:         0       0       0       0       0       0       0       0       0
  9438 ;;      Temps:          0       0       0       0       0       0       0       0       0
  9439 ;;      Totals:         0       0       0       0       0       0       0       0       0
  9440 ;;Total ram usage:        0 bytes
  9441 ;; Hardware stack levels used: 1
  9442 ;; Hardware stack levels required when called: 1
  9443 ;; This function calls:
  9444 ;;		_DelayFor18TCY
  9445 ;; This function is called by:
  9446 ;;		_OpenXLCD
  9447 ;;		_putrsXLCD
  9448 ;;		_SetCGRamAddr
  9449 ;;		_WriteDataXLCD
  9450 ;;		_LCD_Init
  9451 ;;		_putsXLCD
  9452 ;; This function uses a non-reentrant model
  9453 ;;
  9454                           
  9455                           	psect	text39
  9456  003F4A                     __ptext39:
  9457                           	callstack 0
  9458  003F4A                     _BusyXLCD:
  9459                           	callstack 27
  9460  003F4A                     
  9461                           ;LCD_lib.c: 428:         LATDbits.LATD6 = 1;
  9462  003F4A  8C8C               	bsf	140,6,c	;volatile
  9463                           
  9464                           ;LCD_lib.c: 429:         LATDbits.LATD5 = 0;
  9465  003F4C  9A8C               	bcf	140,5,c	;volatile
  9466  003F4E                     
  9467                           ;LCD_lib.c: 430:         DelayFor18TCY();
  9468  003F4E  EC9E  F020         	call	_DelayFor18TCY	;wreg free
  9469  003F52                     
  9470                           ;LCD_lib.c: 431:         LATDbits.LATD4 = 1;
  9471  003F52  888C               	bsf	140,4,c	;volatile
  9472                           
  9473                           ;LCD_lib.c: 432:         DelayFor18TCY();
  9474  003F54  EC9E  F020         	call	_DelayFor18TCY	;wreg free
  9475  003F58                     
  9476                           ;LCD_lib.c: 450:         if(PORTD&0x08)
  9477  003F58  A683               	btfss	131,3,c	;volatile
  9478  003F5A  EFB1  F01F         	goto	u2641
  9479  003F5E  EFB3  F01F         	goto	u2640
  9480  003F62                     u2641:
  9481  003F62  EFBE  F01F         	goto	l110
  9482  003F66                     u2640:
  9483  003F66                     
  9484                           ;LCD_lib.c: 452:         {;LCD_lib.c: 453:                 LATDbits.LATD4 = 0;
  9485  003F66  988C               	bcf	140,4,c	;volatile
  9486  003F68                     
  9487                           ;LCD_lib.c: 454:                 DelayFor18TCY();
  9488  003F68  EC9E  F020         	call	_DelayFor18TCY	;wreg free
  9489  003F6C                     
  9490                           ;LCD_lib.c: 455:                 LATDbits.LATD4 = 1;
  9491  003F6C  888C               	bsf	140,4,c	;volatile
  9492                           
  9493                           ;LCD_lib.c: 456:                 DelayFor18TCY();
  9494  003F6E  EC9E  F020         	call	_DelayFor18TCY	;wreg free
  9495  003F72                     
  9496                           ;LCD_lib.c: 457:                 LATDbits.LATD4 = 0;
  9497  003F72  988C               	bcf	140,4,c	;volatile
  9498  003F74                     
  9499                           ;LCD_lib.c: 458:                 LATDbits.LATD6 = 0;
  9500  003F74  9C8C               	bcf	140,6,c	;volatile
  9501  003F76                     
  9502                           ;LCD_lib.c: 459:                 return 1;
  9503  003F76  0E01               	movlw	1
  9504  003F78  EFC7  F01F         	goto	l111
  9505  003F7C                     l110:
  9506                           
  9507                           ;LCD_lib.c: 462:         {;LCD_lib.c: 463:                 LATDbits.LATD4 = 0;
  9508  003F7C  988C               	bcf	140,4,c	;volatile
  9509  003F7E                     
  9510                           ;LCD_lib.c: 464:                 DelayFor18TCY();
  9511  003F7E  EC9E  F020         	call	_DelayFor18TCY	;wreg free
  9512  003F82                     
  9513                           ;LCD_lib.c: 465:                 LATDbits.LATD4 = 1;
  9514  003F82  888C               	bsf	140,4,c	;volatile
  9515                           
  9516                           ;LCD_lib.c: 466:                 DelayFor18TCY();
  9517  003F84  EC9E  F020         	call	_DelayFor18TCY	;wreg free
  9518  003F88                     
  9519                           ;LCD_lib.c: 467:                 LATDbits.LATD4 = 0;
  9520  003F88  988C               	bcf	140,4,c	;volatile
  9521  003F8A                     
  9522                           ;LCD_lib.c: 468:                 LATDbits.LATD6 = 0;
  9523  003F8A  9C8C               	bcf	140,6,c	;volatile
  9524  003F8C                     
  9525                           ;LCD_lib.c: 469:                 return 0;
  9526  003F8C  0E00               	movlw	0
  9527  003F8E                     l111:
  9528  003F8E  0012               	return		;funcret
  9529  003F90                     __end_of_BusyXLCD:
  9530                           	callstack 0
  9531                           
  9532 ;; *************** function _DelayFor18TCY *****************
  9533 ;; Defined at:
  9534 ;;		line 7 in file "LCD_lib.c"
  9535 ;; Parameters:    Size  Location     Type
  9536 ;;		None
  9537 ;; Auto vars:     Size  Location     Type
  9538 ;;		None
  9539 ;; Return value:  Size  Location     Type
  9540 ;;                  1    wreg      void 
  9541 ;; Registers used:
  9542 ;;		None
  9543 ;; Tracked objects:
  9544 ;;		On entry : 0/0
  9545 ;;		On exit  : 0/0
  9546 ;;		Unchanged: 0/0
  9547 ;; Data sizes:     COMRAM   BANK0   BANK1   BANK2   BANK3   BANK4   BANK5   BANK6   BANK7
  9548 ;;      Params:         0       0       0       0       0       0       0       0       0
  9549 ;;      Locals:         0       0       0       0       0       0       0       0       0
  9550 ;;      Temps:          0       0       0       0       0       0       0       0       0
  9551 ;;      Totals:         0       0       0       0       0       0       0       0       0
  9552 ;;Total ram usage:        0 bytes
  9553 ;; Hardware stack levels used: 1
  9554 ;; This function calls:
  9555 ;;		Nothing
  9556 ;; This function is called by:
  9557 ;;		_WriteCmdXLCD
  9558 ;;		_SetDDRamAddr
  9559 ;;		_WriteDataXLCD
  9560 ;;		_BusyXLCD
  9561 ;;		_ReadAddrXLCD
  9562 ;;		_ReadDataXLCD
  9563 ;; This function uses a non-reentrant model
  9564 ;;
  9565                           
  9566                           	psect	text40
  9567  00413C                     __ptext40:
  9568                           	callstack 0
  9569  00413C                     _DelayFor18TCY:
  9570                           	callstack 28
  9571  00413C                     
  9572                           ;LCD_lib.c: 8:     __nop();
  9573  00413C  F000               	nop	
  9574                           
  9575                           ;LCD_lib.c: 9:     __nop();
  9576  00413E  F000               	nop	
  9577                           
  9578                           ;LCD_lib.c: 10:     __nop();
  9579  004140  F000               	nop	
  9580                           
  9581                           ;LCD_lib.c: 11:     __nop();
  9582  004142  F000               	nop	
  9583                           
  9584                           ;LCD_lib.c: 12:     __nop();
  9585  004144  F000               	nop	
  9586                           
  9587                           ;LCD_lib.c: 13:     __nop();
  9588  004146  F000               	nop	
  9589                           
  9590                           ;LCD_lib.c: 14:     __nop();
  9591  004148  F000               	nop	
  9592                           
  9593                           ;LCD_lib.c: 15:     __nop();
  9594  00414A  F000               	nop	
  9595                           
  9596                           ;LCD_lib.c: 16:     __nop();
  9597  00414C  F000               	nop	
  9598                           
  9599                           ;LCD_lib.c: 17:     __nop();
  9600  00414E  F000               	nop	
  9601                           
  9602                           ;LCD_lib.c: 18:     __nop();
  9603  004150  F000               	nop	
  9604                           
  9605                           ;LCD_lib.c: 19:     __nop();
  9606  004152  F000               	nop	
  9607  004154  0012               	return		;funcret
  9608  004156                     __end_of_DelayFor18TCY:
  9609                           	callstack 0
  9610                           
  9611                           	psect	rparam
  9612  0000                     
  9613                           	psect	idloc
  9614                           
  9615                           ;Config register IDLOC0 @ 0x200000
  9616                           ;	unspecified, using default values
  9617  200000                     	org	2097152
  9618  200000  FF                 	db	255
  9619                           
  9620                           ;Config register IDLOC1 @ 0x200001
  9621                           ;	unspecified, using default values
  9622  200001                     	org	2097153
  9623  200001  FF                 	db	255
  9624                           
  9625                           ;Config register IDLOC2 @ 0x200002
  9626                           ;	unspecified, using default values
  9627  200002                     	org	2097154
  9628  200002  FF                 	db	255
  9629                           
  9630                           ;Config register IDLOC3 @ 0x200003
  9631                           ;	unspecified, using default values
  9632  200003                     	org	2097155
  9633  200003  FF                 	db	255
  9634                           
  9635                           ;Config register IDLOC4 @ 0x200004
  9636                           ;	unspecified, using default values
  9637  200004                     	org	2097156
  9638  200004  FF                 	db	255
  9639                           
  9640                           ;Config register IDLOC5 @ 0x200005
  9641                           ;	unspecified, using default values
  9642  200005                     	org	2097157
  9643  200005  FF                 	db	255
  9644                           
  9645                           ;Config register IDLOC6 @ 0x200006
  9646                           ;	unspecified, using default values
  9647  200006                     	org	2097158
  9648  200006  FF                 	db	255
  9649                           
  9650                           ;Config register IDLOC7 @ 0x200007
  9651                           ;	unspecified, using default values
  9652  200007                     	org	2097159
  9653  200007  FF                 	db	255
  9654                           
  9655                           	psect	config
  9656                           
  9657                           ;Config register CONFIG1L @ 0x300000
  9658                           ;	PLL Prescaler Selection bits
  9659                           ;	PLLDIV = 5, Divide by 5 (20 MHz oscillator input)
  9660                           ;	System Clock Postscaler Selection bits
  9661                           ;	CPUDIV = OSC1_PLL2, [Primary Oscillator Src: /1][96 MHz PLL Src: /2]
  9662                           ;	USB Clock Selection bit (used in Full-Speed USB mode only; UCFG:FSEN = 1)
  9663                           ;	USBDIV = 2, USB clock source comes from the 96 MHz PLL divided by 2
  9664  300000                     	org	3145728
  9665  300000  24                 	db	36
  9666                           
  9667                           ;Config register CONFIG1H @ 0x300001
  9668                           ;	Oscillator Selection bits
  9669                           ;	FOSC = HS, HS oscillator (HS)
  9670                           ;	Fail-Safe Clock Monitor Enable bit
  9671                           ;	FCMEN = OFF, Fail-Safe Clock Monitor disabled
  9672                           ;	Internal/External Oscillator Switchover bit
  9673                           ;	IESO = OFF, Oscillator Switchover mode disabled
  9674  300001                     	org	3145729
  9675  300001  0C                 	db	12
  9676                           
  9677                           ;Config register CONFIG2L @ 0x300002
  9678                           ;	Power-up Timer Enable bit
  9679                           ;	PWRT = OFF, PWRT disabled
  9680                           ;	Brown-out Reset Enable bits
  9681                           ;	BOR = ON, Brown-out Reset enabled in hardware only (SBOREN is disabled)
  9682                           ;	Brown-out Reset Voltage bits
  9683                           ;	BORV = 3, Minimum setting 2.05V
  9684                           ;	USB Voltage Regulator Enable bit
  9685                           ;	VREGEN = OFF, USB voltage regulator disabled
  9686  300002                     	org	3145730
  9687  300002  1F                 	db	31
  9688                           
  9689                           ;Config register CONFIG2H @ 0x300003
  9690                           ;	Watchdog Timer Enable bit
  9691                           ;	WDT = ON, WDT enabled
  9692                           ;	Watchdog Timer Postscale Select bits
  9693                           ;	WDTPS = 32768, 1:32768
  9694  300003                     	org	3145731
  9695  300003  1F                 	db	31
  9696                           
  9697                           ; Padding undefined space
  9698  300004                     	org	3145732
  9699  300004  FF                 	db	255
  9700                           
  9701                           ;Config register CONFIG3H @ 0x300005
  9702                           ;	CCP2 MUX bit
  9703                           ;	CCP2MX = ON, CCP2 input/output is multiplexed with RC1
  9704                           ;	PORTB A/D Enable bit
  9705                           ;	PBADEN = ON, PORTB<4:0> pins are configured as analog input channels on Reset
  9706                           ;	Low-Power Timer 1 Oscillator Enable bit
  9707                           ;	LPT1OSC = OFF, Timer1 configured for higher power operation
  9708                           ;	MCLR Pin Enable bit
  9709                           ;	MCLRE = ON, MCLR pin enabled; RE3 input pin disabled
  9710  300005                     	org	3145733
  9711  300005  83                 	db	131
  9712                           
  9713                           ;Config register CONFIG4L @ 0x300006
  9714                           ;	Stack Full/Underflow Reset Enable bit
  9715                           ;	STVREN = ON, Stack full/underflow will cause Reset
  9716                           ;	Single-Supply ICSP Enable bit
  9717                           ;	LVP = ON, Single-Supply ICSP enabled
  9718                           ;	Dedicated In-Circuit Debug/Programming Port (ICPORT) Enable bit
  9719                           ;	ICPRT = OFF, ICPORT disabled
  9720                           ;	Extended Instruction Set Enable bit
  9721                           ;	XINST = OFF, Instruction set extension and Indexed Addressing mode disabled (Legacy mo
      +                          de)
  9722                           ;	Background Debugger Enable bit
  9723                           ;	DEBUG = 0x1, unprogrammed default
  9724  300006                     	org	3145734
  9725  300006  85                 	db	133
  9726                           
  9727                           ; Padding undefined space
  9728  300007                     	org	3145735
  9729  300007  FF                 	db	255
  9730                           
  9731                           ;Config register CONFIG5L @ 0x300008
  9732                           ;	Code Protection bit
  9733                           ;	CP0 = OFF, Block 0 (000800-001FFFh) is not code-protected
  9734                           ;	Code Protection bit
  9735                           ;	CP1 = OFF, Block 1 (002000-003FFFh) is not code-protected
  9736                           ;	Code Protection bit
  9737                           ;	CP2 = OFF, Block 2 (004000-005FFFh) is not code-protected
  9738                           ;	Code Protection bit
  9739                           ;	CP3 = OFF, Block 3 (006000-007FFFh) is not code-protected
  9740  300008                     	org	3145736
  9741  300008  0F                 	db	15
  9742                           
  9743                           ;Config register CONFIG5H @ 0x300009
  9744                           ;	Boot Block Code Protection bit
  9745                           ;	CPB = OFF, Boot block (000000-0007FFh) is not code-protected
  9746                           ;	Data EEPROM Code Protection bit
  9747                           ;	CPD = OFF, Data EEPROM is not code-protected
  9748  300009                     	org	3145737
  9749  300009  C0                 	db	192
  9750                           
  9751                           ;Config register CONFIG6L @ 0x30000A
  9752                           ;	Write Protection bit
  9753                           ;	WRT0 = OFF, Block 0 (000800-001FFFh) is not write-protected
  9754                           ;	Write Protection bit
  9755                           ;	WRT1 = OFF, Block 1 (002000-003FFFh) is not write-protected
  9756                           ;	Write Protection bit
  9757                           ;	WRT2 = OFF, Block 2 (004000-005FFFh) is not write-protected
  9758                           ;	Write Protection bit
  9759                           ;	WRT3 = OFF, Block 3 (006000-007FFFh) is not write-protected
  9760  30000A                     	org	3145738
  9761  30000A  0F                 	db	15
  9762                           
  9763                           ;Config register CONFIG6H @ 0x30000B
  9764                           ;	Configuration Register Write Protection bit
  9765                           ;	WRTC = OFF, Configuration registers (300000-3000FFh) are not write-protected
  9766                           ;	Boot Block Write Protection bit
  9767                           ;	WRTB = OFF, Boot block (000000-0007FFh) is not write-protected
  9768                           ;	Data EEPROM Write Protection bit
  9769                           ;	WRTD = OFF, Data EEPROM is not write-protected
  9770  30000B                     	org	3145739
  9771  30000B  E0                 	db	224
  9772                           
  9773                           ;Config register CONFIG7L @ 0x30000C
  9774                           ;	Table Read Protection bit
  9775                           ;	EBTR0 = OFF, Block 0 (000800-001FFFh) is not protected from table reads executed in ot
      +                          her blocks
  9776                           ;	Table Read Protection bit
  9777                           ;	EBTR1 = OFF, Block 1 (002000-003FFFh) is not protected from table reads executed in ot
      +                          her blocks
  9778                           ;	Table Read Protection bit
  9779                           ;	EBTR2 = OFF, Block 2 (004000-005FFFh) is not protected from table reads executed in ot
      +                          her blocks
  9780                           ;	Table Read Protection bit
  9781                           ;	EBTR3 = OFF, Block 3 (006000-007FFFh) is not protected from table reads executed in ot
      +                          her blocks
  9782  30000C                     	org	3145740
  9783  30000C  0F                 	db	15
  9784                           
  9785                           ;Config register CONFIG7H @ 0x30000D
  9786                           ;	Boot Block Table Read Protection bit
  9787                           ;	EBTRB = OFF, Boot block (000000-0007FFh) is not protected from table reads executed in
      +                           other blocks
  9788  30000D                     	org	3145741
  9789  30000D  40                 	db	64
  9790                           tosu	equ	0xFFF
  9791                           tosh	equ	0xFFE
  9792                           tosl	equ	0xFFD
  9793                           stkptr	equ	0xFFC
  9794                           pclatu	equ	0xFFB
  9795                           pclath	equ	0xFFA
  9796                           pcl	equ	0xFF9
  9797                           tblptru	equ	0xFF8
  9798                           tblptrh	equ	0xFF7
  9799                           tblptrl	equ	0xFF6
  9800                           tablat	equ	0xFF5
  9801                           prodh	equ	0xFF4
  9802                           prodl	equ	0xFF3
  9803                           indf0	equ	0xFEF
  9804                           postinc0	equ	0xFEE
  9805                           postdec0	equ	0xFED
  9806                           preinc0	equ	0xFEC
  9807                           plusw0	equ	0xFEB
  9808                           fsr0h	equ	0xFEA
  9809                           fsr0l	equ	0xFE9
  9810                           wreg	equ	0xFE8
  9811                           indf1	equ	0xFE7
  9812                           postinc1	equ	0xFE6
  9813                           postdec1	equ	0xFE5
  9814                           preinc1	equ	0xFE4
  9815                           plusw1	equ	0xFE3
  9816                           fsr1h	equ	0xFE2
  9817                           fsr1l	equ	0xFE1
  9818                           bsr	equ	0xFE0
  9819                           indf2	equ	0xFDF
  9820                           postinc2	equ	0xFDE
  9821                           postdec2	equ	0xFDD
  9822                           preinc2	equ	0xFDC
  9823                           plusw2	equ	0xFDB
  9824                           fsr2h	equ	0xFDA
  9825                           fsr2l	equ	0xFD9
  9826                           status	equ	0xFD8

Data Sizes:
    Strings     19
    Constant    25
    Data        534
    BSS         100
    Persistent  2
    Stack       0

Auto Spaces:
    Space          Size  Autos    Used
    COMRAM           95     95      95
    BANK0           160     23     131
    BANK1           256      0       0
    BANK2           256      0       0
    BANK3           256      0       0
    BANK4           256      0       0
    BANK5           256      0       0
    BANK6           256      0       0
    BANK7           256      0       0

Pointer List with Targets:

    strlen@s	PTR const unsigned char  size(2) Largest target is 32
		 -> dbuf(BANK0[32]), 

    strlen@a	PTR const unsigned char  size(2) Largest target is 32
		 -> dbuf(BANK0[32]), 

    fputs@s	PTR const unsigned char  size(2) Largest target is 32
		 -> dbuf(BANK0[32]), 

    fputs@fp	PTR struct _IO_FILE size(2) Largest target is 7
		 -> sprintf@f(BANK0[6]), 

    fputc@fp.buffer	PTR unsigned char  size(2) Largest target is 23
		 -> buffer1(BANK0[23]), 

    fputc@fp	PTR struct _IO_FILE size(2) Largest target is 7
		 -> sprintf@f(BANK0[6]), 

    vfprintf@ap	PTR PTR void  size(2) Largest target is 2
		 -> sprintf@ap(BANK0[2]), 

    vfprintf@fp	PTR struct _IO_FILE size(2) Largest target is 7
		 -> sprintf@f(BANK0[6]), 

    vfprintf@fmt	PTR const unsigned char  size(2) Largest target is 3
		 -> STR_4(CODE[3]), STR_3(CODE[3]), STR_2(CODE[3]), STR_1(CODE[3]), 

    vfprintf@cfmt	PTR unsigned char  size(2) Largest target is 3
		 -> STR_4(CODE[3]), STR_3(CODE[3]), STR_2(CODE[3]), STR_1(CODE[3]), 

    vfpfcnvrt@fp	PTR struct _IO_FILE size(2) Largest target is 7
		 -> sprintf@f(BANK0[6]), 

    vfpfcnvrt@ap	PTR PTR void  size(2) Largest target is 2
		 -> sprintf@ap(BANK0[2]), 

    vfpfcnvrt@fmt	PTR PTR unsigned char  size(2) Largest target is 2
		 -> vfprintf@cfmt(COMRAM[2]), 

    dtoa@fp	PTR struct _IO_FILE size(2) Largest target is 7
		 -> sprintf@f(BANK0[6]), 

    pad@fp	PTR struct _IO_FILE size(2) Largest target is 7
		 -> sprintf@f(BANK0[6]), 

    pad@buf	PTR unsigned char  size(2) Largest target is 32
		 -> dbuf(BANK0[32]), 

    sprintf@fmt	PTR const unsigned char  size(2) Largest target is 3
		 -> STR_4(CODE[3]), STR_3(CODE[3]), STR_2(CODE[3]), STR_1(CODE[3]), 

    sprintf@s	PTR unsigned char  size(2) Largest target is 23
		 -> buffer1(BANK0[23]), 

    sprintf@ap	PTR void [1] size(2) Largest target is 2
		 -> ?_sprintf(COMRAM[2]), 

    S985_IO_FILE$buffer	PTR unsigned char  size(2) Largest target is 23
		 -> buffer1(BANK0[23]), 

    f.buffer	PTR unsigned char  size(2) Largest target is 23
		 -> buffer1(BANK0[23]), 

    putrsXLCD@buffer	PTR const unsigned char  size(2) Largest target is 23
		 -> STR_5(CODE[16]), buffer1(BANK0[23]), 

    LCD_WriteChr_CGRAM@buffer	PTR const unsigned char  size(2) Largest target is 9
		 -> personajeI(CODE[8]), personajeD(CODE[8]), personaje(CODE[9]), 


Critical Paths under _main in COMRAM

    _cancion1->_silencio
    _tocar_nota->___fltol
    _sprintf->_vfprintf
    _vfprintf->_vfpfcnvrt
    _vfpfcnvrt->_dtoa
    _dtoa->_pad
    _pad->_fputs
    _fputs->_fputc
    _abs->___aomod
    _silencio->___fltol
    ___fltol->___fladd
    ___flsub->___fladd
    ___fladd->___fldiv
    ___fldiv->___flmul
    _putrsXLCD->_WriteDataXLCD
    _leerADC->___awdiv
    ___flmul->___xxtofl
    ___fleq->___wmul
    _LCD_gotoXY->_leerADC
    _LCD_WriteChr_CGRAM->_SetCGRamAddr
    _LCD_Init->_OpenXLCD
    _OpenXLCD->_SetDDRamAddr

Critical Paths under _main in BANK0

    _main->_cancion1
    _cancion1->_tocar_nota

Critical Paths under _main in BANK1

    None.

Critical Paths under _main in BANK2

    None.

Critical Paths under _main in BANK3

    None.

Critical Paths under _main in BANK4

    None.

Critical Paths under _main in BANK5

    None.

Critical Paths under _main in BANK6

    None.

Critical Paths under _main in BANK7

    None.

Call Graph Tables:

 ---------------------------------------------------------------------------------
 (Depth) Function   	        Calls       Base Space   Used Autos Params    Refs
 ---------------------------------------------------------------------------------
 (0) _main                                                 6     6      0   53933
                                             19 BANK0      4     4      0
                           _LCD_Init
                 _LCD_WriteChr_CGRAM
                       _WriteCmdXLCD
                           _cancion1
                            _confADC
                             _confT0
                          _putrsXLCD
 ---------------------------------------------------------------------------------
 (1) _confT0                                               0     0      0       0
 ---------------------------------------------------------------------------------
 (1) _confADC                                              0     0      0       0
 ---------------------------------------------------------------------------------
 (1) _cancion1                                             7     7      0   52604
                                             12 BANK0      7     7      0
                         _LCD_gotoXY
                       _WriteCmdXLCD
                      _WriteDataXLCD
                            ___awdiv
                            ___fladd
                            ___fldiv
                             ___fleq
                             ___flge
                            ___flmul
                            ___fltol
                             ___wmul
                           ___xxtofl
                            _leerADC
                          _putrsXLCD
                           _silencio
                            _sprintf
                         _tocar_nota
 ---------------------------------------------------------------------------------
 (2) _tocar_nota                                          13     7      6   10772
                                             90 COMRAM     1     1      0
                                              0 BANK0     12     6      6
                            ___fldiv
                            ___flmul (ARG)
                            ___flsub
                            ___fltol
                             ___wmul (ARG)
                           ___xxtofl
 ---------------------------------------------------------------------------------
 (2) _sprintf                                             16    10      6    6912
                                             87 COMRAM     6     0      6
                                              0 BANK0      8     8      0
                           _vfprintf
 ---------------------------------------------------------------------------------
 (3) _vfprintf                                             8     2      6    6105
                                             79 COMRAM     8     2      6
                          _vfpfcnvrt
 ---------------------------------------------------------------------------------
 (4) _vfpfcnvrt                                           42    36      6    5751
                                             63 COMRAM    16    10      6
                               _dtoa
                              _fputc
 ---------------------------------------------------------------------------------
 (5) _dtoa                                                36    26     10    4358
                                             27 COMRAM    36    26     10
                            ___aodiv
                            ___aomod
                                _abs
                                _pad
 ---------------------------------------------------------------------------------
 (6) _pad                                                 11     5      6    2709
                                             16 COMRAM    11     5      6
                              _fputc
                              _fputs
                             _strlen
 ---------------------------------------------------------------------------------
 (7) _strlen                                               4     2      2     166
                                              0 COMRAM     4     2      2
 ---------------------------------------------------------------------------------
 (7) _fputs                                                7     3      4    1235
                                              9 COMRAM     7     3      4
                              _fputc
 ---------------------------------------------------------------------------------
 (5) _fputc                                                9     5      4     834
                                              0 COMRAM     9     5      4
                              _putch
 ---------------------------------------------------------------------------------
 (6) _putch                                                1     1      0       0
 ---------------------------------------------------------------------------------
 (6) _abs                                                  4     2      2     142
                                             18 COMRAM     4     2      2
                            ___aomod (ARG)
 ---------------------------------------------------------------------------------
 (6) ___aomod                                             18     2     16     448
                                              0 COMRAM    18     2     16
 ---------------------------------------------------------------------------------
 (6) ___aodiv                                             26    10     16     452
                                              0 COMRAM    26    10     16
 ---------------------------------------------------------------------------------
 (2) _silencio                                            11     5      6   10772
                                             90 COMRAM     5     5      0
                                              0 BANK0      6     0      6
                            ___fldiv
                            ___flmul (ARG)
                            ___flsub
                            ___fltol
                             ___wmul (ARG)
                           ___xxtofl
 ---------------------------------------------------------------------------------
 (3) ___xxtofl                                            14    10      4    1690
                                              0 COMRAM    14    10      4
 ---------------------------------------------------------------------------------
 (3) ___fltol                                             10     6      4    1293
                                             80 COMRAM    10     6      4
                            ___fladd (ARG)
                            ___fldiv (ARG)
                            ___flmul (ARG)
                             ___wmul (ARG)
                           ___xxtofl (ARG)
 ---------------------------------------------------------------------------------
 (3) ___flsub                                              8     0      8    3953
                                             80 COMRAM     8     0      8
                            ___fladd
                            ___fldiv (ARG)
 ---------------------------------------------------------------------------------
 (4) ___fladd                                             16     8      8    3478
                                             64 COMRAM    16     8      8
                            ___fldiv (ARG)
                            ___flmul (ARG)
                             ___wmul (ARG)
                           ___xxtofl (ARG)
 ---------------------------------------------------------------------------------
 (3) ___fldiv                                             25    17      8    3375
                                             39 COMRAM    25    17      8
                            ___flmul (ARG)
                             ___wmul (ARG)
                           ___xxtofl (ARG)
 ---------------------------------------------------------------------------------
 (1) _putrsXLCD                                            2     0      2     469
                                              1 COMRAM     2     0      2
                           _BusyXLCD
                      _WriteDataXLCD
 ---------------------------------------------------------------------------------
 (2) _leerADC                                             10     8      2    1736
                                              8 COMRAM    10     8      2
                            ___awdiv
 ---------------------------------------------------------------------------------
 (3) ___awdiv                                              8     4      4    1060
                                              0 COMRAM     8     4      4
 ---------------------------------------------------------------------------------
 (2) ___wmul                                               6     2      4    3291
                                              0 COMRAM     6     2      4
 ---------------------------------------------------------------------------------
 (2) ___flmul                                             25    17      8    3416
                                             14 COMRAM    25    17      8
                             ___wmul (ARG)
                           ___xxtofl (ARG)
 ---------------------------------------------------------------------------------
 (2) ___flge                                              12     4      8     790
                                              0 COMRAM    12     4      8
 ---------------------------------------------------------------------------------
 (2) ___fleq                                              12     4      8     950
                                              6 COMRAM    12     4      8
                             ___wmul (ARG)
 ---------------------------------------------------------------------------------
 (2) _LCD_gotoXY                                           4     0      4    1934
                                             18 COMRAM     4     0      4
                       _WriteCmdXLCD
                            _leerADC (ARG)
 ---------------------------------------------------------------------------------
 (1) _LCD_WriteChr_CGRAM                                   4     1      3     636
                                              4 COMRAM     4     1      3
                       _SetCGRamAddr
                      _WriteDataXLCD
 ---------------------------------------------------------------------------------
 (2) _WriteDataXLCD                                        1     1      0      44
                                              0 COMRAM     1     1      0
                           _BusyXLCD
                      _DelayFor18TCY
 ---------------------------------------------------------------------------------
 (2) _SetCGRamAddr                                         4     4      0      44
                                              0 COMRAM     4     4      0
                           _BusyXLCD
 ---------------------------------------------------------------------------------
 (1) _LCD_Init                                             0     0      0     154
                           _BusyXLCD
                           _OpenXLCD
                       _WriteCmdXLCD
 ---------------------------------------------------------------------------------
 (2) _OpenXLCD                                             1     1      0     110
                                              4 COMRAM     1     1      0
                           _BusyXLCD
                       _DelayPORXLCD
                       _SetDDRamAddr
                       _WriteCmdXLCD
 ---------------------------------------------------------------------------------
 (2) _WriteCmdXLCD                                         1     1      0      44
                                              0 COMRAM     1     1      0
                      _DelayFor18TCY
 ---------------------------------------------------------------------------------
 (3) _SetDDRamAddr                                         4     4      0      44
                                              0 COMRAM     4     4      0
                      _DelayFor18TCY
 ---------------------------------------------------------------------------------
 (3) _DelayPORXLCD                                         1     1      0       0
                                              0 COMRAM     1     1      0
 ---------------------------------------------------------------------------------
 (3) _BusyXLCD                                             0     0      0       0
                      _DelayFor18TCY
 ---------------------------------------------------------------------------------
 (3) _DelayFor18TCY                                        0     0      0       0
 ---------------------------------------------------------------------------------
 Estimated maximum stack depth 7
 ---------------------------------------------------------------------------------

 Call Graph Graphs:

 _main (ROOT)
   _LCD_Init
     _BusyXLCD
       _DelayFor18TCY
     _OpenXLCD
       _BusyXLCD
       _DelayPORXLCD
       _SetDDRamAddr
         _DelayFor18TCY
       _WriteCmdXLCD
         _DelayFor18TCY
     _WriteCmdXLCD
   _LCD_WriteChr_CGRAM
     _SetCGRamAddr
       _BusyXLCD
     _WriteDataXLCD
       _BusyXLCD
       _DelayFor18TCY
   _WriteCmdXLCD
   _cancion1
     _LCD_gotoXY
       _WriteCmdXLCD
       _leerADC (ARG)
         ___awdiv
     _WriteCmdXLCD
     _WriteDataXLCD
     ___awdiv
     ___fladd
       ___fldiv (ARG)
         ___flmul (ARG)
           ___wmul (ARG)
           ___xxtofl (ARG)
         ___wmul (ARG)
         ___xxtofl (ARG)
       ___flmul (ARG)
       ___wmul (ARG)
       ___xxtofl (ARG)
     ___fldiv
     ___fleq
       ___wmul (ARG)
     ___flge
     ___flmul
     ___fltol
       ___fladd (ARG)
       ___fldiv (ARG)
       ___flmul (ARG)
       ___wmul (ARG)
       ___xxtofl (ARG)
     ___wmul
     ___xxtofl
     _leerADC
     _putrsXLCD
       _BusyXLCD
       _WriteDataXLCD
     _silencio
       ___fldiv
       ___flmul (ARG)
       ___flsub (ARG)
         ___fladd
         ___fldiv (ARG)
       ___fltol (ARG)
       ___wmul (ARG)
       ___xxtofl (ARG)
     _sprintf
       _vfprintf
         _vfpfcnvrt
           _dtoa
             ___aodiv
             ___aomod
             _abs
               ___aomod (ARG)
             _pad
               _fputc
                 _putch
               _fputs
                 _fputc
               _strlen
           _fputc
     _tocar_nota
       ___fldiv
       ___flmul (ARG)
       ___flsub (ARG)
       ___fltol (ARG)
       ___wmul (ARG)
       ___xxtofl (ARG)
   _confADC
   _confT0
   _putrsXLCD

 Address spaces:
Name               Size   Autos  Total    Cost      Usage
BIGRAM             7FF      0     210      21       25.8%
EEDATA             100      0       0       0        0.0%
BITBANK7           100      0       0      18        0.0%
BANK7              100      0       0      19        0.0%
BITBANK6           100      0       0      16        0.0%
BANK6              100      0       0      17        0.0%
BITBANK5           100      0       0      14        0.0%
BANK5              100      0       0      15        0.0%
BITBANK4           100      0       0      12        0.0%
BANK4              100      0       0      13        0.0%
BITBANK3           100      0       0      10        0.0%
BANK3              100      0       0      11        0.0%
BITBANK2           100      0       0       8        0.0%
BANK2              100      0       0       9        0.0%
BITBANK1           100      0       0       6        0.0%
BANK1              100      0       0       7        0.0%
BITBANK0            A0      0       0       4        0.0%
BANK0               A0     17      83       5       81.9%
BITCOMRAM           5F      0       0       0        0.0%
COMRAM              5F     5F      5F       1      100.0%
BITSFR               0      0       0     200        0.0%
SFR                  0      0       0     200        0.0%
STACK                0      0       0       2        0.0%
NULL                 0      0       0       0        0.0%
ABS                  0      0      E2      20        0.0%
DATA                 0      0     2F2       3        0.0%
CODE                 0      0       0       0        0.0%


Microchip Technology PIC18 Macro Assembler V2.32 build 20210201212658 
Symbol Table                                                                                   Mon Nov 22 11:56:27 2021

               ___fldiv@aexp 0040                 ___fldiv@bexp 003F                            _a 0084  
                          _b 0082                            _f 008C                            _i 0086  
                          _k 00DD                            _l 00DB                            _s 0080  
               ___fldiv@sign 0038                           l25 4154                           l41 40BC  
                         l28 418C                           l36 40EC                           l65 37C6  
                         l74 3D48                           l86 4050                           l95 3CD6  
                         _GO 007E11                           l98 3E5E                 ___awdiv@sign 0006  
        ___wmul@multiplicand 0003                          l110 3F7C                          l111 3F8E  
                        l201 2FFC                          l210 3144                          l202 301C  
                        l107 3F02                          l220 31E6                          l204 302A  
                        l213 3184                          l206 3050                          l215 3192  
                        l223 416A                          l232 3B72                          l216 31B2  
                        l218 31C0                          l410 336E                          l235 3BB6  
                        l229 417C                          l423 34D2                          l280 4114  
                        l196 2FAE                          l268 19DC                          l527 3B02  
                        l199 2FEE                          l296 413A                          l561 3696  
                        l555 3C60                          l566 36DC                          l910 1F62  
                        l920 21BE                          l824 1BCC                          l841 1CE6  
                        l833 1E9C                          l825 1BBA                          l593 35D8  
                        l914 22C6                          l850 1DB6                          l826 1B80  
                        l851 1DA4                          l917 2158                          l927 2288  
                        l919 21D0                          l951 2D5E                          l880 24C0  
                        l866 3F48                          l954 2EBA                          l891 257E  
                        l883 2484                          l892 256C                          l965 2E52  
                        l878 2660                          l958 2DF6                          l974 3EB0  
                        l889 2506                  ?_LCD_gotoXY 0013                          _abs 3FD4  
                        _pad 397A                          _vel 00E1        __size_of_WriteCmdXLCD 003E  
                        wreg 000FE8                 ___flmul@aexp 0020                 ___flmul@bexp 0021  
               ___flmul@sign 001B                 ___flmul@temp 0026                 ___flmul@prod 0022  
               ___fltol@exp1 005A                         l1001 39C0                         l1004 3A02  
                       l1012 2702                         l1006 3A3E                         l1014 270A  
                       l1032 2942                         l1050 400A                         ?_abs 0013  
                       l1053 4012                         l1045 3DA2                         l1046 3DAA  
                       l1039 2D06                         l3000 1C48                         l1065 3978  
                       l1073 3FD2                         l3010 1CB4                         l3002 1C4A  
                       l1082 4086                         l3020 1D0C                         l3012 1CB6  
                       l3004 1C54                         l1076 4194                         l3030 1D3A  
                       l3014 1CC6                         l3006 1C5A                         l3102 2C64  
                       l3200 3E54                         l3032 1D48                         l3024 1D20  
                       l3040 1D66                         l3008 1C80                         l3016 1CD6  
                       l3120 2CF4                         l3104 2C88                         l3112 2CB6  
                       l4000 1278                         l3202 3E58                         l3130 4016  
                       l3210 22E2                         l3034 1D50                         l3026 1D2A  
                       l3018 1CFC                         l3042 1D74                         l3114 2CC4  
                       l3106 2C96                         l4010 14E0                         l4002 12F0  
                       l3140 4030                         l3132 4026                         l3300 2516  
                       l3220 2316                         l3212 22E4                         l3052 1DC6  
                       l3060 1E1C                         l3044 1D78                         l3036 1D54  
                       l3028 1D38                         l3108 2CAA                         l4012 14E8  
                       l4004 132C                         l4020 1552                         l3126 417E  
                       l3150 404A                         l3142 4034                         l3134 4028  
                       l3302 2524                         l3230 2348                         l3214 22F4  
                       l3222 231E                         l3206 22C8                         l3070 1E6E  
                       l3062 1E2C                         l3054 1DD2                         l3046 1D86  
                       l3038 1D64                         l3118 2CD0                         l4030 15E0  
                       l4022 15A4                         l4014 151A                         l4006 13E0  
                       l3144 4040                         l3136 402A                         l3160 3ED8  
                       l3312 258E                         l3320 25D6                         l3304 2528  
                       l3240 237C                         l3232 234A                         l3224 232E  
                       l3216 2304                         l3208 22D4                         l3080 1E8C  
                       l3072 1E74                         l3064 1E3C                         l3056 1DE0  
                       l3048 1D9C                         l3400 34FE                         l4040 1656  
                       l4032 160A                         l4024 15AA                         l4016 1520  
                       l4008 14D4                         l3146 4044                         l3138 402E  
                       l3170 3EE6                         l3162 3EDA                         l3154 3EB4  
                       l3330 2640                         l3322 25F0                         l3314 259A  
                       l3306 2536                         l3250 23C2                         l3234 235A  
                       l3242 2384                         l3226 2334                         l3218 2314  
                       l3074 1E76                         l3066 1E5C                         l3058 1E1A  
                       l3410 354C                         l3402 3528                         l3090 2B98  
                       l4050 174E                         l4042 167C                         l4034 161A  
                       l4026 15BA                         l4018 153C                         l3148 4046  
                       l3500 3C64                         l3172 3EF2                         l3164 3EDC  
                       l3156 3EB4                         l3332 264E                         l3324 2606  
                       l3316 25A8                         l3308 2564                         l3260 23EA  
                       l3252 23C6                         l3244 2394                         l3236 236A  
                       l3228 233A                         l3076 1E7C                         l3068 1E60  
                       l3420 3578                         l3404 352A                         l2700 32A4  
                       l3092 2B9C                         l3084 2B54                         l4060 193C  
                       l4052 1802                         l4044 168E                         l4036 162E  
                       l4028 15DA                         l3190 3E3C                         l3182 3E08  
                       l3510 3CA8                         l3502 3C64                         l3174 3EF6  
                       l3166 3EE0                         l3158 3EC8                         l3350 3A40  
                       l3334 2654                         l3326 2620                         l3318 25D2  
                       l3270 2438                         l3246 23AA                         l3238 237A  
                       l3078 1E8A                         l3430 35A8                         l3406 353A  
                       l2710 3318                         l2702 32B6                         l3094 2BC0  
                       l3086 2B78                         l4070 1986                         l4062 1942  
                       l4054 18F6                         l4046 169A                         l4038 164A  
                       l4150 37C8                         l3192 3E3E                         l3184 3E34  
                       l3520 3CC8                         l3512 3CAE                         l3504 3C78  
                       l3176 3EF8                         l3168 3EE2                         l3360 3A6C  
                       l3352 3A44                         l3336 2656                         l3328 263C  
                       l3280 2482                         l3272 2448                         l3264 23FE  
                       l3248 23BA                         l3256 23DA                         l3344 3F04  
                       l3432 35B8                         l3416 3564                         l3408 353E  
                       l3440 2D1A                         l2704 32E4                         l2712 331E  
                       l2720 3370                         l2800 2724                         l3096 2BE4  
                       l3088 2B86                         l3600 2FD0                         l4080 19B0  
                       l4072 198E                         l4064 195E                         l4056 1902  
                       l4048 1712                         l4160 37FA                         l4152 37D6  
                       l3194 3E42                         l3186 3E36                         l3530 36E8  
                       l3522 3CCA                         l3514 3CB0                         l3506 3CA4  
                       l3178 3EFC                         l3370 3A9A                         l3362 3A74  
                       l3354 3A52                         l3290 24D0                         l3282 248E  
                       l3274 2450                         l3266 2418                         l3258 23EA  
                       l3346 3F14                         l3434 35C8                         l3426 358C  
                       l3418 356E                         l3450 2D98                         l3442 2D28  
                       l3610 3052                         l2714 332E                         l2706 3304  
                       l2730 33B4                         l2722 3374                         l2650 38DE  
                       l2810 274E                         l2802 2732                         l3098 2C2C  
                       l3602 2FD2                         l4074 1992                         l4058 190A  
                       l4066 1970                         l4082 19CC                         l4170 384A  
                       l4162 380A                         l4154 37DA                         l3196 3E4E  
                       l3188 3E38                         l3540 36F2                         l3532 36EA  
                       l4084 40EE                         l3524 3CD0                         l3516 3CB6  
                       l3508 3CA6                         l3700 1FAC                         l3380 3AD4  
                       l3372 3AA2                         l3364 3A78                         l3356 3A5A  
                       l3292 24E6                         l3284 24AC                         l3276 2460  
                       l3268 2428                         l2900 1A44                         l3428 3598  
                       l3460 2DEC                         l3452 2DA0                         l3444 2D6E  
                       l3620 3168                         l3612 3136                         l2716 334E  
                       l2708 3306                         l2740 341C                         l2732 33D4  
                       l2724 3382                         l2652 38FC                         l2644 38B0  
                       l2660 3F9C                         l2820 285A                         l2812 27D0  
                       l2804 2738                         l3604 3000                         l4076 19A8  
                       l4068 1976                         l4180 388A                         l4172 385A  
                       l4164 381A                         l4156 37F0                         l3198 3E52  
                       l3550 370A                         l3542 36F4                         l3534 36EC  
                       l4086 40F4                         l3518 3CC2                         l3710 1FFE  
                       l3702 1FC2                         l3390 3AFA                         l3382 3AD6  
                       l3374 3AB0                         l3366 3A80                         l3358 3A5E  
                       l3630 3B80                         l3294 24EC                         l3286 24AE  
                       l3278 2474                         l2910 1A72                         l2902 1A4A  
                       l3470 2E62                         l3462 2E28                         l3454 2DAC  
                       l3446 2D84                         l3438 2D0A                         l3622 3196  
                       l3614 3152                         l2750 3492                         l2742 344A  
                       l2734 33F2                         l2726 33A2                         l2654 3932  
                       l2646 38C2                         l2662 3FAE                         l2670 4062  
                       l2830 28CE                         l2822 2878                         l2814 27D6  
                       l2806 2740                         l3606 302C                         l4078 19AC  
                       l4174 386A                         l4182 3894                         l4166 382A  
                       l4158 37F4                         l3560 3744                         l3552 3710  
                       l3544 36F8                         l3536 36EE                         l3528 36E0  
                       l4088 4108                         l3720 2044                         l3712 200C  
                       l3704 1FCE                         l3384 3ADC                         l3376 3AB6  
                       l3368 3A92                         l3632 3B92                         l3296 24F6  
                       l3288 24BE                         l2920 1AA6                         l2912 1A74  
                       l2904 1A5C                         l3480 2EAA                         l3472 2E66  
                       l3464 2E34                         l3456 2DDE                         l3624 31C2  
                       l3616 315E                         l2680 31FA                         l2752 34B2  
                       l2744 346A                         l2736 33FA                         l2728 33A6  
                       l2648 38D4                         l2664 3FB2                         l2672 407A  
                       l2760 399E                         l2840 290A                         l2832 28DE  
                       l2824 2892                         l2816 27DC                         l2808 2748  
                       l3640 3E72                         l3608 3032                         l4176 386E  
                       l4168 3844                         l2850 3F52                         l3570 378C  
                       l3562 3758                         l3554 3716                         l3546 36FE  
                       l3538 36F0                         l3810 3656                         l3802 35DA  
                       l3730 20B2                         l3722 205E                         l3714 2018  
                       l3706 1FE6                         l3650 4116                         l3378 3ACC  
                       l3386 3AE2                         l3634 3BAE                         l3298 2504  
                       l2930 1AE2                         l2914 1A84                         l2922 1AAE  
                       l2906 1A5E                         l3394 34D4                         l3474 2E8A  
                       l3466 2E42                         l3458 2DE0                         l3618 3166  
                       l3626 31C8                         l2690 3250                         l2682 321A  
                       l2746 347C                         l2738 340E                         l2658 3F90  
                       l2666 4052                         l2770 39E4                         l2762 39AC  
                       l2834 28E4                         l2842 291A                         l2826 28AC  
                       l2818 2840                         l3490 3D86                         l3642 3E7A  
                       l4178 387C                         l2860 3F72                         l2852 3F58  
                       l3572 3792                         l3564 375E                         l3556 372A  
                       l3548 3704                         l3492 40BE                         l3820 36DA  
                       l3812 3664                         l3804 3608                         l3740 2148  
                       l3732 20DC                         l3724 206E                         l3716 2028  
                       l3708 1FF2                         l3660 1EB8                         l3652 4132  
                       l3388 3AF2                         l3628 3B04                         l2940 1AF6  
                       l2932 1AE6                         l2924 1ABE                         l2916 1A94  
                       l2908 1A64                         l3396 34EA                         l3476 2E9A  
                       l3468 2E60                         l2692 325C                         l2684 321E  
                       l2676 31E8                         l2748 3482                         l2780 3FEE  
                       l2668 405E                         l2772 3A12                         l2764 39B8  
                       l2756 397A                         l2836 28F6                         l2828 28BC  
                       l3484 3D4A                         l3644 3E82                         l3900 0C24  
                       l2782 413C                         l2870 3F7E                         l2862 3F74  
                       l2854 3F66                         l2846 3F4A                         l3574 37A6  
                       l3566 3772                         l3558 373E                         l3494 40D8  
                       l3814 3676                         l3806 3618                         l3750 2188  
                       l3742 2156                         l3734 2112                         l3726 208A  
                       l3718 2034                         l3670 1EF0                         l3662 1EBA  
                       l3590 3D18                         l3582 3CD8                         l2950 1B0A  
                       l2942 1AFA                         l2934 1AEA                         l2926 1AD0  
                       l2918 1AA4                         l3478 2EA8                         l2694 327A  
                       l2686 322C                         l2678 31EC                         l2774 3A26  
                       l2766 39CC                         l2758 398A                         l2838 2902  
                       l2790 26CA                         l3486 3D52                         l3646 3E9E  
                       l3638 3E60                         l3902 0C2C                         l3910 0C96  
                       ?_pad 0011                         l2872 3F82                         l2864 3F76  
                       l2856 3F68                         l2848 3F4E                         l3576 37AC  
                       l3568 3778                         l3840 40AC                         l3824 4088  
                       l3496 40E4                         l3816 3684                         l3808 3646  
                       l3760 21FA                         l3752 21B6                         l3744 2168  
                       l3736 2120                         l3728 2096                         l3680 1F1C  
                       l3672 1F00                         l3664 1ECA                         l3656 1E9E  
                       l3584 3CDC                         l2952 1B0E                         l2944 1AFE  
                       l2936 1AEE                         l2928 1ADE                         l2960 1B1E  
                       l2696 3282                         l2688 324C                         l2768 39E0  
                       l2792 26DA                         l2784 2662                         l3488 3D60  
                       l3592 2EBC                         l3920 0D24                         l3912 0CE8  
                       l3904 0C5E                         l2874 3F88                         l2858 3F6C  
                       l3578 37C0                         l3834 4096                         l3826 4088  
                       l3818 36D4                         l3770 2270                         l3762 2224  
                       l3746 2176                         l3738 213E                         l3690 1F72  
                       l3682 1F2C                         l3674 1F06                         l3666 1EDA  
                       l3658 1EAA                         l3586 3CF0                         l2970 1B8E  
                       l2962 1B22                         l2954 1B12                         l2946 1B02  
                       l2938 1AF2                         l2890 1A0A                         l2882 19DE  
                       l2698 3296                         l2778 3FD4                         l2794 26DC  
                       l2786 2682                         l3594 2FA0                         l3930 0D9A  
                       l3922 0D4E                         l3914 0CEE                         l3906 0C64  
                       l3850 082E                         l3842 4156                         l2876 3F8A  
                       l3836 40A6                         l3828 4092                         l3772 228C  
                       l3780 22B2                         l3756 21E0                         l3764 2228  
                       l3748 217A                         l3692 1F82                         l3684 1F3C  
                       l3676 1F0C                         l3668 1EEA                         l3588 3D14  
                       l2980 1BB8                         l2972 1B9A                         l2964 1B4C  
                       l2956 1B16                         l2948 1B06                         l2892 1A1A  
                       l2884 19EA                         l2796 26F6                         l2788 26AA  
                       l3596 2FBC                         l3940 0E92                         l3932 0DC0  
                       l3924 0D5E                         l3916 0CFE                         l3908 0C80  
                       l3860 0856                         l3852 0832                         l3844 4160  
                       l2878 3F8C                         l3838 40AA                         l3790 3BF6  
                       l3782 22B6                         l3774 229C                         l3766 2242  
                       l3758 21EC                         l3686 1F4C                         l3678 1F1A  
                       l2990 1C0E                         l2982 1BDA                         l2974 1B9E  
                       l2966 1B68                         l2958 1B1A                         l2894 1A2A  
                       l2886 19F8                         l2798 2712                         l3598 2FC8  
                       l3950 1080                         l3942 0F46                         l3934 0DD2  
                       l3926 0D72                         l3918 0D1E                         l3870 08DC  
                       l3862 0864                         l3846 4168                         l3792 3C24  
                       l3776 22AA                         l3768 2256                         l3696 1F96  
                       l3688 1F52                         l2992 1C1C                         l2984 1BEA  
                       l2976 1BAC                         l2968 1B78                         l2896 1A2C  
                       l2888 19FA                         l3960 10CA                         l3952 1086  
                       l3944 103A                         l3936 0DDE                         l3928 0D8E  
                       l3880 0950                         l3872 08FC                         l3864 0874  
                       l3848 416C                         l3794 3C34                         l3786 3BB8  
                       l3778 22AC                         l3698 1FA2                         l2994 1C2A  
                       l2978 1BAE                         l2898 1A34                         l3970 1104  
                       l3962 10D0                         l3954 10A2                         l3946 1046  
                       l3938 0E56                         l3890 09BC                         l3882 096C  
                       l3874 0902                         l3866 08C6                         l3858 083A  
                       l3796 3C58                         l3788 3BE6                         l2996 1C36  
                       l2988 1BFE                         l3980 1198                         l3972 1120  
                       l3964 10D6                         l3948 104E                         l3956 10B4  
                       l3892 0A34                         l3884 0978                         l3876 092C  
                       l3868 08CC                         l3798 3C5E                         l2998 1C3A  
                       l3990 120C                         l3982 11B8                         l3974 1130  
                       l3966 10EE                         l3958 10BA                         l3894 0A70  
                       l3886 099E                         l3878 093C                         l3992 1228  
                       l3984 11BE                         l3976 1182                         l3896 0B24  
                       l3888 09B0                         l3968 10F6                         l3994 1234  
                       l3986 11E8                         l3978 1188                         l3898 0C18  
                       l3996 125A                         l3988 11F8                         l3998 126C  
                       _ADON 007E10                         STR_1 082A                         STR_2 082A  
                       STR_3 082A                         STR_4 082A                         STR_5 081A  
                       u3000 1E3C                         u3001 1E38                         u3010 1E5C  
                       u3011 1E58                         u3100 22E2                         u3020 1E6E  
                       u2300 407A                         u3101 22DE                         u3021 1E6A  
                       u2301 4076                         u3110 22F4                         u3030 1E8A  
                       u2310 31FA                         u3111 22F0                         u3031 1E86  
                       u2311 31F6                         u4000 21E0                         u3200 24AC  
                       u3120 2304                         u2320 322C                         u2400 33F2  
                       u3040 2B78                         u4001 21DC                         u3201 24A8  
                       u3121 2300                         u2321 3228                         u2401 33EE  
                       u3041 2B74                         u4010 21FA                         u3210 24D0  
                       u3130 2348                         u2410 341C                         u2250 38C2  
                       u3050 2BC0                         u4011 21F6                         u3211 24CC  
                       u3131 2344                         u2331 3256                         u2411 3418  
                       u2251 38BE                         u3051 2BBC                         u4100 3664  
                       u4020 2242                         u3300 25F0                         u3220 24E6  
                       u3140 235A                         u2340 327A                         u2420 344A  
                       u2260 38D4                         u2500 2694                         u3060 2BE4  
                       u4101 3660                         u4021 223E                         u3301 25EC  
                       u3221 24E2                         u3141 2356                         u2341 3276  
                       u2421 3446                         u2261 38D0                         u3061 2BE0  
                       u4110 3684                         u4030 2270                         u3310 2620  
                       u3230 2504                         u3150 236A                         u2350 32A4  
                       u2430 3492                         u2270 38FC                         u2510 26AA  
                       u3070 2C88                         u4111 3680                         u4031 226C  
                       u3311 261C                         u3231 2500                         u3151 2366  
                       u2351 32A0                         u2431 348E                         u2271 38F8  
                       u2511 26A6                         u3071 2C84                         u3080 3EC8  
                       u4120 36D4                         u4040 22AA                         u3320 264E  
                       u3240 2524                         u3160 23AA                         u3400 351E  
                       u2360 32E4                         u2280 3932                         u2440 398A  
                       u2600 28BC                         u2520 26DA                         u4200 0C18  
                       u3081 3EC4                         u4121 36D0                         u4041 22A6  
                       u3321 264A                         u3241 2520                         u3161 23A6  
                       u2361 32E0                         u2281 392E                         u2441 3986  
                       u2601 28B8                         u2521 26D6                         u4201 0C14  
                       u4130 40BC                         u4050 3BE6                         u3330 3A52  
                       u3250 2536                         u3170 23EA                         u3410 354C  
                       u2370 332E                         u2290 3FD2                         u2450 39AC  
                       u2610 28CE                         u2530 26F6                         u4210 0C5E  
                       u4131 40B8                         u4051 3BE2                         u3331 3A4E  
                       u3251 2532                         u3171 23E6                         u3411 3548  
                       u2371 332A                         u2291 3FCE                         u2451 39A8  
                       u2611 28CA                         u2531 26F2                         u4211 0C5A  
                       u4060 3C24                         u3340 3A6C                         u3260 2564  
                       u3180 2460                         u2700 1A84                         u3420 3560  
                       u3500 2E24                         u2380 3382                         u2460 3A02  
                       u2620 28DE                         u2540 2724                         u4300 1130  
                       u4220 0CE8                         u4140 0856                         u4061 3C20  
                       u3341 3A68                         u3261 2560                         u3181 245C  
                       u2701 1A80                         u3421 355C                         u3405 3514  
                       u3501 2E20                         u2381 337E                         u2461 39FE  
                       u2621 28DA                         u2541 2720                         u4301 112C  
                       u4221 0CE4                         u4141 0852                         u4070 3C58  
                       u3350 3A92                         u3270 257A                         u3190 2482  
                       u2710 1A94                         u3430 3588                         u3510 2E42  
                       u2390 33B4                         u2470 3A12                         u2630 28F6  
                       u2550 2732                         u4310 1182                         u4230 0DC0  
                       u4150 0864                         u3095 3E22                         u4071 3C54  
                       u3351 3A8E                         u3271 2576                         u3191 247E  
                       u2711 1A90                         u3431 3584                         u3511 2E3E  
                       u2391 33B0                         u2471 3A0E                         u2631 28F2  
                       u2551 272E                         u4311 117E                         u4231 0DBC  
                       u4151 0860                         u2640 3F66                         u3600 372A  
                       u4080 3608                         u3360 3AB0                         u3280 258E  
                       u2800 1BDA                         u2720 1AD0                         u3440 35A8  
                       u3520 2E52                         u2480 3FEE                         u2560 285A  
                       u4400 193C                         u4320 125A                         u4240 0DD2  
                       u4160 0874                         u2641 3F62                         u3601 3726  
                       u4081 3604                         u3361 3AAC                         u3281 258A  
                       u2801 1BD6                         u2721 1ACC                         u3441 35A4  
                       u3521 2E4E                         u2481 3FEA                         u2561 2856  
                       u4401 1938                         u4321 1256                         u4241 0DCE  
                       u4161 0870                         u3610 373E                         u4090 3646  
                       u3370 3ACC                         u3290 25A8                         u2810 1BEA  
                       u2730 1ADE                         u2650 19F8                         u3450 35B8  
                       u3530 2E60                         u2570 2878                         u2490 2692  
                       u4410 19A8                         u4330 126C                         u4250 103A  
                       u4170 08C6                         u3611 373A                         u4091 3642  
                       u3371 3AC8                         u3291 25A4                         u2811 1BE6  
                       u2731 1ADA                         u2651 19F4                         u3451 35B4  
                       u3531 2E5C                         u2571 2874                         u2491 268C  
                       u4411 19A4                         u4331 1268                         u4251 1036  
                       u4171 08C2                         u3620 3758                         u3380 3AF2  
                       u3700 3D48                         u2900 1D48                         u2820 1C1C  
                       u2740 1B4C                         u2660 1A0A                         u3540 2E9A  
                       u3460 2D1A                         u2580 2892                         u4420 19CC  
                       u4340 14D4                         u4260 1080                         u4180 099E  
                       u3621 3754                         u3381 3AEE                         u3701 3D44  
                       u2901 1D44                         u2821 1C18                         u2741 1B48  
                       u2661 1A06                         u3541 2E96                         u3461 2D16  
                       u2581 288E                         u4421 19C8                         u4341 14D0  
                       u4261 107C                         u4181 099A                         u3630 3772  
                       u2910 1D64                         u2830 1C2A                         u2750 1B64  
                       u2670 1A1A                         u3390 34EA                         u3550 2EA8  
                       u3470 2D28                         u2590 28AC                         u3710 2FBC  
                       u4430 19DC                         u4350 151A                         u4270 10EE  
                       u4190 09B0                         u3631 376E                         u2911 1D60  
                       u2831 1C26                         u2751 1B5E                         u2671 1A16  
                       u3391 34E6                         u3551 2EA4                         u3471 2D24  
                       u2591 28A8                         u3711 2FB8                         u4431 19D8  
                       u4351 1516                         u4271 10EA                         u4191 09AC  
                       u3640 378C                         u4440 4108                         u2920 1D74  
                       u2840 1C48                         u2760 1B66                         u2680 1A5C  
                       u3480 2D84                         u3560 3DA2                         u3720 2FFC  
                       u4360 15A4                         u4280 1104                         u3641 3788  
                       u4441 4104                         u2921 1D70                         u2841 1C44  
                       u2681 1A58                         u3481 2D80                         u3561 3D9E  
                       u3721 2FF8                         u4361 15A0                         u4281 1100  
                       u3650 37A6                         u3570 40D8                         u2930 1D86  
                       u2850 1C80                         u2770 1B8E                         u2690 1A72  
                       u3490 2DDA                         u3730 302A                         u4370 167C  
                       u4290 1120                         u3651 37A2                         u3571 40D4  
                       u2931 1D82                         u2851 1C7C                         u2771 1B8A  
                       u2691 1A6E                         u3491 2DD6                         u3731 3026  
                       u4371 1678                         u4291 111C                         u4507 3852  
                       u3660 37C0                         u3580 3C78                         u3900 1F2C  
                       u3820 3B56                         u2940 1D9C                         u2860 1CC6  
                       u2780 1BAC                         u3740 3050                         u4380 168E  
                       u3661 37BC                         u3581 3C74                         u3901 1F28  
                       u3821 3B4E                         u2941 1D98                         u2861 1CC2  
                       u2781 1BA8                         u3741 304C                         u4381 168A  
                       u4517 08D4                         u3910 1F3C                         u3814 3B3E  
                       u3670 3CF0                         u2950 1DB2                         u2870 1CFC  
                       u2790 1BCC                         u3750 3152                         u4390 18F6  
                       u4470 387C                         u3911 1F38                         u3815 3B3A  
                       u3671 3CEC                         u2951 1DAE                         u2871 1CF8  
                       u2791 1BC8                         u3751 314E                         u4391 18F2  
                       u4607 11F0                         u4527 090A                         u4471 3878  
                       u3920 1F72                         u3808 3B30                         u3680 3D10  
                       u2960 1DC6                         u2880 1D0C                         u3760 3192  
                       u4480 38A8                         u3921 1F6E                         u2961 1DC2  
                       u2881 1D08                         u3761 318E                         u4617 15B2  
                       u4537 0934                         u4481 38A4                         u3930 1F82  
                       u3850 3B80                         u3690 3D38                         u2970 1DE0  
                       u2890 1D38                         u3770 31C0                         u3595 3C92  
                       u3931 1F7E                         u3851 3B7C                         u2971 1DDC  
                       u2891 1D34                         u3771 31BC                         u4627 15E8  
                       u4547 0CF6                         u3940 20FC                         u3860 1EB8  
                       u3844 3B66                         u2980 1E1A                         u3780 31E6  
                       u3861 1EB4                         u3845 3B62                         u2981 1E16  
                       u3781 31E2                         u4637 1612                         u4557 0D2C  
                       u3950 2156                         u3870 1ECA                         u3838 3B58  
                       u3790 3B2E                         u2990 1E2C                         u3951 2152  
                       u3871 1EC6                         u3791 3B26                         u3687 3D06  
                       u2991 1E28                         u4647 197E                         u4567 0D56  
                       u3960 2176                         u3880 1EDA                         u4657 4184  
                       u3961 2172                         u3945 20F2                         u3881 1ED6  
                       u3697 3D2E                         u4577 10C2                         u4497 3836  
                       u3970 2188                         u3890 1F1A                         u3971 2184  
                       u3891 1F16                         u4587 1190                         u3980 21B6  
                       u3981 21B2                         u4597 11C6                         u3990 21CC  
                       u3991 21C8                         _TMR0 000FD6                         abs@a 0013  
                       _dbuf 008D                         _main 37C8                         _dtoa 2662  
                       _prec 007C                         _nout 0078                         pad@i 0018  
                       pad@p 0015                         fsr1h 000FE2                         fsr2h 000FDA  
                       indf1 000FE7                         indf2 000FDF                         fsr1l 000FE1  
                       pad@w 001A                         fsr2l 000FD9     LCD_WriteChr_CGRAM@Addres 0007  
     __size_of_WriteDataXLCD 0052                         prodh 000FF4                         prodl 000FF3  
                       start 0000              ___fldiv@new_exp 0039                 ___param_bank 000000  
                      ??_abs 0015                        ??_pad 0017                 _WriteCmdXLCD 4014  
           __end_of_LCD_Init 4116     LCD_WriteChr_CGRAM@buffer 0005                ___fltol@sign1 0059  
         _LCD_WriteChr_CGRAM 4088              __end_of___aodiv 3370                ?_SetDDRamAddr 0001  
            __end_of___fladd 1E9E                        ?_main 0001                        ?_dtoa 001C  
            __end_of___aomod 34D4              __end_of___fldiv 2662              __end_of___awdiv 3B04  
            __end_of___flmul 22C8              __end_of___flsub 3F4A              __end_of___fltol 35DA  
              ?_SetCGRamAddr 0001              ___awdiv@divisor 0003              ___awdiv@counter 0005  
               vfpfcnvrt@fmt 0042                        _TMR1H 000FCF                        _TMR1L 000FCE  
                      _PORTD 000F83                        _TRISA 000F92                        _TRISB 000F93  
                      _TRISD 000F95              __end_of_confADC 417E              __end_of_leerADC 3BB8  
        ?_LCD_WriteChr_CGRAM 0005                        _flags 007E                        _fputc 38B0  
                      _fputs 3F90                        pad@fp 0011                        _width 007A  
                      _putch 4194                        main@f 00D9                        dtoa@d 001E  
                      dtoa@i 003E                        dtoa@n 0036                        dtoa@p 0030  
                      dtoa@s 0034                        dtoa@w 0032                        tablat 000FF5  
                      status 000FD8              __end_of_sprintf 3EB2          __size_of_LCD_gotoXY 0030  
       ??_LCD_WriteChr_CGRAM 0008              __initialization 3DAC                  LCD_gotoXY@x 0013  
                LCD_gotoXY@y 0015                 __end_of_main 38B0                 __end_of_dtoa 2944  
           __end_of_BusyXLCD 3F90        __size_of_DelayPORXLCD 0010               ??_SetDDRamAddr 0001  
             ??_SetCGRamAddr 0001             __end_of_OpenXLCD 37C8                       ??_main 00D7  
                     ??_dtoa 0026                __activetblptr 000002                _WriteDataXLCD 3EB2  
                     _ADCON0 000FC2                       _ADCON1 000FC1                       _ADCON2 000FC0  
                     ?_fputc 0001                       ?_fputs 000A                       _ADRESH 000FC4  
                     _ADRESL 000FC3             ___awdiv@dividend 0001                       ?_putch 0001  
            tocar_nota@tfrec 00C6             __end_of_cancion1 19DE             __end_of___xxtofl 2EBC  
               _DelayPORXLCD 417E                 vfprintf@cfmt 0056                       ___flge 35DA  
                     ___fleq 3BB8                    ??___aodiv 0011                    ??___fladd 0049  
                  ??___aomod 0011                       ___wmul 4116                    ??___fldiv 0030  
                  ??___awdiv 0005                    ??___flmul 0017                    ??___flsub 0059  
                  ??___fltol 0055                       _confT0 4156                       _buffer 0060  
                     clear_0 3DF6             ___awdiv@quotient 0007                    ??_confADC 0001  
                     isa$std 000001                       _tiempo 0074                       pad@buf 0013  
                  ??_leerADC 000B               ?_WriteDataXLCD 0001                       _puntos 008A  
                     dtoa@fp 001C                       _strlen 4052                 __pdataBIGRAM 05F0  
                     fputc@c 0001                       fputs@c 000E                       fputs@i 000F  
                     fputs@s 000A             __end_of_silencio 31E8                 __mediumconst 0000  
                     tblptrh 000FF7                       tblptrl 000FF6                       tblptru 000FF8  
                     putch@c 0001             __end_of_vfprintf 3DAC                    ??_sprintf 005E  
                 ___flge@ff1 0001                   ___flge@ff2 0005                 ___xxtofl@arg 000B  
               ___xxtofl@exp 000A                 ___xxtofl@val 0001                   ___fleq@ff1 0007  
                 ___fleq@ff2 000B                   __accesstop 0060      __end_of__initialization 3DFC  
                  ?_LCD_Init 0001                ___rparam_used 000001                   ___fltol@f1 0051  
             __pcstackCOMRAM 0001                 __pidataBANK0 418E                __end_of_fputc 397A  
              __end_of_fputs 3FD4                __end_of_putch 4196                 ??_LCD_gotoXY 0017  
                    ??_fputc 0005                      ??_fputs 000E       __size_of_DelayFor18TCY 001A  
                    ??_putch 0001                   __pbssBANK0 0060                    ?_BusyXLCD 0001  
            WriteCmdXLCD@cmd 0001                   ??_LCD_Init 0006         __end_of_SetDDRamAddr 3E60  
       __end_of_SetCGRamAddr 3CD8                    ?_OpenXLCD 0001           __end_of_LCD_gotoXY 40EE  
                    ?___flge 0001                      ?___fleq 0007            WriteDataXLCD@data 0001  
                    ?___wmul 0001                      ?_confT0 0001              ??_WriteDataXLCD 0001  
                    ?_strlen 0001                    ?_cancion1 0001                    ?___xxtofl 0001  
         __size_of_vfpfcnvrt 01B4           __size_of_putrsXLCD 0072                   ??_BusyXLCD 0001  
                 ??_OpenXLCD 0005                      __Hparam 0000                _cancion1$1331 00D1  
              _cancion1$1332 00D3                      __Lparam 0000                    ?_silencio 00C4  
            __size_of___flge 0104              __size_of___fleq 00AA                      ___aodiv 31E8  
                    ___fladd 19DE                      ___aomod 3370                      ___fldiv 22C8  
                    ___awdiv 3A40                _DelayFor18TCY 413C                      ___flmul 1E9E  
                    ___flsub 3F04                      ___fltol 34D4              __size_of___wmul 0026  
                  ?_vfprintf 0050              __size_of_confT0 0016                 __psmallconst 0800  
                    _cancion 05F0                      __pcinit 3DAC              putrsXLCD@buffer 0002  
                    _confADC 416C                      __ramtop 0800                      __ptext0 37C8  
                    __ptext1 4156                      __ptext2 416C                      __ptext3 082E  
                    __ptext4 2EBC                      __ptext5 3E60                      __ptext6 3D4A  
                    __ptext7 2B54                      __ptext8 2662                      __ptext9 397A  
                    _leerADC 3B04                      _buffer1 00AD                    _T0CONbits 000FD5  
            __size_of_strlen 0036                    _T1CONbits 000FCD                   ??_cancion1 00D0  
               __size_of_abs 0040                 __size_of_pad 00C6                   ??___xxtofl 0005  
                    _tiempo2 0088           tocar_nota@duracion 00C4                      _sprintf 3E60  
       end_of_initialization 3DFC            __end_of_personaje 080A                      fputc@fp 0003  
              __Lmediumconst 0000                      fputs@fp 000C                   _personajeD 0812  
                 _personajeI 080A                   ??_silencio 005B            __end_of_vfpfcnvrt 2D08  
__size_of_LCD_WriteChr_CGRAM 0036               ?_DelayFor18TCY 0001                      postdec1 000FE5  
                    postdec2 000FDD                      postinc0 000FEE                      postinc1 000FE6  
                    postinc2 000FDE                   ??_vfprintf 0056                      strlen@a 0003  
                    strlen@s 0001            __end_of_putrsXLCD 3D4A                    _PORTBbits 000F81  
                 _tocar_nota 2EBC                  ___fladd@grs 0050                ___xxtofl@sign 0009  
                  _TRISDbits 000F95                  ___fldiv@grs 003B                  ___fldiv@rem 0034  
      __size_of_SetDDRamAddr 005A        __size_of_SetCGRamAddr 0076                  ___flmul@grs 001C  
          __size_of_LCD_Init 0028              _tocar_nota$1329 00CA               __end_of___flge 36DE  
             __end_of___fleq 3C62                __pidataBIGRAM 2944                  vfpfcnvrt@ap 0044  
                vfpfcnvrt@fp 0040                  vfpfcnvrt@ll 0048               __end_of___wmul 413C  
             __end_of_confT0 416C                 _SetDDRamAddr 3E06                 _SetCGRamAddr 3C62  
         SetDDRamAddr@DDaddr 0004               __end_of_strlen 4088          start_initialization 3DAC  
                __end_of_abs 4014                  __end_of_pad 3A40            __size_of_BusyXLCD 0046  
            ??_DelayFor18TCY 0001                  vfprintf@fmt 0052            __size_of_OpenXLCD 00EA  
                   ??___flge 0009                     ??___fleq 000F                     ??___wmul 0005  
                   ??_confT0 0001                ?_WriteCmdXLCD 0001                  __pdataBANK0 00DB  
                ?_tocar_nota 00C4                     ??_strlen 0003                    ___fladd@a 0045  
                  ___fladd@b 0041                    ___fldiv@a 002C                    ___fldiv@b 0028  
        LCD_WriteChr_CGRAM@i 0008             silencio@duracion 00C4                    ___flmul@a 0013  
                  ___flmul@b 000F                    ___flsub@a 0055                    ___flsub@b 0051  
              __pcstackBANK0 00C4             ___aodiv@dividend 0001            __size_of_cancion1 11B0  
          __size_of___xxtofl 01B4                    __pnvBANK0 00E1                    _dtoa$1058 002E  
             ??_WriteCmdXLCD 0001                     ?___aodiv 0001                     ?___fladd 0041  
                   ?___aomod 0001                     ?___fldiv 0028                     ?___awdiv 0001  
           ___aodiv@quotient 0013                     ?___flmul 000F                     ?___flsub 0051  
                   ?___fltol 0051            __size_of_silencio 0196                     ?_confADC 0001  
      __end_of_WriteDataXLCD 3F04                     ?_leerADC 0009            __size_of_vfprintf 0062  
                __smallconst 0800                    cancion1@j 00D5                     ?_sprintf 0058  
             __size_of_fputc 00CA               __size_of_fputs 0044               __size_of_putch 0002  
                   _LCD_Init 40EE               ___wmul@product 0005                     _LATDbits 000F8C  
        __size_of_tocar_nota 0196                ?_DelayPORXLCD 0001                    _personaje 0801  
            OpenXLCD@lcdtype 0005                    _vfpfcnvrt 2B54                   _ADCON0bits 000FC2  
          ___wmul@multiplier 0001                _silencio$1330 005C                    _putrsXLCD 3CD8  
                  copy_data0 3DC0                    copy_data1 3DE4                     _BusyXLCD 3F4A  
             ??_DelayPORXLCD 0001                     _OpenXLCD 36DE   __end_of_LCD_WriteChr_CGRAM 40BE  
                   __Hrparam 0000                   vfprintf@ap 0054                     __Lrparam 0000  
                 vfprintf@fp 0050             __size_of___aodiv 0188             __size_of___fladd 04C0  
           __size_of___aomod 0164             __size_of___fldiv 039A             __size_of___awdiv 00C4  
           __size_of___flmul 042A             __size_of___flsub 0046             __size_of___fltol 0106  
                 ?_vfpfcnvrt 0040              ___aodiv@divisor 0009              ___aodiv@counter 0011  
           __size_of_confADC 0012             __size_of_leerADC 00B4                     _cancion1 082E  
                 sprintf@fmt 005A                   ?_putrsXLCD 0002                     ___xxtofl 2D08  
              silencio@tfrec 00C6           SetCGRamAddr@CGaddr 0004                     __ptext10 4052  
                   __ptext11 3F90                     __ptext20 3F04                     __ptext12 38B0  
                   __ptext21 19DE                     __ptext13 4194                     __ptext30 40BE  
                   __ptext22 22C8                     __ptext14 3FD4                     __ptext31 4088  
                   __ptext23 3CD8                     __ptext15 3370                     __ptext40 413C  
                   __ptext32 3EB2                     __ptext24 3B04                     __ptext16 31E8  
                   __ptext33 3C62                     __ptext25 3A40                     __ptext17 3052  
                   __ptext34 40EE                     __ptext26 4116                     __ptext18 2D08  
                   __ptext35 36DE                     __ptext27 1E9E                     __ptext19 34D4  
                   __ptext36 4014                     __ptext28 35DA                     __ptext37 3E06  
                   __ptext29 3BB8                     __ptext38 417E                     __ptext39 3F4A  
       __end_of_WriteCmdXLCD 4052                     _contador 00DF             __size_of_sprintf 0052  
              __size_of_main 00E8                __size_of_dtoa 02E2                     _silencio 3052  
                   isa$xinst 000000          tocar_nota@duracion2 00CE                     _vfprintf 3D4A  
               ??_tocar_nota 005B             ___aomod@dividend 0001                   _LCD_gotoXY 40BE  
                 _INTCONbits 000FF2           __end_of_personajeD 081A           __end_of_personajeI 0812  
                  sprintf@ap 00C4           __end_of_tocar_nota 3052        __end_of_DelayFor18TCY 4156  
             leerADC@digital 000F              ___aomod@divisor 0009                  ??_vfpfcnvrt 0046  
            ___aomod@counter 0011                     sprintf@f 00C6                     sprintf@s 0058  
       __end_of_DelayPORXLCD 418E                  ??_putrsXLCD 0004                ___fladd@signs 004D  
               ___aodiv@sign 0012                 leerADC@canal 0009                 ___fladd@aexp 004E  
               leerADC@final 0011                 ___fladd@bexp 004F                 ___aomod@sign 0012  
