

Microchip MPLAB XC8 Assembler V2.32 build 20210201212658 
                                                                                               Mon Nov 08 12:33:55 2021

Microchip MPLAB XC8 C Compiler v2.32 (Free license) build 20210201212658 Og1 
     1                           	processor	18F4550
     2                           	fnconf	rparam,??,?,0
     3                           	pagewidth 120
     4                           	opt	flic
     5                           	psect	idataBIGRAM,global,class=CODE,delta=1,noexec
     6                           	psect	idataBANK0,global,class=CODE,delta=1,noexec
     7                           	psect	smallconst,global,reloc=2,class=SMALLCONST,delta=1,noexec
     8                           	psect	cinit,global,reloc=2,class=CODE,delta=1
     9                           	psect	bssCOMRAM,global,class=COMRAM,space=1,delta=1,lowdata,noexec
    10                           	psect	bssBANK0,global,class=BANK0,space=1,delta=1,lowdata,noexec
    11                           	psect	dataBANK0,global,class=BANK0,space=1,delta=1,lowdata,noexec
    12                           	psect	dataBIGRAM,global,class=BIGRAM,space=1,delta=1,noexec
    13                           	psect	cstackBANK0,global,class=BANK0,space=1,delta=1,lowdata,noexec
    14                           	psect	cstackCOMRAM,global,class=COMRAM,space=1,delta=1,lowdata,noexec
    15                           	psect	text0,global,reloc=2,class=CODE,delta=1
    16                           	psect	text1,global,reloc=2,class=CODE,delta=1
    17                           	psect	text2,global,reloc=2,class=CODE,delta=1
    18                           	psect	text3,global,reloc=2,class=CODE,delta=1
    19                           	psect	text4,global,reloc=2,class=CODE,delta=1,group=3
    20                           	psect	text5,global,reloc=2,class=CODE,delta=1,group=1
    21                           	psect	text6,global,reloc=2,class=CODE,delta=1,group=1
    22                           	psect	text7,global,reloc=2,class=CODE,delta=1,group=1
    23                           	psect	text8,global,reloc=2,class=CODE,delta=1,group=1
    24                           	psect	text9,global,reloc=2,class=CODE,delta=1,group=3
    25                           	psect	text10,global,reloc=2,class=CODE,delta=1,group=3
    26                           	psect	text11,global,reloc=2,class=CODE,delta=1,group=3
    27                           	psect	text12,global,reloc=2,class=CODE,delta=1,group=3
    28                           	psect	text13,global,reloc=2,class=CODE,delta=1,group=3
    29                           	psect	text14,global,reloc=2,class=CODE,delta=1,group=2
    30                           	psect	text15,global,reloc=2,class=CODE,delta=1,group=2
    31                           	psect	text16,global,reloc=2,class=CODE,delta=1
    32                           	psect	text17,global,reloc=2,class=CODE,delta=1,group=2
    33                           	psect	text18,global,reloc=2,class=CODE,delta=1,group=2
    34                           	psect	text19,global,reloc=2,class=CODE,delta=1,group=2
    35                           	psect	text20,global,reloc=2,class=CODE,delta=1,group=2
    36                           	psect	text21,global,reloc=2,class=CODE,delta=1,group=2
    37                           	psect	text22,global,reloc=2,class=CODE,delta=1,group=2
    38                           	psect	text23,global,reloc=2,class=CODE,delta=1,group=2
    39                           	psect	text24,global,reloc=2,class=CODE,delta=1,group=2
    40                           	psect	text25,global,reloc=2,class=CODE,delta=1
    41                           	psect	text26,global,reloc=2,class=CODE,delta=1
    42                           	psect	text27,global,reloc=2,class=CODE,delta=1
    43                           	psect	text28,global,reloc=2,class=CODE,delta=1
    44                           	psect	text29,global,reloc=2,class=CODE,delta=1
    45                           	psect	text30,global,reloc=2,class=CODE,delta=1
    46                           	psect	intsave_regs,global,class=BIGRAM,space=1,delta=1,noexec
    47                           	psect	rparam,global,class=COMRAM,space=1,delta=1,noexec
    48                           	psect	idloc,global,abs,ovrld,class=IDLOC,space=5,delta=1,noexec
    49                           	psect	config,global,abs,ovrld,class=CONFIG,space=4,delta=1,noexec
    50  0000                     
    51                           ; Version 2.20
    52                           ; Generated 12/02/2020 GMT
    53                           ; 
    54                           ; Copyright © 2020, Microchip Technology Inc. and its subsidiaries ("Microchip")
    55                           ; All rights reserved.
    56                           ; 
    57                           ; This software is developed by Microchip Technology Inc. and its subsidiaries ("Microch
      +                          ip").
    58                           ; 
    59                           ; Redistribution and use in source and binary forms, with or without modification, are
    60                           ; permitted provided that the following conditions are met:
    61                           ; 
    62                           ;     1. Redistributions of source code must retain the above copyright notice, this lis
      +                          t of
    63                           ;        conditions and the following disclaimer.
    64                           ; 
    65                           ;     2. Redistributions in binary form must reproduce the above copyright notice, this 
      +                          list
    66                           ;        of conditions and the following disclaimer in the documentation and/or other
    67                           ;        materials provided with the distribution.
    68                           ; 
    69                           ;     3. Microchip's name may not be used to endorse or promote products derived from th
      +                          is
    70                           ;        software without specific prior written permission.
    71                           ; 
    72                           ; THIS SOFTWARE IS PROVIDED BY MICROCHIP "AS IS" AND ANY EXPRESS OR IMPLIED WARRANTIES,
    73                           ; INCLUDING, BUT NOT LIMITED TO, THE IMPLIED WARRANTIES OF MERCHANTABILITY AND FITNESS F
      +                          OR
    74                           ; PURPOSE ARE DISCLAIMED.  IN NO EVENT SHALL MICROCHIP BE LIABLE FOR ANY DIRECT, INDIREC
      +                          T,
    75                           ; INCIDENTAL, SPECIAL, EXEMPLARY, OR CONSEQUENTIAL DAMAGES (INCLUDING BUT NOT LIMITED TO
    76                           ; PROCUREMENT OF SUBSTITUTE GOODS OR SERVICES; LOSS OF USE, DATA OR PROFITS; OR BUSINESS
    77                           ; INTERRUPTION) HOWSOEVER CAUSED AND ON ANY THEORY OF LIABILITY, WHETHER IN CONTRACT, ST
      +                          RICT
    78                           ; LIABILITY, OR TORT (INCLUDING NEGLIGENCE OR OTHERWISE) ARISING IN ANY WAY OUT OF THE U
      +                          SE OF
    79                           ; THIS SOFTWARE, EVEN IF ADVISED OF THE POSSIBILITY OF SUCH DAMAGE.
    80                           ; 
    81                           ; 
    82                           ; Code-generator required, PIC18F4550 Definitions
    83                           ; 
    84                           ; SFR Addresses
    85  0000                     
    86                           	psect	idataBIGRAM
    87  001E40                     __pidataBIGRAM:
    88                           	callstack 0
    89                           
    90                           ;initializer for _cancion
    91  001E40  0000               	dw	0
    92  001E42  3F80               	dw	16256
    93  001E44  2D0E               	dw	11534
    94  001E46  4042               	dw	16450
    95  001E48  0000               	dw	0
    96  001E4A  3F80               	dw	16256
    97  001E4C  0000               	dw	0
    98  001E4E  3F80               	dw	16256
    99  001E50  2D0E               	dw	11534
   100  001E52  4042               	dw	16450
   101  001E54  0000               	dw	0
   102  001E56  3F80               	dw	16256
   103  001E58  0000               	dw	0
   104  001E5A  3F80               	dw	16256
   105  001E5C  2D0E               	dw	11534
   106  001E5E  4042               	dw	16450
   107  001E60  0000               	dw	0
   108  001E62  3F80               	dw	16256
   109  001E64  0000               	dw	0
   110  001E66  3F40               	dw	16192
   111  001E68  7AE1               	dw	31457
   112  001E6A  4074               	dw	16500
   113  001E6C  0000               	dw	0
   114  001E6E  3F80               	dw	16256
   115  001E70  0000               	dw	0
   116  001E72  3E80               	dw	16000
   117  001E74  3333               	dw	13107
   118  001E76  4023               	dw	16419
   119  001E78  0000               	dw	0
   120  001E7A  3F80               	dw	16256
   121  001E7C  0000               	dw	0
   122  001E7E  3F80               	dw	16256
   123  001E80  2D0E               	dw	11534
   124  001E82  4042               	dw	16450
   125  001E84  0000               	dw	0
   126  001E86  3F80               	dw	16256
   127  001E88  0000               	dw	0
   128  001E8A  3F40               	dw	16192
   129  001E8C  7AE1               	dw	31457
   130  001E8E  4074               	dw	16500
   131  001E90  0000               	dw	0
   132  001E92  3F80               	dw	16256
   133  001E94  0000               	dw	0
   134  001E96  3E80               	dw	16000
   135  001E98  4396               	dw	17302
   136  001E9A  4023               	dw	16419
   137  001E9C  0000               	dw	0
   138  001E9E  3F80               	dw	16256
   139  001EA0  0000               	dw	0
   140  001EA2  4000               	dw	16384
   141  001EA4  2D0E               	dw	11534
   142  001EA6  4042               	dw	16450
   143  001EA8  0000               	dw	0
   144  001EAA  3F80               	dw	16256
   145  001EAC  0000               	dw	0
   146  001EAE  3F80               	dw	16256
   147  001EB0  CAC1               	dw	51905
   148  001EB2  4001               	dw	16385
   149  001EB4  0000               	dw	0
   150  001EB6  3F80               	dw	16256
   151  001EB8  0000               	dw	0
   152  001EBA  3F80               	dw	16256
   153  001EBC  CAC1               	dw	51905
   154  001EBE  4001               	dw	16385
   155  001EC0  0000               	dw	0
   156  001EC2  3F80               	dw	16256
   157  001EC4  0000               	dw	0
   158  001EC6  3F80               	dw	16256
   159  001EC8  CAC1               	dw	51905
   160  001ECA  4001               	dw	16385
   161  001ECC  0000               	dw	0
   162  001ECE  3F80               	dw	16256
   163  001ED0  0000               	dw	0
   164  001ED2  3F40               	dw	16192
   165  001ED4  9BA6               	dw	39846
   166  001ED6  3FF4               	dw	16372
   167  001ED8  0000               	dw	0
   168  001EDA  3F80               	dw	16256
   169  001EDC  0000               	dw	0
   170  001EDE  3E80               	dw	16000
   171  001EE0  4396               	dw	17302
   172  001EE2  4023               	dw	16419
   173  001EE4  0000               	dw	0
   174  001EE6  3F80               	dw	16256
   175  001EE8  0000               	dw	0
   176  001EEA  3F80               	dw	16256
   177  001EEC  0A3D               	dw	2621
   178  001EEE  4067               	dw	16487
   179  001EF0  0000               	dw	0
   180  001EF2  3F80               	dw	16256
   181  001EF4  0000               	dw	0
   182  001EF6  3F40               	dw	16192
   183  001EF8  7AE1               	dw	31457
   184  001EFA  4074               	dw	16500
   185  001EFC  0000               	dw	0
   186  001EFE  3F80               	dw	16256
   187  001F00  0000               	dw	0
   188  001F02  3E80               	dw	16000
   189  001F04  4396               	dw	17302
   190  001F06  4023               	dw	16419
   191  001F08  0000               	dw	0
   192  001F0A  3F80               	dw	16256
   193  001F0C  0000               	dw	0
   194  001F0E  4000               	dw	16384
   195  001F10  2D0E               	dw	11534
   196  001F12  4042               	dw	16450
   197  001F14  0000               	dw	0
   198  001F16  3F80               	dw	16256
   199  001F18  0000               	dw	0
   200  001F1A  3F80               	dw	16256
   201  001F1C  2D0E               	dw	11534
   202  001F1E  3FC2               	dw	16322
   203  001F20  0000               	dw	0
   204  001F22  3F80               	dw	16256
   205  001F24  0000               	dw	0
   206  001F26  3F40               	dw	16192
   207  001F28  2D0E               	dw	11534
   208  001F2A  4042               	dw	16450
   209  001F2C  0000               	dw	0
   210  001F2E  3F80               	dw	16256
   211  001F30  0000               	dw	0
   212  001F32  3E80               	dw	16000
   213  001F34  2D0E               	dw	11534
   214  001F36  4042               	dw	16450
   215  001F38  0000               	dw	0
   216  001F3A  3F80               	dw	16256
   217  001F3C  0000               	dw	0
   218  001F3E  3F80               	dw	16256
   219  001F40  2D0E               	dw	11534
   220  001F42  3FC2               	dw	16322
   221  001F44  0000               	dw	0
   222  001F46  3F80               	dw	16256
   223  001F48  0000               	dw	0
   224  001F4A  3F40               	dw	16192
   225  001F4C  B22D               	dw	45613
   226  001F4E  3FCD               	dw	16333
   227  001F50  0000               	dw	0
   228  001F52  3F80               	dw	16256
   229  001F54  0000               	dw	0
   230  001F56  3E80               	dw	16000
   231  001F58  FBE7               	dw	64487
   232  001F5A  3FD9               	dw	16345
   233  001F5C  0000               	dw	0
   234  001F5E  3F80               	dw	16256
   235  001F60  0000               	dw	0
   236  001F62  3E80               	dw	16000
   237  001F64  E979               	dw	59769
   238  001F66  3FE6               	dw	16358
   239  001F68  0000               	dw	0
   240  001F6A  3F80               	dw	16256
   241  001F6C  0000               	dw	0
   242  001F6E  3E80               	dw	16000
   243  001F70  9BA6               	dw	39846
   244  001F72  3FF4               	dw	16372
   245  001F74  0000               	dw	0
   246  001F76  3F80               	dw	16256
   247  001F78  999A               	dw	39322
   248  001F7A  3F19               	dw	16153
   249  001F7C  E979               	dw	59769
   250  001F7E  3FE6               	dw	16358
   251  001F80  0000               	dw	0
   252  001F82  3F80               	dw	16256
   253  001F84  CCCD               	dw	52429
   254  001F86  3E4C               	dw	15948
   255  001F88  0000               	dw	0
   256  001F8A  3F80               	dw	16256
   257  001F8C  0000               	dw	0
   258  001F8E  0000               	dw	0
   259  001F90  999A               	dw	39322
   260  001F92  3F19               	dw	16153
   261  001F94  3B64               	dw	15204
   262  001F96  4037               	dw	16439
   263  001F98  0000               	dw	0
   264  001F9A  3F80               	dw	16256
   265  001F9C  0000               	dw	0
   266  001F9E  3F80               	dw	16256
   267  001FA0  47AE               	dw	18350
   268  001FA2  4009               	dw	16393
   269  001FA4  0000               	dw	0
   270  001FA6  3F80               	dw	16256
   271  001FA8  0000               	dw	0
   272  001FAA  3F40               	dw	16192
   273  001FAC  78D5               	dw	30933
   274  001FAE  4011               	dw	16401
   275  001FB0  0000               	dw	0
   276  001FB2  3F80               	dw	16256
   277  001FB4  0000               	dw	0
   278  001FB6  3E80               	dw	16000
   279  001FB8  1CAC               	dw	7340
   280  001FBA  401A               	dw	16410
   281  001FBC  0000               	dw	0
   282  001FBE  3F80               	dw	16256
   283  001FC0  0000               	dw	0
   284  001FC2  3E80               	dw	16000
   285  001FC4  4396               	dw	17302
   286  001FC6  4023               	dw	16419
   287  001FC8  0000               	dw	0
   288  001FCA  3F80               	dw	16256
   289  001FCC  0000               	dw	0
   290  001FCE  3E80               	dw	16000
   291  001FD0  FDF4               	dw	65012
   292  001FD2  402C               	dw	16428
   293  001FD4  0000               	dw	0
   294  001FD6  3F80               	dw	16256
   295  001FD8  999A               	dw	39322
   296  001FDA  3F19               	dw	16153
   297  001FDC  4396               	dw	17302
   298  001FDE  4023               	dw	16419
   299  001FE0  0000               	dw	0
   300  001FE2  3F80               	dw	16256
   301  001FE4  CCCD               	dw	52429
   302  001FE6  3E4C               	dw	15948
   303  001FE8  0000               	dw	0
   304  001FEA  3F80               	dw	16256
   305  001FEC  0000               	dw	0
   306  001FEE  0000               	dw	0
   307  001FF0  999A               	dw	39322
   308  001FF2  3F19               	dw	16153
   309  001FF4  9BA6               	dw	39846
   310  001FF6  4074               	dw	16500
   311  001FF8  0000               	dw	0
   312  001FFA  3F80               	dw	16256
   313  001FFC  0000               	dw	0
   314  001FFE  3F80               	dw	16256
   315  002000  E979               	dw	59769
   316  002002  4066               	dw	16486
   317  002004  0000               	dw	0
   318  002006  3F80               	dw	16256
   319  002008  0000               	dw	0
   320  00200A  3F40               	dw	16192
   321  00200C  9BA6               	dw	39846
   322  00200E  4074               	dw	16500
   323  002010  0000               	dw	0
   324  002012  3F80               	dw	16256
   325  002014  0000               	dw	0
   326  002016  3E80               	dw	16000
   327  002018  4396               	dw	17302
   328  00201A  4023               	dw	16419
   329  00201C  0000               	dw	0
   330  00201E  3F80               	dw	16256
   331  002020  0000               	dw	0
   332  002022  3F80               	dw	16256
   333  002024  2D0E               	dw	11534
   334  002026  4042               	dw	16450
   335  002028  0000               	dw	0
   336  00202A  3F80               	dw	16256
   337  00202C  0000               	dw	0
   338  00202E  3F40               	dw	16192
   339  002030  9BA6               	dw	39846
   340  002032  4074               	dw	16500
   341  002034  0000               	dw	0
   342  002036  3F80               	dw	16256
   343  002038  0000               	dw	0
   344  00203A  3E80               	dw	16000
   345  00203C  4396               	dw	17302
   346  00203E  4023               	dw	16419
   347  002040  0000               	dw	0
   348  002042  3F80               	dw	16256
   349  002044  0000               	dw	0
   350  002046  40A0               	dw	16544
   351  002048  2D0E               	dw	11534
   352  00204A  4042               	dw	16450
   353  00204C  0000               	dw	0
   354  00204E  3F80               	dw	16256
   355                           
   356                           	psect	idataBANK0
   357  0031A4                     __pidataBANK0:
   358                           	callstack 0
   359                           
   360                           ;initializer for _l
   361  0031A4  000F               	dw	15
   362                           
   363                           ;initializer for _k
   364  0031A6  0001               	dw	1
   365                           
   366                           ;initializer for _vel
   367  0031A8  01F4               	dw	500
   368  0000                     _TMR0	set	4054
   369  0000                     _LATDbits	set	3980
   370  0000                     _TRISDbits	set	3989
   371  0000                     _TRISD	set	3989
   372  0000                     _PORTD	set	3971
   373  0000                     _TRISB	set	3987
   374  0000                     _TRISA	set	3986
   375  0000                     _ADCON1	set	4033
   376  0000                     _PORTBbits	set	3969
   377  0000                     _T0CONbits	set	4053
   378  0000                     _INTCONbits	set	4082
   379  0000                     _PORTAbits	set	3968
   380                           
   381                           	psect	smallconst
   382  000800                     __psmallconst:
   383                           	callstack 0
   384  000800  00                 	db	0
   385  000801                     STR_1:
   386  000801  25                 	db	37
   387  000802  69                 	db	105	;'i'
   388  000803  00                 	db	0
   389  000804  00                 	db	0	; dummy byte at the end
   390  0000                     
   391                           ; #config settings
   392                           
   393                           	psect	cinit
   394  002E20                     __pcinit:
   395                           	callstack 0
   396  002E20                     start_initialization:
   397                           	callstack 0
   398  002E20                     __initialization:
   399                           	callstack 0
   400                           
   401                           ; Initialize objects allocated to BIGRAM (528 bytes)
   402                           ; load TBLPTR registers with __pidataBIGRAM
   403  002E20  0E40               	movlw	low __pidataBIGRAM
   404  002E22  6EF6               	movwf	tblptrl,c
   405  002E24  0E1E               	movlw	high __pidataBIGRAM
   406  002E26  6EF7               	movwf	tblptrh,c
   407  002E28  0E00               	movlw	low (__pidataBIGRAM shr (0+16))
   408  002E2A  6EF8               	movwf	tblptru,c
   409  002E2C  EE05  F0F0         	lfsr	0,__pdataBIGRAM
   410  002E30  EE12 F010          	lfsr	1,528
   411  002E34                     copy_data0:
   412  002E34  0009               	tblrd		*+
   413  002E36  CFF5 FFEE          	movff	tablat,postinc0
   414  002E3A  50E5               	movf	postdec1,w,c
   415  002E3C  50E1               	movf	fsr1l,w,c
   416  002E3E  E1FA               	bnz	copy_data0
   417  002E40  50E2               	movf	fsr1h,w,c
   418  002E42  E1F8               	bnz	copy_data0
   419                           
   420                           ; Initialize objects allocated to BANK0 (6 bytes)
   421                           ; load TBLPTR registers with __pidataBANK0
   422  002E44  0EA4               	movlw	low __pidataBANK0
   423  002E46  6EF6               	movwf	tblptrl,c
   424  002E48  0E31               	movlw	high __pidataBANK0
   425  002E4A  6EF7               	movwf	tblptrh,c
   426  002E4C  0E00               	movlw	low (__pidataBANK0 shr (0+16))
   427  002E4E  6EF8               	movwf	tblptru,c
   428  002E50  EE00  F0CD         	lfsr	0,__pdataBANK0
   429  002E54  EE10 F006          	lfsr	1,6
   430  002E58                     copy_data1:
   431  002E58  0009               	tblrd		*+
   432  002E5A  CFF5 FFEE          	movff	tablat,postinc0
   433  002E5E  50E5               	movf	postdec1,w,c
   434  002E60  50E1               	movf	fsr1l,w,c
   435  002E62  E1FA               	bnz	copy_data1
   436                           
   437                           ; Clear objects allocated to BANK0 (90 bytes)
   438  002E64  EE00  F060         	lfsr	0,__pbssBANK0
   439  002E68  0E5A               	movlw	90
   440  002E6A                     clear_0:
   441  002E6A  6AEE               	clrf	postinc0,c
   442  002E6C  06E8               	decf	wreg,f,c
   443  002E6E  E1FD               	bnz	clear_0
   444                           
   445                           ; Clear objects allocated to COMRAM (2 bytes)
   446  002E70  6A5F               	clrf	(__pbssCOMRAM+1)& (0+255),c
   447  002E72  6A5E               	clrf	__pbssCOMRAM& (0+255),c
   448  002E74                     end_of_initialization:
   449                           	callstack 0
   450  002E74                     __end_of__initialization:
   451                           	callstack 0
   452  002E74  0E00               	movlw	low (__Lsmallconst shr (0+16))
   453  002E76  6EF8               	movwf	tblptru,c
   454  002E78  0E08               	movlw	high __Lsmallconst
   455  002E7A  6EF7               	movwf	tblptrh,c
   456  002E7C  0100               	movlb	0
   457  002E7E  EFB6  F018         	goto	_main	;jump to C main() function
   458                           
   459                           	psect	bssCOMRAM
   460  00005E                     __pbssCOMRAM:
   461                           	callstack 0
   462  00005E                     _flags:
   463                           	callstack 0
   464  00005E                     	ds	2
   465                           
   466                           	psect	bssBANK0
   467  000060                     __pbssBANK0:
   468                           	callstack 0
   469  000060                     _buffer:
   470                           	callstack 0
   471  000060                     	ds	20
   472  000074                     _nout:
   473                           	callstack 0
   474  000074                     	ds	2
   475  000076                     _width:
   476                           	callstack 0
   477  000076                     	ds	2
   478  000078                     _prec:
   479                           	callstack 0
   480  000078                     	ds	2
   481  00007A                     _s:
   482                           	callstack 0
   483  00007A                     	ds	2
   484  00007C                     _b:
   485                           	callstack 0
   486  00007C                     	ds	2
   487  00007E                     _a:
   488                           	callstack 0
   489  00007E                     	ds	2
   490  000080                     _i:
   491                           	callstack 0
   492  000080                     	ds	2
   493  000082                     _f:
   494                           	callstack 0
   495  000082                     	ds	1
   496  000083                     _dbuf:
   497                           	callstack 0
   498  000083                     	ds	32
   499  0000A3                     _buffer1:
   500                           	callstack 0
   501  0000A3                     	ds	23
   502                           
   503                           	psect	dataBANK0
   504  0000CD                     __pdataBANK0:
   505                           	callstack 0
   506  0000CD                     _l:
   507                           	callstack 0
   508  0000CD                     	ds	2
   509  0000CF                     _k:
   510                           	callstack 0
   511  0000CF                     	ds	2
   512  0000D1                     _vel:
   513                           	callstack 0
   514  0000D1                     	ds	2
   515                           
   516                           	psect	dataBIGRAM
   517  0005F0                     __pdataBIGRAM:
   518                           	callstack 0
   519  0005F0                     _cancion:
   520                           	callstack 0
   521  0005F0                     	ds	528
   522                           
   523                           	psect	cstackBANK0
   524  0000BA                     __pcstackBANK0:
   525                           	callstack 0
   526  0000BA                     sprintf@ap:
   527                           	callstack 0
   528                           
   529                           ; 2 bytes @ 0x0
   530  0000BA                     	ds	2
   531  0000BC                     sprintf@f:
   532                           	callstack 0
   533                           
   534                           ; 6 bytes @ 0x2
   535  0000BC                     	ds	6
   536  0000C2                     _cancion1$1176:
   537                           	callstack 0
   538                           
   539                           ; 2 bytes @ 0x8
   540  0000C2                     	ds	2
   541  0000C4                     _cancion1$1177:
   542                           	callstack 0
   543                           
   544                           ; 2 bytes @ 0xA
   545  0000C4                     	ds	2
   546  0000C6                     cancion1@j:
   547                           	callstack 0
   548                           
   549                           ; 2 bytes @ 0xC
   550  0000C6                     	ds	2
   551  0000C8                     
   552                           ; 2 bytes @ 0xE
   553  0000C8                     	ds	2
   554  0000CA                     
   555                           ; 3 bytes @ 0x10
   556  0000CA                     	ds	3
   557                           
   558                           	psect	cstackCOMRAM
   559  000001                     __pcstackCOMRAM:
   560                           	callstack 0
   561  000001                     ?_strlen:
   562                           	callstack 0
   563  000001                     ?___wmul:
   564                           	callstack 0
   565  000001                     ?___fladd:
   566                           	callstack 0
   567  000001                     ?___xxtofl:
   568                           	callstack 0
   569  000001                     ?___aodiv:
   570                           	callstack 0
   571  000001                     ?___aomod:
   572                           	callstack 0
   573  000001                     LCD_Comando@cmd:
   574                           	callstack 0
   575  000001                     LCD_Data@data:
   576                           	callstack 0
   577  000001                     ___wmul@multiplier:
   578                           	callstack 0
   579  000001                     fputc@c:
   580                           	callstack 0
   581  000001                     strlen@s:
   582                           	callstack 0
   583  000001                     ___fladd@b:
   584                           	callstack 0
   585  000001                     ___xxtofl@val:
   586                           	callstack 0
   587  000001                     ___aodiv@dividend:
   588                           	callstack 0
   589  000001                     ___aomod@dividend:
   590                           	callstack 0
   591                           
   592                           ; 8 bytes @ 0x0
   593  000001                     	ds	1
   594  000002                     ??_LCD_Init:
   595  000002                     LCD_XY@x:
   596                           	callstack 0
   597  000002                     LCD_Cadena@dato:
   598                           	callstack 0
   599                           
   600                           ; 2 bytes @ 0x1
   601  000002                     	ds	1
   602  000003                     ___wmul@multiplicand:
   603                           	callstack 0
   604  000003                     fputc@fp:
   605                           	callstack 0
   606  000003                     strlen@a:
   607                           	callstack 0
   608                           
   609                           ; 2 bytes @ 0x2
   610  000003                     	ds	1
   611  000004                     LCD_XY@y:
   612                           	callstack 0
   613                           
   614                           ; 2 bytes @ 0x3
   615  000004                     	ds	1
   616  000005                     ??_fputc:
   617  000005                     ??___xxtofl:
   618  000005                     ___wmul@product:
   619                           	callstack 0
   620  000005                     ___fladd@a:
   621                           	callstack 0
   622                           
   623                           ; 4 bytes @ 0x4
   624  000005                     	ds	1
   625  000006                     
   626                           ; 1 bytes @ 0x5
   627  000006                     	ds	1
   628  000007                     ?___flmul:
   629                           	callstack 0
   630  000007                     ___fleq@ff1:
   631                           	callstack 0
   632  000007                     ___flmul@b:
   633                           	callstack 0
   634                           
   635                           ; 4 bytes @ 0x6
   636  000007                     	ds	2
   637  000009                     ??___fladd:
   638  000009                     ___xxtofl@sign:
   639                           	callstack 0
   640  000009                     ___aodiv@divisor:
   641                           	callstack 0
   642  000009                     ___aomod@divisor:
   643                           	callstack 0
   644                           
   645                           ; 8 bytes @ 0x8
   646  000009                     	ds	1
   647  00000A                     ___xxtofl@exp:
   648                           	callstack 0
   649  00000A                     fputs@s:
   650                           	callstack 0
   651                           
   652                           ; 2 bytes @ 0x9
   653  00000A                     	ds	1
   654  00000B                     ___fleq@ff2:
   655                           	callstack 0
   656  00000B                     ___flmul@a:
   657                           	callstack 0
   658  00000B                     ___xxtofl@arg:
   659                           	callstack 0
   660                           
   661                           ; 4 bytes @ 0xA
   662  00000B                     	ds	1
   663  00000C                     fputs@fp:
   664                           	callstack 0
   665                           
   666                           ; 2 bytes @ 0xB
   667  00000C                     	ds	1
   668  00000D                     ___fladd@signs:
   669                           	callstack 0
   670                           
   671                           ; 1 bytes @ 0xC
   672  00000D                     	ds	1
   673  00000E                     ___fladd@aexp:
   674                           	callstack 0
   675  00000E                     fputs@c:
   676                           	callstack 0
   677                           
   678                           ; 1 bytes @ 0xD
   679  00000E                     	ds	1
   680  00000F                     ??___flmul:
   681  00000F                     ??___fleq:
   682  00000F                     ?___fldiv:
   683                           	callstack 0
   684  00000F                     ___fladd@bexp:
   685                           	callstack 0
   686  00000F                     fputs@i:
   687                           	callstack 0
   688  00000F                     ___fldiv@b:
   689                           	callstack 0
   690                           
   691                           ; 4 bytes @ 0xE
   692  00000F                     	ds	1
   693  000010                     ___fladd@grs:
   694                           	callstack 0
   695                           
   696                           ; 1 bytes @ 0xF
   697  000010                     	ds	1
   698  000011                     ?_pad:
   699                           	callstack 0
   700  000011                     ___aodiv@counter:
   701                           	callstack 0
   702  000011                     ___aomod@counter:
   703                           	callstack 0
   704  000011                     pad@fp:
   705                           	callstack 0
   706                           
   707                           ; 2 bytes @ 0x10
   708  000011                     	ds	1
   709  000012                     ___aodiv@sign:
   710                           	callstack 0
   711  000012                     ___aomod@sign:
   712                           	callstack 0
   713                           
   714                           ; 1 bytes @ 0x11
   715  000012                     	ds	1
   716  000013                     ?_abs:
   717                           	callstack 0
   718  000013                     ___flmul@sign:
   719                           	callstack 0
   720  000013                     pad@buf:
   721                           	callstack 0
   722  000013                     abs@a:
   723                           	callstack 0
   724  000013                     ___fldiv@a:
   725                           	callstack 0
   726  000013                     ___aodiv@quotient:
   727                           	callstack 0
   728                           
   729                           ; 8 bytes @ 0x12
   730  000013                     	ds	1
   731  000014                     ___flmul@grs:
   732                           	callstack 0
   733                           
   734                           ; 4 bytes @ 0x13
   735  000014                     	ds	1
   736  000015                     ??_abs:
   737  000015                     pad@p:
   738                           	callstack 0
   739                           
   740                           ; 2 bytes @ 0x14
   741  000015                     	ds	2
   742  000017                     ??___fldiv:
   743  000017                     ??_pad:
   744                           
   745                           ; 1 bytes @ 0x16
   746  000017                     	ds	1
   747  000018                     ___flmul@aexp:
   748                           	callstack 0
   749  000018                     pad@i:
   750                           	callstack 0
   751                           
   752                           ; 2 bytes @ 0x17
   753  000018                     	ds	1
   754  000019                     ___flmul@bexp:
   755                           	callstack 0
   756                           
   757                           ; 1 bytes @ 0x18
   758  000019                     	ds	1
   759  00001A                     pad@w:
   760                           	callstack 0
   761  00001A                     ___flmul@prod:
   762                           	callstack 0
   763                           
   764                           ; 4 bytes @ 0x19
   765  00001A                     	ds	1
   766  00001B                     ___fldiv@rem:
   767                           	callstack 0
   768                           
   769                           ; 4 bytes @ 0x1A
   770  00001B                     	ds	1
   771  00001C                     ?_dtoa:
   772                           	callstack 0
   773  00001C                     dtoa@fp:
   774                           	callstack 0
   775                           
   776                           ; 2 bytes @ 0x1B
   777  00001C                     	ds	2
   778  00001E                     ___flmul@temp:
   779                           	callstack 0
   780  00001E                     dtoa@d:
   781                           	callstack 0
   782                           
   783                           ; 8 bytes @ 0x1D
   784  00001E                     	ds	1
   785  00001F                     ___fldiv@sign:
   786                           	callstack 0
   787                           
   788                           ; 1 bytes @ 0x1E
   789  00001F                     	ds	1
   790  000020                     ___fldiv@new_exp:
   791                           	callstack 0
   792                           
   793                           ; 2 bytes @ 0x1F
   794  000020                     	ds	2
   795  000022                     ___fldiv@grs:
   796                           	callstack 0
   797                           
   798                           ; 4 bytes @ 0x21
   799  000022                     	ds	4
   800  000026                     ??_dtoa:
   801  000026                     ___fldiv@bexp:
   802                           	callstack 0
   803                           
   804                           ; 1 bytes @ 0x25
   805  000026                     	ds	1
   806  000027                     ___fldiv@aexp:
   807                           	callstack 0
   808                           
   809                           ; 1 bytes @ 0x26
   810  000027                     	ds	1
   811  000028                     ?___flsub:
   812                           	callstack 0
   813  000028                     ?___fltol:
   814                           	callstack 0
   815  000028                     ___fltol@f1:
   816                           	callstack 0
   817  000028                     ___flsub@b:
   818                           	callstack 0
   819                           
   820                           ; 4 bytes @ 0x27
   821  000028                     	ds	4
   822  00002C                     ??___fltol:
   823  00002C                     ___flsub@a:
   824                           	callstack 0
   825                           
   826                           ; 4 bytes @ 0x2B
   827  00002C                     	ds	2
   828  00002E                     _dtoa$934:
   829                           	callstack 0
   830                           
   831                           ; 2 bytes @ 0x2D
   832  00002E                     	ds	2
   833  000030                     ___fltol@sign1:
   834                           	callstack 0
   835  000030                     dtoa@p:
   836                           	callstack 0
   837                           
   838                           ; 2 bytes @ 0x2F
   839  000030                     	ds	1
   840  000031                     ___fltol@exp1:
   841                           	callstack 0
   842                           
   843                           ; 1 bytes @ 0x30
   844  000031                     	ds	1
   845  000032                     tocar_nota@duracion:
   846                           	callstack 0
   847  000032                     silencio@duracion:
   848                           	callstack 0
   849  000032                     dtoa@w:
   850                           	callstack 0
   851                           
   852                           ; 2 bytes @ 0x31
   853  000032                     	ds	2
   854  000034                     dtoa@s:
   855                           	callstack 0
   856  000034                     tocar_nota@tfrec:
   857                           	callstack 0
   858  000034                     silencio@tfrec:
   859                           	callstack 0
   860                           
   861                           ; 4 bytes @ 0x33
   862  000034                     	ds	2
   863  000036                     dtoa@n:
   864                           	callstack 0
   865                           
   866                           ; 8 bytes @ 0x35
   867  000036                     	ds	2
   868  000038                     ??_tocar_nota:
   869  000038                     ??_silencio:
   870                           
   871                           ; 1 bytes @ 0x37
   872  000038                     	ds	1
   873  000039                     _tocar_nota$1174:
   874                           	callstack 0
   875  000039                     _silencio$1175:
   876                           	callstack 0
   877                           
   878                           ; 4 bytes @ 0x38
   879  000039                     	ds	4
   880  00003D                     tocar_nota@duracion2:
   881                           	callstack 0
   882                           
   883                           ; 2 bytes @ 0x3C
   884  00003D                     	ds	1
   885  00003E                     dtoa@i:
   886                           	callstack 0
   887                           
   888                           ; 2 bytes @ 0x3D
   889  00003E                     	ds	2
   890  000040                     ?_vfpfcnvrt:
   891                           	callstack 0
   892  000040                     vfpfcnvrt@fp:
   893                           	callstack 0
   894                           
   895                           ; 2 bytes @ 0x3F
   896  000040                     	ds	2
   897  000042                     vfpfcnvrt@fmt:
   898                           	callstack 0
   899                           
   900                           ; 2 bytes @ 0x41
   901  000042                     	ds	2
   902  000044                     vfpfcnvrt@ap:
   903                           	callstack 0
   904                           
   905                           ; 2 bytes @ 0x43
   906  000044                     	ds	2
   907  000046                     ??_vfpfcnvrt:
   908                           
   909                           ; 1 bytes @ 0x45
   910  000046                     	ds	2
   911  000048                     vfpfcnvrt@ll:
   912                           	callstack 0
   913                           
   914                           ; 8 bytes @ 0x47
   915  000048                     	ds	8
   916  000050                     ?_vfprintf:
   917                           	callstack 0
   918  000050                     vfprintf@fp:
   919                           	callstack 0
   920                           
   921                           ; 2 bytes @ 0x4F
   922  000050                     	ds	2
   923  000052                     vfprintf@fmt:
   924                           	callstack 0
   925                           
   926                           ; 2 bytes @ 0x51
   927  000052                     	ds	2
   928  000054                     vfprintf@ap:
   929                           	callstack 0
   930                           
   931                           ; 2 bytes @ 0x53
   932  000054                     	ds	2
   933  000056                     vfprintf@cfmt:
   934                           	callstack 0
   935                           
   936                           ; 2 bytes @ 0x55
   937  000056                     	ds	2
   938  000058                     ?_sprintf:
   939                           	callstack 0
   940  000058                     sprintf@s:
   941                           	callstack 0
   942                           
   943                           ; 2 bytes @ 0x57
   944  000058                     	ds	2
   945  00005A                     sprintf@fmt:
   946                           	callstack 0
   947                           
   948                           ; 2 bytes @ 0x59
   949  00005A                     	ds	4
   950  00005E                     
   951                           ; 1 bytes @ 0x5D
   952 ;;
   953 ;;Main: autosize = 0, tempsize = 0, incstack = 0, save=0
   954 ;;
   955 ;; *************** function _main *****************
   956 ;; Defined at:
   957 ;;		line 227 in file "main.c"
   958 ;; Parameters:    Size  Location     Type
   959 ;;  argc            2   14[BANK0 ] int 
   960 ;;  argv            3   16[BANK0 ] PTR PTR unsigned char 
   961 ;; Auto vars:     Size  Location     Type
   962 ;;		None
   963 ;; Return value:  Size  Location     Type
   964 ;;                  2   14[BANK0 ] int 
   965 ;; Registers used:
   966 ;;		wreg, fsr1l, fsr1h, fsr2l, fsr2h, status,2, status,0, tblptrl, tblptrh, tblptru, prodl, prodh, cstack
   967 ;; Tracked objects:
   968 ;;		On entry : 0/0
   969 ;;		On exit  : 0/0
   970 ;;		Unchanged: 0/0
   971 ;; Data sizes:     COMRAM   BANK0   BANK1   BANK2   BANK3   BANK4   BANK5   BANK6   BANK7
   972 ;;      Params:         0       5       0       0       0       0       0       0       0
   973 ;;      Locals:         0       0       0       0       0       0       0       0       0
   974 ;;      Temps:          0       0       0       0       0       0       0       0       0
   975 ;;      Totals:         0       5       0       0       0       0       0       0       0
   976 ;;Total ram usage:        5 bytes
   977 ;; Hardware stack levels required when called: 9
   978 ;; This function calls:
   979 ;;		_LCD_Init
   980 ;;		_P1
   981 ;;		_cancion1
   982 ;;		_confT0
   983 ;; This function is called by:
   984 ;;		Startup code after reset
   985 ;; This function uses a non-reentrant model
   986 ;;
   987                           
   988                           	psect	text0
   989  00316C                     __ptext0:
   990                           	callstack 0
   991  00316C                     _main:
   992                           	callstack 22
   993  00316C                     
   994                           ;main.c: 229:      ADCON1= 15;
   995  00316C  0E0F               	movlw	15
   996  00316E  6EC1               	movwf	193,c	;volatile
   997  003170                     
   998                           ;main.c: 231:              LCD_Init();
   999  003170  EC0F  F016         	call	_LCD_Init	;wreg free
  1000  003174                     
  1001                           ;main.c: 232:              P1();
  1002  003174  ECC1  F016         	call	_P1	;wreg free
  1003  003178                     
  1004                           ;main.c: 233:        confT0();
  1005  003178  ECC7  F018         	call	_confT0	;wreg free
  1006  00317C                     
  1007                           ;main.c: 236:     TRISA = 0b00010000;
  1008  00317C  0E10               	movlw	16
  1009  00317E  6E92               	movwf	146,c	;volatile
  1010  003180                     
  1011                           ;main.c: 237:     TRISB = 0b11111111;
  1012  003180  6893               	setf	147,c	;volatile
  1013  003182                     l3255:
  1014                           
  1015                           ;main.c: 244:     cancion1();
  1016  003182  EC03  F004         	call	_cancion1	;wreg free
  1017  003186  EFC1  F018         	goto	l3255
  1018  00318A  EF00  F000         	goto	start
  1019  00318E                     __end_of_main:
  1020                           	callstack 0
  1021                           
  1022 ;; *************** function _confT0 *****************
  1023 ;; Defined at:
  1024 ;;		line 92 in file "main.c"
  1025 ;; Parameters:    Size  Location     Type
  1026 ;;		None
  1027 ;; Auto vars:     Size  Location     Type
  1028 ;;		None
  1029 ;; Return value:  Size  Location     Type
  1030 ;;                  1    wreg      void 
  1031 ;; Registers used:
  1032 ;;		wreg, status,2
  1033 ;; Tracked objects:
  1034 ;;		On entry : 0/0
  1035 ;;		On exit  : 0/0
  1036 ;;		Unchanged: 0/0
  1037 ;; Data sizes:     COMRAM   BANK0   BANK1   BANK2   BANK3   BANK4   BANK5   BANK6   BANK7
  1038 ;;      Params:         0       0       0       0       0       0       0       0       0
  1039 ;;      Locals:         0       0       0       0       0       0       0       0       0
  1040 ;;      Temps:          0       0       0       0       0       0       0       0       0
  1041 ;;      Totals:         0       0       0       0       0       0       0       0       0
  1042 ;;Total ram usage:        0 bytes
  1043 ;; Hardware stack levels used: 1
  1044 ;; This function calls:
  1045 ;;		Nothing
  1046 ;; This function is called by:
  1047 ;;		_main
  1048 ;; This function uses a non-reentrant model
  1049 ;;
  1050                           
  1051                           	psect	text1
  1052  00318E                     __ptext1:
  1053                           	callstack 0
  1054  00318E                     _confT0:
  1055                           	callstack 30
  1056  00318E                     
  1057                           ;main.c: 94:     T0CONbits.TMR0ON = 1;
  1058  00318E  8ED5               	bsf	213,7,c	;volatile
  1059                           
  1060                           ;main.c: 95:       T0CONbits.T08BIT = 1;
  1061  003190  8CD5               	bsf	213,6,c	;volatile
  1062                           
  1063                           ;main.c: 96:       T0CONbits.T0CS = 0;
  1064  003192  9AD5               	bcf	213,5,c	;volatile
  1065                           
  1066                           ;main.c: 97:       T0CONbits.T0SE = 0;
  1067  003194  98D5               	bcf	213,4,c	;volatile
  1068                           
  1069                           ;main.c: 98:       T0CONbits.PSA = 0;
  1070  003196  96D5               	bcf	213,3,c	;volatile
  1071  003198                     
  1072                           ;main.c: 99:       T0CONbits.T0PS = 0b110;
  1073  003198  50D5               	movf	213,w,c	;volatile
  1074  00319A  0BF8               	andlw	-8
  1075  00319C  0906               	iorlw	6
  1076  00319E  6ED5               	movwf	213,c	;volatile
  1077  0031A0                     
  1078                           ;main.c: 101:       INTCONbits.TMR0IE = 1;
  1079  0031A0  8AF2               	bsf	242,5,c	;volatile
  1080  0031A2  0012               	return		;funcret
  1081  0031A4                     __end_of_confT0:
  1082                           	callstack 0
  1083                           
  1084 ;; *************** function _cancion1 *****************
  1085 ;; Defined at:
  1086 ;;		line 119 in file "main.c"
  1087 ;; Parameters:    Size  Location     Type
  1088 ;;		None
  1089 ;; Auto vars:     Size  Location     Type
  1090 ;;  j               2   12[BANK0 ] int 
  1091 ;; Return value:  Size  Location     Type
  1092 ;;                  1    wreg      void 
  1093 ;; Registers used:
  1094 ;;		wreg, fsr1l, fsr1h, fsr2l, fsr2h, status,2, status,0, tblptrl, tblptrh, tblptru, prodl, prodh, cstack
  1095 ;; Tracked objects:
  1096 ;;		On entry : 0/0
  1097 ;;		On exit  : 0/0
  1098 ;;		Unchanged: 0/0
  1099 ;; Data sizes:     COMRAM   BANK0   BANK1   BANK2   BANK3   BANK4   BANK5   BANK6   BANK7
  1100 ;;      Params:         0       0       0       0       0       0       0       0       0
  1101 ;;      Locals:         0       6       0       0       0       0       0       0       0
  1102 ;;      Temps:          0       0       0       0       0       0       0       0       0
  1103 ;;      Totals:         0       6       0       0       0       0       0       0       0
  1104 ;;Total ram usage:        6 bytes
  1105 ;; Hardware stack levels used: 1
  1106 ;; Hardware stack levels required when called: 8
  1107 ;; This function calls:
  1108 ;;		_LCD_Cadena
  1109 ;;		_LCD_Comando
  1110 ;;		_LCD_Data
  1111 ;;		_LCD_XY
  1112 ;;		___fleq
  1113 ;;		___flmul
  1114 ;;		___fltol
  1115 ;;		___wmul
  1116 ;;		_silencio
  1117 ;;		_sprintf
  1118 ;;		_tocar_nota
  1119 ;; This function is called by:
  1120 ;;		_main
  1121 ;; This function uses a non-reentrant model
  1122 ;;
  1123                           
  1124                           	psect	text2
  1125  000806                     __ptext2:
  1126                           	callstack 0
  1127  000806                     _cancion1:
  1128                           	callstack 22
  1129  000806                     
  1130                           ;main.c: 121: for( int j = 0; j < 44; j ++){
  1131  000806  0E00               	movlw	0
  1132  000808  0100               	movlb	0	; () banked
  1133  00080A  6FC7               	movwf	(cancion1@j+1)& (0+255),b
  1134  00080C  0E00               	movlw	0
  1135  00080E  6FC6               	movwf	cancion1@j& (0+255),b
  1136  000810                     l3057:
  1137                           
  1138                           ; BSR set to: 0
  1139                           ;main.c: 123: if(i < 15 && l > 0){
  1140  000810  BF81               	btfsc	(_i+1)& (0+255),7,b
  1141  000812  EF16  F004         	goto	u3200
  1142  000816  5181               	movf	(_i+1)& (0+255),w,b
  1143  000818  E107               	bnz	u3201
  1144  00081A  0E0F               	movlw	15
  1145  00081C  5D80               	subwf	_i& (0+255),w,b
  1146  00081E  B0D8               	btfsc	status,0,c
  1147  000820  EF14  F004         	goto	u3201
  1148  000824  EF16  F004         	goto	u3200
  1149  000828                     u3201:
  1150  000828  EFB4  F005         	goto	l3119
  1151  00082C                     u3200:
  1152  00082C                     
  1153                           ; BSR set to: 0
  1154  00082C  BFCE               	btfsc	(_l+1)& (0+255),7,b
  1155  00082E  EF21  F004         	goto	u3211
  1156  000832  51CE               	movf	(_l+1)& (0+255),w,b
  1157  000834  E108               	bnz	u3210
  1158  000836  05CD               	decf	_l& (0+255),w,b
  1159  000838  A0D8               	btfss	status,0,c
  1160  00083A  EF21  F004         	goto	u3211
  1161  00083E  EF23  F004         	goto	u3210
  1162  000842                     u3211:
  1163  000842  EFB4  F005         	goto	l3119
  1164  000846                     u3210:
  1165  000846                     
  1166                           ; BSR set to: 0
  1167                           ;main.c: 126:                         if(cancion[j][2] == 1){
  1168  000846  C0C6  F001         	movff	cancion1@j,___wmul@multiplier
  1169  00084A  C0C7  F002         	movff	cancion1@j+1,___wmul@multiplier+1
  1170  00084E  0E00               	movlw	0
  1171  000850  6E04               	movwf	(___wmul@multiplicand+1)^0,c
  1172  000852  0E0C               	movlw	12
  1173  000854  6E03               	movwf	___wmul@multiplicand^0,c
  1174  000856  ECA3  F018         	call	___wmul	;wreg free
  1175  00085A  0EF8               	movlw	low (_cancion+8)
  1176  00085C  2401               	addwf	?___wmul^0,w,c
  1177  00085E  6ED9               	movwf	fsr2l,c
  1178  000860  0E05               	movlw	high (_cancion+8)
  1179  000862  2002               	addwfc	(?___wmul+1)^0,w,c
  1180  000864  6EDA               	movwf	fsr2h,c
  1181  000866  CFDE F007          	movff	postinc2,___fleq@ff1
  1182  00086A  CFDE F008          	movff	postinc2,___fleq@ff1+1
  1183  00086E  CFDE F009          	movff	postinc2,___fleq@ff1+2
  1184  000872  CFDE F00A          	movff	postinc2,___fleq@ff1+3
  1185  000876  0E00               	movlw	0
  1186  000878  6E0B               	movwf	___fleq@ff2^0,c
  1187  00087A  0E00               	movlw	0
  1188  00087C  6E0C               	movwf	(___fleq@ff2+1)^0,c
  1189  00087E  0E80               	movlw	128
  1190  000880  6E0D               	movwf	(___fleq@ff2+2)^0,c
  1191  000882  0E3F               	movlw	63
  1192  000884  6E0E               	movwf	(___fleq@ff2+3)^0,c
  1193  000886  EC6C  F016         	call	___fleq	;wreg free
  1194  00088A  A0D8               	btfss	status,0,c
  1195  00088C  EF4A  F004         	goto	u3221
  1196  000890  EF4C  F004         	goto	u3220
  1197  000894                     u3221:
  1198  000894  EFE7  F004         	goto	l3087
  1199  000898                     u3220:
  1200  000898                     
  1201                           ;main.c: 127:                                   if(PORTBbits.RB0 == 1){
  1202  000898  A081               	btfss	129,0,c	;volatile
  1203  00089A  EF51  F004         	goto	u3231
  1204  00089E  EF53  F004         	goto	u3230
  1205  0008A2                     u3231:
  1206  0008A2  EF5A  F004         	goto	l3067
  1207  0008A6                     u3230:
  1208  0008A6                     
  1209                           ;main.c: 128:                                     k = 0;
  1210  0008A6  0E00               	movlw	0
  1211  0008A8  0100               	movlb	0	; () banked
  1212  0008AA  6FD0               	movwf	(_k+1)& (0+255),b
  1213  0008AC  0E00               	movlw	0
  1214  0008AE  6FCF               	movwf	_k& (0+255),b
  1215                           
  1216                           ;main.c: 129:                                 }
  1217  0008B0  EF5F  F004         	goto	l3069
  1218  0008B4                     l3067:
  1219                           
  1220                           ;main.c: 131:                                     k = 1;
  1221  0008B4  0E00               	movlw	0
  1222  0008B6  0100               	movlb	0	; () banked
  1223  0008B8  6FD0               	movwf	(_k+1)& (0+255),b
  1224  0008BA  0E01               	movlw	1
  1225  0008BC  6FCF               	movwf	_k& (0+255),b
  1226  0008BE                     l3069:
  1227                           
  1228                           ; BSR set to: 0
  1229                           ;main.c: 133:                                 LCD_XY(1,15);
  1230  0008BE  0E00               	movlw	0
  1231  0008C0  6E03               	movwf	(LCD_XY@x+1)^0,c
  1232  0008C2  0E01               	movlw	1
  1233  0008C4  6E02               	movwf	LCD_XY@x^0,c
  1234  0008C6  0E00               	movlw	0
  1235  0008C8  6E05               	movwf	(LCD_XY@y+1)^0,c
  1236  0008CA  0E0F               	movlw	15
  1237  0008CC  6E04               	movwf	LCD_XY@y^0,c
  1238  0008CE  EC8B  F018         	call	_LCD_XY	;wreg free
  1239  0008D2                     
  1240                           ;main.c: 134:                             sprintf(buffer1,"%i",l);
  1241  0008D2  0EA3               	movlw	low _buffer1
  1242  0008D4  6E58               	movwf	sprintf@s^0,c
  1243  0008D6  0E00               	movlw	high _buffer1
  1244  0008D8  6E59               	movwf	(sprintf@s+1)^0,c
  1245  0008DA  0E01               	movlw	low STR_1
  1246  0008DC  6E5A               	movwf	sprintf@fmt^0,c
  1247  0008DE  0E08               	movlw	high STR_1
  1248  0008E0  6E5B               	movwf	(sprintf@fmt+1)^0,c
  1249  0008E2  C0CD  F05C         	movff	_l,?_sprintf+4
  1250  0008E6  C0CE  F05D         	movff	_l+1,?_sprintf+5
  1251  0008EA  EC9E  F017         	call	_sprintf	;wreg free
  1252  0008EE                     
  1253                           ;main.c: 135:                              LCD_Cadena(buffer1);
  1254  0008EE  0EA3               	movlw	low _buffer1
  1255  0008F0  6E02               	movwf	LCD_Cadena@dato^0,c
  1256  0008F2  0E00               	movlw	high _buffer1
  1257  0008F4  6E03               	movwf	(LCD_Cadena@dato+1)^0,c
  1258  0008F6  EC54  F018         	call	_LCD_Cadena	;wreg free
  1259  0008FA                     
  1260                           ;main.c: 136:                                 LCD_XY(k,i);
  1261  0008FA  C0CF  F002         	movff	_k,LCD_XY@x
  1262  0008FE  C0D0  F003         	movff	_k+1,LCD_XY@x+1
  1263  000902  C080  F004         	movff	_i,LCD_XY@y
  1264  000906  C081  F005         	movff	_i+1,LCD_XY@y+1
  1265  00090A  EC8B  F018         	call	_LCD_XY	;wreg free
  1266  00090E                     
  1267                           ;main.c: 137:                                 LCD_Data(0);
  1268  00090E  0E00               	movlw	0
  1269  000910  EC72  F017         	call	_LCD_Data
  1270  000914                     
  1271                           ;main.c: 138:                                 LCD_XY(1,l);
  1272  000914  0E00               	movlw	0
  1273  000916  6E03               	movwf	(LCD_XY@x+1)^0,c
  1274  000918  0E01               	movlw	1
  1275  00091A  6E02               	movwf	LCD_XY@x^0,c
  1276  00091C  C0CD  F004         	movff	_l,LCD_XY@y
  1277  000920  C0CE  F005         	movff	_l+1,LCD_XY@y+1
  1278  000924  EC8B  F018         	call	_LCD_XY	;wreg free
  1279  000928                     
  1280                           ;main.c: 139:                                 LCD_Data(1);
  1281  000928  0E01               	movlw	1
  1282  00092A  EC72  F017         	call	_LCD_Data
  1283  00092E                     
  1284                           ;main.c: 140:                          tocar_nota(vel*cancion[j][0],cancion[j][1]);
  1285  00092E  0E00               	movlw	0
  1286  000930  6E0B               	movwf	___flmul@a^0,c
  1287  000932  0E00               	movlw	0
  1288  000934  6E0C               	movwf	(___flmul@a+1)^0,c
  1289  000936  0EFA               	movlw	250
  1290  000938  6E0D               	movwf	(___flmul@a+2)^0,c
  1291  00093A  0E43               	movlw	67
  1292  00093C  6E0E               	movwf	(___flmul@a+3)^0,c
  1293  00093E  C0C6  F001         	movff	cancion1@j,___wmul@multiplier
  1294  000942  C0C7  F002         	movff	cancion1@j+1,___wmul@multiplier+1
  1295  000946  0E00               	movlw	0
  1296  000948  6E04               	movwf	(___wmul@multiplicand+1)^0,c
  1297  00094A  0E0C               	movlw	12
  1298  00094C  6E03               	movwf	___wmul@multiplicand^0,c
  1299  00094E  ECA3  F018         	call	___wmul	;wreg free
  1300  000952  0EF0               	movlw	low _cancion
  1301  000954  2401               	addwf	?___wmul^0,w,c
  1302  000956  6ED9               	movwf	fsr2l,c
  1303  000958  0E05               	movlw	high _cancion
  1304  00095A  2002               	addwfc	(?___wmul+1)^0,w,c
  1305  00095C  6EDA               	movwf	fsr2h,c
  1306  00095E  CFDE F007          	movff	postinc2,___flmul@b
  1307  000962  CFDE F008          	movff	postinc2,___flmul@b+1
  1308  000966  CFDE F009          	movff	postinc2,___flmul@b+2
  1309  00096A  CFDE F00A          	movff	postinc2,___flmul@b+3
  1310  00096E  ECCF  F009         	call	___flmul	;wreg free
  1311  000972  C007  F028         	movff	?___flmul,___fltol@f1
  1312  000976  C008  F029         	movff	?___flmul+1,___fltol@f1+1
  1313  00097A  C009  F02A         	movff	?___flmul+2,___fltol@f1+2
  1314  00097E  C00A  F02B         	movff	?___flmul+3,___fltol@f1+3
  1315  000982  ECC6  F014         	call	___fltol	;wreg free
  1316  000986  C028  F0C2         	movff	?___fltol,_cancion1$1176
  1317  00098A  C029  F0C3         	movff	?___fltol+1,_cancion1$1176+1
  1318  00098E                     
  1319                           ;main.c: 140:                          tocar_nota(vel*cancion[j][0],cancion[j][1]);
  1320  00098E  C0C2  F032         	movff	_cancion1$1176,tocar_nota@duracion
  1321  000992  C0C3  F033         	movff	_cancion1$1176+1,tocar_nota@duracion+1
  1322  000996  C0C6  F001         	movff	cancion1@j,___wmul@multiplier
  1323  00099A  C0C7  F002         	movff	cancion1@j+1,___wmul@multiplier+1
  1324  00099E  0E00               	movlw	0
  1325  0009A0  6E04               	movwf	(___wmul@multiplicand+1)^0,c
  1326  0009A2  0E0C               	movlw	12
  1327  0009A4  6E03               	movwf	___wmul@multiplicand^0,c
  1328  0009A6  ECA3  F018         	call	___wmul	;wreg free
  1329  0009AA  0EF4               	movlw	low (_cancion+4)
  1330  0009AC  2401               	addwf	?___wmul^0,w,c
  1331  0009AE  6ED9               	movwf	fsr2l,c
  1332  0009B0  0E05               	movlw	high (_cancion+4)
  1333  0009B2  2002               	addwfc	(?___wmul+1)^0,w,c
  1334  0009B4  6EDA               	movwf	fsr2h,c
  1335  0009B6  CFDE F034          	movff	postinc2,tocar_nota@tfrec
  1336  0009BA  CFDE F035          	movff	postinc2,tocar_nota@tfrec+1
  1337  0009BE  CFDE F036          	movff	postinc2,tocar_nota@tfrec+2
  1338  0009C2  CFDE F037          	movff	postinc2,tocar_nota@tfrec+3
  1339  0009C6  ECA0  F012         	call	_tocar_nota	;wreg free
  1340                           
  1341                           ;main.c: 143:                      }
  1342  0009CA  EFA9  F005         	goto	l3113
  1343  0009CE                     l3087:
  1344  0009CE  C0C6  F001         	movff	cancion1@j,___wmul@multiplier
  1345  0009D2  C0C7  F002         	movff	cancion1@j+1,___wmul@multiplier+1
  1346  0009D6  0E00               	movlw	0
  1347  0009D8  6E04               	movwf	(___wmul@multiplicand+1)^0,c
  1348  0009DA  0E0C               	movlw	12
  1349  0009DC  6E03               	movwf	___wmul@multiplicand^0,c
  1350  0009DE  ECA3  F018         	call	___wmul	;wreg free
  1351  0009E2  0EF8               	movlw	low (_cancion+8)
  1352  0009E4  2401               	addwf	?___wmul^0,w,c
  1353  0009E6  6ED9               	movwf	fsr2l,c
  1354  0009E8  0E05               	movlw	high (_cancion+8)
  1355  0009EA  2002               	addwfc	(?___wmul+1)^0,w,c
  1356  0009EC  6EDA               	movwf	fsr2h,c
  1357  0009EE  CFDE F007          	movff	postinc2,___fleq@ff1
  1358  0009F2  CFDE F008          	movff	postinc2,___fleq@ff1+1
  1359  0009F6  CFDE F009          	movff	postinc2,___fleq@ff1+2
  1360  0009FA  CFDE F00A          	movff	postinc2,___fleq@ff1+3
  1361  0009FE  0E00               	movlw	0
  1362  000A00  6E0B               	movwf	___fleq@ff2^0,c
  1363  000A02  0E00               	movlw	0
  1364  000A04  6E0C               	movwf	(___fleq@ff2+1)^0,c
  1365  000A06  0E00               	movlw	0
  1366  000A08  6E0D               	movwf	(___fleq@ff2+2)^0,c
  1367  000A0A  0E00               	movlw	0
  1368  000A0C  6E0E               	movwf	(___fleq@ff2+3)^0,c
  1369  000A0E  EC6C  F016         	call	___fleq	;wreg free
  1370  000A12  A0D8               	btfss	status,0,c
  1371  000A14  EF0E  F005         	goto	u3241
  1372  000A18  EF10  F005         	goto	u3240
  1373  000A1C                     u3241:
  1374  000A1C  EFA9  F005         	goto	l3113
  1375  000A20                     u3240:
  1376  000A20                     
  1377                           ;main.c: 147:                                                        if(PORTBbits.RB0 ==
      +                           1){
  1378  000A20  A081               	btfss	129,0,c	;volatile
  1379  000A22  EF15  F005         	goto	u3251
  1380  000A26  EF17  F005         	goto	u3250
  1381  000A2A                     u3251:
  1382  000A2A  EF1E  F005         	goto	l3093
  1383  000A2E                     u3250:
  1384  000A2E                     
  1385                           ;main.c: 148:                                     k = 0;
  1386  000A2E  0E00               	movlw	0
  1387  000A30  0100               	movlb	0	; () banked
  1388  000A32  6FD0               	movwf	(_k+1)& (0+255),b
  1389  000A34  0E00               	movlw	0
  1390  000A36  6FCF               	movwf	_k& (0+255),b
  1391                           
  1392                           ;main.c: 149:                                 }
  1393  000A38  EF23  F005         	goto	l3095
  1394  000A3C                     l3093:
  1395                           
  1396                           ;main.c: 151:                                     k = 1;
  1397  000A3C  0E00               	movlw	0
  1398  000A3E  0100               	movlb	0	; () banked
  1399  000A40  6FD0               	movwf	(_k+1)& (0+255),b
  1400  000A42  0E01               	movlw	1
  1401  000A44  6FCF               	movwf	_k& (0+255),b
  1402  000A46                     l3095:
  1403                           
  1404                           ; BSR set to: 0
  1405                           ;main.c: 153:                                 LCD_XY(1,15);
  1406  000A46  0E00               	movlw	0
  1407  000A48  6E03               	movwf	(LCD_XY@x+1)^0,c
  1408  000A4A  0E01               	movlw	1
  1409  000A4C  6E02               	movwf	LCD_XY@x^0,c
  1410  000A4E  0E00               	movlw	0
  1411  000A50  6E05               	movwf	(LCD_XY@y+1)^0,c
  1412  000A52  0E0F               	movlw	15
  1413  000A54  6E04               	movwf	LCD_XY@y^0,c
  1414  000A56  EC8B  F018         	call	_LCD_XY	;wreg free
  1415  000A5A                     
  1416                           ;main.c: 154:                             sprintf(buffer1,"%i",l);
  1417  000A5A  0EA3               	movlw	low _buffer1
  1418  000A5C  6E58               	movwf	sprintf@s^0,c
  1419  000A5E  0E00               	movlw	high _buffer1
  1420  000A60  6E59               	movwf	(sprintf@s+1)^0,c
  1421  000A62  0E01               	movlw	low STR_1
  1422  000A64  6E5A               	movwf	sprintf@fmt^0,c
  1423  000A66  0E08               	movlw	high STR_1
  1424  000A68  6E5B               	movwf	(sprintf@fmt+1)^0,c
  1425  000A6A  C0CD  F05C         	movff	_l,?_sprintf+4
  1426  000A6E  C0CE  F05D         	movff	_l+1,?_sprintf+5
  1427  000A72  EC9E  F017         	call	_sprintf	;wreg free
  1428  000A76                     
  1429                           ;main.c: 155:                              LCD_Cadena(buffer1);
  1430  000A76  0EA3               	movlw	low _buffer1
  1431  000A78  6E02               	movwf	LCD_Cadena@dato^0,c
  1432  000A7A  0E00               	movlw	high _buffer1
  1433  000A7C  6E03               	movwf	(LCD_Cadena@dato+1)^0,c
  1434  000A7E  EC54  F018         	call	_LCD_Cadena	;wreg free
  1435  000A82                     
  1436                           ;main.c: 156:                                 LCD_XY(k,i);
  1437  000A82  C0CF  F002         	movff	_k,LCD_XY@x
  1438  000A86  C0D0  F003         	movff	_k+1,LCD_XY@x+1
  1439  000A8A  C080  F004         	movff	_i,LCD_XY@y
  1440  000A8E  C081  F005         	movff	_i+1,LCD_XY@y+1
  1441  000A92  EC8B  F018         	call	_LCD_XY	;wreg free
  1442  000A96                     
  1443                           ;main.c: 157:                                 LCD_Data(0);
  1444  000A96  0E00               	movlw	0
  1445  000A98  EC72  F017         	call	_LCD_Data
  1446  000A9C                     
  1447                           ;main.c: 158:                                 LCD_XY(1,l);
  1448  000A9C  0E00               	movlw	0
  1449  000A9E  6E03               	movwf	(LCD_XY@x+1)^0,c
  1450  000AA0  0E01               	movlw	1
  1451  000AA2  6E02               	movwf	LCD_XY@x^0,c
  1452  000AA4  C0CD  F004         	movff	_l,LCD_XY@y
  1453  000AA8  C0CE  F005         	movff	_l+1,LCD_XY@y+1
  1454  000AAC  EC8B  F018         	call	_LCD_XY	;wreg free
  1455  000AB0                     
  1456                           ;main.c: 159:                                 LCD_Data(1);
  1457  000AB0  0E01               	movlw	1
  1458  000AB2  EC72  F017         	call	_LCD_Data
  1459  000AB6                     
  1460                           ;main.c: 160:                          silencio(vel*cancion[j][0],cancion[j][1]);
  1461  000AB6  0E00               	movlw	0
  1462  000AB8  6E0B               	movwf	___flmul@a^0,c
  1463  000ABA  0E00               	movlw	0
  1464  000ABC  6E0C               	movwf	(___flmul@a+1)^0,c
  1465  000ABE  0EFA               	movlw	250
  1466  000AC0  6E0D               	movwf	(___flmul@a+2)^0,c
  1467  000AC2  0E43               	movlw	67
  1468  000AC4  6E0E               	movwf	(___flmul@a+3)^0,c
  1469  000AC6  C0C6  F001         	movff	cancion1@j,___wmul@multiplier
  1470  000ACA  C0C7  F002         	movff	cancion1@j+1,___wmul@multiplier+1
  1471  000ACE  0E00               	movlw	0
  1472  000AD0  6E04               	movwf	(___wmul@multiplicand+1)^0,c
  1473  000AD2  0E0C               	movlw	12
  1474  000AD4  6E03               	movwf	___wmul@multiplicand^0,c
  1475  000AD6  ECA3  F018         	call	___wmul	;wreg free
  1476  000ADA  0EF0               	movlw	low _cancion
  1477  000ADC  2401               	addwf	?___wmul^0,w,c
  1478  000ADE  6ED9               	movwf	fsr2l,c
  1479  000AE0  0E05               	movlw	high _cancion
  1480  000AE2  2002               	addwfc	(?___wmul+1)^0,w,c
  1481  000AE4  6EDA               	movwf	fsr2h,c
  1482  000AE6  CFDE F007          	movff	postinc2,___flmul@b
  1483  000AEA  CFDE F008          	movff	postinc2,___flmul@b+1
  1484  000AEE  CFDE F009          	movff	postinc2,___flmul@b+2
  1485  000AF2  CFDE F00A          	movff	postinc2,___flmul@b+3
  1486  000AF6  ECCF  F009         	call	___flmul	;wreg free
  1487  000AFA  C007  F028         	movff	?___flmul,___fltol@f1
  1488  000AFE  C008  F029         	movff	?___flmul+1,___fltol@f1+1
  1489  000B02  C009  F02A         	movff	?___flmul+2,___fltol@f1+2
  1490  000B06  C00A  F02B         	movff	?___flmul+3,___fltol@f1+3
  1491  000B0A  ECC6  F014         	call	___fltol	;wreg free
  1492  000B0E  C028  F0C4         	movff	?___fltol,_cancion1$1177
  1493  000B12  C029  F0C5         	movff	?___fltol+1,_cancion1$1177+1
  1494  000B16                     
  1495                           ;main.c: 160:                          silencio(vel*cancion[j][0],cancion[j][1]);
  1496  000B16  C0C4  F032         	movff	_cancion1$1177,silencio@duracion
  1497  000B1A  C0C5  F033         	movff	_cancion1$1177+1,silencio@duracion+1
  1498  000B1E  C0C6  F001         	movff	cancion1@j,___wmul@multiplier
  1499  000B22  C0C7  F002         	movff	cancion1@j+1,___wmul@multiplier+1
  1500  000B26  0E00               	movlw	0
  1501  000B28  6E04               	movwf	(___wmul@multiplicand+1)^0,c
  1502  000B2A  0E0C               	movlw	12
  1503  000B2C  6E03               	movwf	___wmul@multiplicand^0,c
  1504  000B2E  ECA3  F018         	call	___wmul	;wreg free
  1505  000B32  0EF4               	movlw	low (_cancion+4)
  1506  000B34  2401               	addwf	?___wmul^0,w,c
  1507  000B36  6ED9               	movwf	fsr2l,c
  1508  000B38  0E05               	movlw	high (_cancion+4)
  1509  000B3A  2002               	addwfc	(?___wmul+1)^0,w,c
  1510  000B3C  6EDA               	movwf	fsr2h,c
  1511  000B3E  CFDE F034          	movff	postinc2,silencio@tfrec
  1512  000B42  CFDE F035          	movff	postinc2,silencio@tfrec+1
  1513  000B46  CFDE F036          	movff	postinc2,silencio@tfrec+2
  1514  000B4A  CFDE F037          	movff	postinc2,silencio@tfrec+3
  1515  000B4E  EC5A  F013         	call	_silencio	;wreg free
  1516  000B52                     l3113:
  1517                           
  1518                           ;main.c: 165:             LCD_Comando(1);
  1519  000B52  0E01               	movlw	1
  1520  000B54  ECC7  F017         	call	_LCD_Comando
  1521  000B58                     
  1522                           ;main.c: 166:             i++;
  1523  000B58  0100               	movlb	0	; () banked
  1524  000B5A  4B80               	infsnz	_i& (0+255),f,b
  1525  000B5C  2B81               	incf	(_i+1)& (0+255),f,b
  1526  000B5E                     
  1527                           ; BSR set to: 0
  1528                           ;main.c: 167:             l--;
  1529  000B5E  07CD               	decf	_l& (0+255),f,b
  1530  000B60  A0D8               	btfss	status,0,c
  1531  000B62  07CE               	decf	(_l+1)& (0+255),f,b
  1532                           
  1533                           ;main.c: 169:         }
  1534  000B64  EF5E  F007         	goto	l3181
  1535  000B68                     l3119:
  1536                           
  1537                           ; BSR set to: 0
  1538  000B68  BF81               	btfsc	(_i+1)& (0+255),7,b
  1539  000B6A  EFBF  F005         	goto	u3261
  1540  000B6E  5181               	movf	(_i+1)& (0+255),w,b
  1541  000B70  E108               	bnz	u3260
  1542  000B72  0580               	decf	_i& (0+255),w,b
  1543  000B74  A0D8               	btfss	status,0,c
  1544  000B76  EFBF  F005         	goto	u3261
  1545  000B7A  EFC1  F005         	goto	u3260
  1546  000B7E                     u3261:
  1547  000B7E  EF5E  F007         	goto	l3181
  1548  000B82                     u3260:
  1549  000B82                     
  1550                           ; BSR set to: 0
  1551  000B82  BFCE               	btfsc	(_l+1)& (0+255),7,b
  1552  000B84  EFCF  F005         	goto	u3270
  1553  000B88  51CE               	movf	(_l+1)& (0+255),w,b
  1554  000B8A  E107               	bnz	u3271
  1555  000B8C  0E0F               	movlw	15
  1556  000B8E  5DCD               	subwf	_l& (0+255),w,b
  1557  000B90  B0D8               	btfsc	status,0,c
  1558  000B92  EFCD  F005         	goto	u3271
  1559  000B96  EFCF  F005         	goto	u3270
  1560  000B9A                     u3271:
  1561  000B9A  EF5E  F007         	goto	l3181
  1562  000B9E                     u3270:
  1563  000B9E                     
  1564                           ; BSR set to: 0
  1565                           ;main.c: 174:                       if(cancion[j][2] == 1){
  1566  000B9E  C0C6  F001         	movff	cancion1@j,___wmul@multiplier
  1567  000BA2  C0C7  F002         	movff	cancion1@j+1,___wmul@multiplier+1
  1568  000BA6  0E00               	movlw	0
  1569  000BA8  6E04               	movwf	(___wmul@multiplicand+1)^0,c
  1570  000BAA  0E0C               	movlw	12
  1571  000BAC  6E03               	movwf	___wmul@multiplicand^0,c
  1572  000BAE  ECA3  F018         	call	___wmul	;wreg free
  1573  000BB2  0EF8               	movlw	low (_cancion+8)
  1574  000BB4  2401               	addwf	?___wmul^0,w,c
  1575  000BB6  6ED9               	movwf	fsr2l,c
  1576  000BB8  0E05               	movlw	high (_cancion+8)
  1577  000BBA  2002               	addwfc	(?___wmul+1)^0,w,c
  1578  000BBC  6EDA               	movwf	fsr2h,c
  1579  000BBE  CFDE F007          	movff	postinc2,___fleq@ff1
  1580  000BC2  CFDE F008          	movff	postinc2,___fleq@ff1+1
  1581  000BC6  CFDE F009          	movff	postinc2,___fleq@ff1+2
  1582  000BCA  CFDE F00A          	movff	postinc2,___fleq@ff1+3
  1583  000BCE  0E00               	movlw	0
  1584  000BD0  6E0B               	movwf	___fleq@ff2^0,c
  1585  000BD2  0E00               	movlw	0
  1586  000BD4  6E0C               	movwf	(___fleq@ff2+1)^0,c
  1587  000BD6  0E80               	movlw	128
  1588  000BD8  6E0D               	movwf	(___fleq@ff2+2)^0,c
  1589  000BDA  0E3F               	movlw	63
  1590  000BDC  6E0E               	movwf	(___fleq@ff2+3)^0,c
  1591  000BDE  EC6C  F016         	call	___fleq	;wreg free
  1592  000BE2  A0D8               	btfss	status,0,c
  1593  000BE4  EFF6  F005         	goto	u3281
  1594  000BE8  EFF8  F005         	goto	u3280
  1595  000BEC                     u3281:
  1596  000BEC  EF93  F006         	goto	l3149
  1597  000BF0                     u3280:
  1598  000BF0                     
  1599                           ;main.c: 175:                                    if(PORTBbits.RB0 == 1){
  1600  000BF0  A081               	btfss	129,0,c	;volatile
  1601  000BF2  EFFD  F005         	goto	u3291
  1602  000BF6  EFFF  F005         	goto	u3290
  1603  000BFA                     u3291:
  1604  000BFA  EF06  F006         	goto	l3129
  1605  000BFE                     u3290:
  1606  000BFE                     
  1607                           ;main.c: 176:                                     k = 0;
  1608  000BFE  0E00               	movlw	0
  1609  000C00  0100               	movlb	0	; () banked
  1610  000C02  6FD0               	movwf	(_k+1)& (0+255),b
  1611  000C04  0E00               	movlw	0
  1612  000C06  6FCF               	movwf	_k& (0+255),b
  1613                           
  1614                           ;main.c: 177:                                 }
  1615  000C08  EF0B  F006         	goto	l3131
  1616  000C0C                     l3129:
  1617                           
  1618                           ;main.c: 179:                                     k = 1;
  1619  000C0C  0E00               	movlw	0
  1620  000C0E  0100               	movlb	0	; () banked
  1621  000C10  6FD0               	movwf	(_k+1)& (0+255),b
  1622  000C12  0E01               	movlw	1
  1623  000C14  6FCF               	movwf	_k& (0+255),b
  1624  000C16                     l3131:
  1625                           
  1626                           ; BSR set to: 0
  1627                           ;main.c: 181:                                 LCD_XY(1,15);
  1628  000C16  0E00               	movlw	0
  1629  000C18  6E03               	movwf	(LCD_XY@x+1)^0,c
  1630  000C1A  0E01               	movlw	1
  1631  000C1C  6E02               	movwf	LCD_XY@x^0,c
  1632  000C1E  0E00               	movlw	0
  1633  000C20  6E05               	movwf	(LCD_XY@y+1)^0,c
  1634  000C22  0E0F               	movlw	15
  1635  000C24  6E04               	movwf	LCD_XY@y^0,c
  1636  000C26  EC8B  F018         	call	_LCD_XY	;wreg free
  1637  000C2A                     
  1638                           ;main.c: 182:                             sprintf(buffer1,"%i",l);
  1639  000C2A  0EA3               	movlw	low _buffer1
  1640  000C2C  6E58               	movwf	sprintf@s^0,c
  1641  000C2E  0E00               	movlw	high _buffer1
  1642  000C30  6E59               	movwf	(sprintf@s+1)^0,c
  1643  000C32  0E01               	movlw	low STR_1
  1644  000C34  6E5A               	movwf	sprintf@fmt^0,c
  1645  000C36  0E08               	movlw	high STR_1
  1646  000C38  6E5B               	movwf	(sprintf@fmt+1)^0,c
  1647  000C3A  C0CD  F05C         	movff	_l,?_sprintf+4
  1648  000C3E  C0CE  F05D         	movff	_l+1,?_sprintf+5
  1649  000C42  EC9E  F017         	call	_sprintf	;wreg free
  1650  000C46                     
  1651                           ;main.c: 183:                              LCD_Cadena(buffer1);
  1652  000C46  0EA3               	movlw	low _buffer1
  1653  000C48  6E02               	movwf	LCD_Cadena@dato^0,c
  1654  000C4A  0E00               	movlw	high _buffer1
  1655  000C4C  6E03               	movwf	(LCD_Cadena@dato+1)^0,c
  1656  000C4E  EC54  F018         	call	_LCD_Cadena	;wreg free
  1657  000C52                     
  1658                           ;main.c: 184:                                 LCD_XY(k,i);
  1659  000C52  C0CF  F002         	movff	_k,LCD_XY@x
  1660  000C56  C0D0  F003         	movff	_k+1,LCD_XY@x+1
  1661  000C5A  C080  F004         	movff	_i,LCD_XY@y
  1662  000C5E  C081  F005         	movff	_i+1,LCD_XY@y+1
  1663  000C62  EC8B  F018         	call	_LCD_XY	;wreg free
  1664  000C66                     
  1665                           ;main.c: 185:                                 LCD_Data(0);
  1666  000C66  0E00               	movlw	0
  1667  000C68  EC72  F017         	call	_LCD_Data
  1668  000C6C                     
  1669                           ;main.c: 186:                                 LCD_XY(1,l);
  1670  000C6C  0E00               	movlw	0
  1671  000C6E  6E03               	movwf	(LCD_XY@x+1)^0,c
  1672  000C70  0E01               	movlw	1
  1673  000C72  6E02               	movwf	LCD_XY@x^0,c
  1674  000C74  C0CD  F004         	movff	_l,LCD_XY@y
  1675  000C78  C0CE  F005         	movff	_l+1,LCD_XY@y+1
  1676  000C7C  EC8B  F018         	call	_LCD_XY	;wreg free
  1677  000C80                     
  1678                           ;main.c: 187:                                 LCD_Data(2);
  1679  000C80  0E02               	movlw	2
  1680  000C82  EC72  F017         	call	_LCD_Data
  1681  000C86                     
  1682                           ;main.c: 188:                          tocar_nota(vel*cancion[j][0],cancion[j][1]);
  1683  000C86  0E00               	movlw	0
  1684  000C88  6E0B               	movwf	___flmul@a^0,c
  1685  000C8A  0E00               	movlw	0
  1686  000C8C  6E0C               	movwf	(___flmul@a+1)^0,c
  1687  000C8E  0EFA               	movlw	250
  1688  000C90  6E0D               	movwf	(___flmul@a+2)^0,c
  1689  000C92  0E43               	movlw	67
  1690  000C94  6E0E               	movwf	(___flmul@a+3)^0,c
  1691  000C96  C0C6  F001         	movff	cancion1@j,___wmul@multiplier
  1692  000C9A  C0C7  F002         	movff	cancion1@j+1,___wmul@multiplier+1
  1693  000C9E  0E00               	movlw	0
  1694  000CA0  6E04               	movwf	(___wmul@multiplicand+1)^0,c
  1695  000CA2  0E0C               	movlw	12
  1696  000CA4  6E03               	movwf	___wmul@multiplicand^0,c
  1697  000CA6  ECA3  F018         	call	___wmul	;wreg free
  1698  000CAA  0EF0               	movlw	low _cancion
  1699  000CAC  2401               	addwf	?___wmul^0,w,c
  1700  000CAE  6ED9               	movwf	fsr2l,c
  1701  000CB0  0E05               	movlw	high _cancion
  1702  000CB2  2002               	addwfc	(?___wmul+1)^0,w,c
  1703  000CB4  6EDA               	movwf	fsr2h,c
  1704  000CB6  CFDE F007          	movff	postinc2,___flmul@b
  1705  000CBA  CFDE F008          	movff	postinc2,___flmul@b+1
  1706  000CBE  CFDE F009          	movff	postinc2,___flmul@b+2
  1707  000CC2  CFDE F00A          	movff	postinc2,___flmul@b+3
  1708  000CC6  ECCF  F009         	call	___flmul	;wreg free
  1709  000CCA  C007  F028         	movff	?___flmul,___fltol@f1
  1710  000CCE  C008  F029         	movff	?___flmul+1,___fltol@f1+1
  1711  000CD2  C009  F02A         	movff	?___flmul+2,___fltol@f1+2
  1712  000CD6  C00A  F02B         	movff	?___flmul+3,___fltol@f1+3
  1713  000CDA  ECC6  F014         	call	___fltol	;wreg free
  1714  000CDE  C028  F0C2         	movff	?___fltol,_cancion1$1176
  1715  000CE2  C029  F0C3         	movff	?___fltol+1,_cancion1$1176+1
  1716  000CE6                     
  1717                           ;main.c: 188:                          tocar_nota(vel*cancion[j][0],cancion[j][1]);
  1718  000CE6  C0C2  F032         	movff	_cancion1$1176,tocar_nota@duracion
  1719  000CEA  C0C3  F033         	movff	_cancion1$1176+1,tocar_nota@duracion+1
  1720  000CEE  C0C6  F001         	movff	cancion1@j,___wmul@multiplier
  1721  000CF2  C0C7  F002         	movff	cancion1@j+1,___wmul@multiplier+1
  1722  000CF6  0E00               	movlw	0
  1723  000CF8  6E04               	movwf	(___wmul@multiplicand+1)^0,c
  1724  000CFA  0E0C               	movlw	12
  1725  000CFC  6E03               	movwf	___wmul@multiplicand^0,c
  1726  000CFE  ECA3  F018         	call	___wmul	;wreg free
  1727  000D02  0EF4               	movlw	low (_cancion+4)
  1728  000D04  2401               	addwf	?___wmul^0,w,c
  1729  000D06  6ED9               	movwf	fsr2l,c
  1730  000D08  0E05               	movlw	high (_cancion+4)
  1731  000D0A  2002               	addwfc	(?___wmul+1)^0,w,c
  1732  000D0C  6EDA               	movwf	fsr2h,c
  1733  000D0E  CFDE F034          	movff	postinc2,tocar_nota@tfrec
  1734  000D12  CFDE F035          	movff	postinc2,tocar_nota@tfrec+1
  1735  000D16  CFDE F036          	movff	postinc2,tocar_nota@tfrec+2
  1736  000D1A  CFDE F037          	movff	postinc2,tocar_nota@tfrec+3
  1737  000D1E  ECA0  F012         	call	_tocar_nota	;wreg free
  1738                           
  1739                           ;main.c: 191:                      }
  1740  000D22  EF55  F007         	goto	l3175
  1741  000D26                     l3149:
  1742  000D26  C0C6  F001         	movff	cancion1@j,___wmul@multiplier
  1743  000D2A  C0C7  F002         	movff	cancion1@j+1,___wmul@multiplier+1
  1744  000D2E  0E00               	movlw	0
  1745  000D30  6E04               	movwf	(___wmul@multiplicand+1)^0,c
  1746  000D32  0E0C               	movlw	12
  1747  000D34  6E03               	movwf	___wmul@multiplicand^0,c
  1748  000D36  ECA3  F018         	call	___wmul	;wreg free
  1749  000D3A  0EF8               	movlw	low (_cancion+8)
  1750  000D3C  2401               	addwf	?___wmul^0,w,c
  1751  000D3E  6ED9               	movwf	fsr2l,c
  1752  000D40  0E05               	movlw	high (_cancion+8)
  1753  000D42  2002               	addwfc	(?___wmul+1)^0,w,c
  1754  000D44  6EDA               	movwf	fsr2h,c
  1755  000D46  CFDE F007          	movff	postinc2,___fleq@ff1
  1756  000D4A  CFDE F008          	movff	postinc2,___fleq@ff1+1
  1757  000D4E  CFDE F009          	movff	postinc2,___fleq@ff1+2
  1758  000D52  CFDE F00A          	movff	postinc2,___fleq@ff1+3
  1759  000D56  0E00               	movlw	0
  1760  000D58  6E0B               	movwf	___fleq@ff2^0,c
  1761  000D5A  0E00               	movlw	0
  1762  000D5C  6E0C               	movwf	(___fleq@ff2+1)^0,c
  1763  000D5E  0E00               	movlw	0
  1764  000D60  6E0D               	movwf	(___fleq@ff2+2)^0,c
  1765  000D62  0E00               	movlw	0
  1766  000D64  6E0E               	movwf	(___fleq@ff2+3)^0,c
  1767  000D66  EC6C  F016         	call	___fleq	;wreg free
  1768  000D6A  A0D8               	btfss	status,0,c
  1769  000D6C  EFBA  F006         	goto	u3301
  1770  000D70  EFBC  F006         	goto	u3300
  1771  000D74                     u3301:
  1772  000D74  EF55  F007         	goto	l3175
  1773  000D78                     u3300:
  1774  000D78                     
  1775                           ;main.c: 194:                              if(PORTBbits.RB0 == 1){
  1776  000D78  A081               	btfss	129,0,c	;volatile
  1777  000D7A  EFC1  F006         	goto	u3311
  1778  000D7E  EFC3  F006         	goto	u3310
  1779  000D82                     u3311:
  1780  000D82  EFCA  F006         	goto	l3155
  1781  000D86                     u3310:
  1782  000D86                     
  1783                           ;main.c: 195:                                     k = 0;
  1784  000D86  0E00               	movlw	0
  1785  000D88  0100               	movlb	0	; () banked
  1786  000D8A  6FD0               	movwf	(_k+1)& (0+255),b
  1787  000D8C  0E00               	movlw	0
  1788  000D8E  6FCF               	movwf	_k& (0+255),b
  1789                           
  1790                           ;main.c: 196:                                 }
  1791  000D90  EFCF  F006         	goto	l3157
  1792  000D94                     l3155:
  1793                           
  1794                           ;main.c: 198:                                     k = 1;
  1795  000D94  0E00               	movlw	0
  1796  000D96  0100               	movlb	0	; () banked
  1797  000D98  6FD0               	movwf	(_k+1)& (0+255),b
  1798  000D9A  0E01               	movlw	1
  1799  000D9C  6FCF               	movwf	_k& (0+255),b
  1800  000D9E                     l3157:
  1801                           
  1802                           ; BSR set to: 0
  1803                           ;main.c: 200:                                LCD_XY(1,15);
  1804  000D9E  0E00               	movlw	0
  1805  000DA0  6E03               	movwf	(LCD_XY@x+1)^0,c
  1806  000DA2  0E01               	movlw	1
  1807  000DA4  6E02               	movwf	LCD_XY@x^0,c
  1808  000DA6  0E00               	movlw	0
  1809  000DA8  6E05               	movwf	(LCD_XY@y+1)^0,c
  1810  000DAA  0E0F               	movlw	15
  1811  000DAC  6E04               	movwf	LCD_XY@y^0,c
  1812  000DAE  EC8B  F018         	call	_LCD_XY	;wreg free
  1813  000DB2                     
  1814                           ;main.c: 201:                             sprintf(buffer1,"%i",l);
  1815  000DB2  0EA3               	movlw	low _buffer1
  1816  000DB4  6E58               	movwf	sprintf@s^0,c
  1817  000DB6  0E00               	movlw	high _buffer1
  1818  000DB8  6E59               	movwf	(sprintf@s+1)^0,c
  1819  000DBA  0E01               	movlw	low STR_1
  1820  000DBC  6E5A               	movwf	sprintf@fmt^0,c
  1821  000DBE  0E08               	movlw	high STR_1
  1822  000DC0  6E5B               	movwf	(sprintf@fmt+1)^0,c
  1823  000DC2  C0CD  F05C         	movff	_l,?_sprintf+4
  1824  000DC6  C0CE  F05D         	movff	_l+1,?_sprintf+5
  1825  000DCA  EC9E  F017         	call	_sprintf	;wreg free
  1826  000DCE                     
  1827                           ;main.c: 202:                              LCD_Cadena(buffer1);
  1828  000DCE  0EA3               	movlw	low _buffer1
  1829  000DD0  6E02               	movwf	LCD_Cadena@dato^0,c
  1830  000DD2  0E00               	movlw	high _buffer1
  1831  000DD4  6E03               	movwf	(LCD_Cadena@dato+1)^0,c
  1832  000DD6  EC54  F018         	call	_LCD_Cadena	;wreg free
  1833  000DDA                     
  1834                           ;main.c: 203:                                 LCD_XY(k,i);
  1835  000DDA  C0CF  F002         	movff	_k,LCD_XY@x
  1836  000DDE  C0D0  F003         	movff	_k+1,LCD_XY@x+1
  1837  000DE2  C080  F004         	movff	_i,LCD_XY@y
  1838  000DE6  C081  F005         	movff	_i+1,LCD_XY@y+1
  1839  000DEA  EC8B  F018         	call	_LCD_XY	;wreg free
  1840  000DEE                     
  1841                           ;main.c: 204:                                 LCD_Data(0);
  1842  000DEE  0E00               	movlw	0
  1843  000DF0  EC72  F017         	call	_LCD_Data
  1844  000DF4                     
  1845                           ;main.c: 205:                                 LCD_XY(1,l);
  1846  000DF4  0E00               	movlw	0
  1847  000DF6  6E03               	movwf	(LCD_XY@x+1)^0,c
  1848  000DF8  0E01               	movlw	1
  1849  000DFA  6E02               	movwf	LCD_XY@x^0,c
  1850  000DFC  C0CD  F004         	movff	_l,LCD_XY@y
  1851  000E00  C0CE  F005         	movff	_l+1,LCD_XY@y+1
  1852  000E04  EC8B  F018         	call	_LCD_XY	;wreg free
  1853  000E08                     
  1854                           ;main.c: 206:                                 LCD_Data(2);
  1855  000E08  0E02               	movlw	2
  1856  000E0A  EC72  F017         	call	_LCD_Data
  1857  000E0E                     
  1858                           ;main.c: 207:                          silencio(vel*cancion[j][0],cancion[j][1]);
  1859  000E0E  0E00               	movlw	0
  1860  000E10  6E0B               	movwf	___flmul@a^0,c
  1861  000E12  0E00               	movlw	0
  1862  000E14  6E0C               	movwf	(___flmul@a+1)^0,c
  1863  000E16  0EFA               	movlw	250
  1864  000E18  6E0D               	movwf	(___flmul@a+2)^0,c
  1865  000E1A  0E43               	movlw	67
  1866  000E1C  6E0E               	movwf	(___flmul@a+3)^0,c
  1867  000E1E  C0C6  F001         	movff	cancion1@j,___wmul@multiplier
  1868  000E22  C0C7  F002         	movff	cancion1@j+1,___wmul@multiplier+1
  1869  000E26  0E00               	movlw	0
  1870  000E28  6E04               	movwf	(___wmul@multiplicand+1)^0,c
  1871  000E2A  0E0C               	movlw	12
  1872  000E2C  6E03               	movwf	___wmul@multiplicand^0,c
  1873  000E2E  ECA3  F018         	call	___wmul	;wreg free
  1874  000E32  0EF0               	movlw	low _cancion
  1875  000E34  2401               	addwf	?___wmul^0,w,c
  1876  000E36  6ED9               	movwf	fsr2l,c
  1877  000E38  0E05               	movlw	high _cancion
  1878  000E3A  2002               	addwfc	(?___wmul+1)^0,w,c
  1879  000E3C  6EDA               	movwf	fsr2h,c
  1880  000E3E  CFDE F007          	movff	postinc2,___flmul@b
  1881  000E42  CFDE F008          	movff	postinc2,___flmul@b+1
  1882  000E46  CFDE F009          	movff	postinc2,___flmul@b+2
  1883  000E4A  CFDE F00A          	movff	postinc2,___flmul@b+3
  1884  000E4E  ECCF  F009         	call	___flmul	;wreg free
  1885  000E52  C007  F028         	movff	?___flmul,___fltol@f1
  1886  000E56  C008  F029         	movff	?___flmul+1,___fltol@f1+1
  1887  000E5A  C009  F02A         	movff	?___flmul+2,___fltol@f1+2
  1888  000E5E  C00A  F02B         	movff	?___flmul+3,___fltol@f1+3
  1889  000E62  ECC6  F014         	call	___fltol	;wreg free
  1890  000E66  C028  F0C4         	movff	?___fltol,_cancion1$1177
  1891  000E6A  C029  F0C5         	movff	?___fltol+1,_cancion1$1177+1
  1892  000E6E                     
  1893                           ;main.c: 207:                          silencio(vel*cancion[j][0],cancion[j][1]);
  1894  000E6E  C0C4  F032         	movff	_cancion1$1177,silencio@duracion
  1895  000E72  C0C5  F033         	movff	_cancion1$1177+1,silencio@duracion+1
  1896  000E76  C0C6  F001         	movff	cancion1@j,___wmul@multiplier
  1897  000E7A  C0C7  F002         	movff	cancion1@j+1,___wmul@multiplier+1
  1898  000E7E  0E00               	movlw	0
  1899  000E80  6E04               	movwf	(___wmul@multiplicand+1)^0,c
  1900  000E82  0E0C               	movlw	12
  1901  000E84  6E03               	movwf	___wmul@multiplicand^0,c
  1902  000E86  ECA3  F018         	call	___wmul	;wreg free
  1903  000E8A  0EF4               	movlw	low (_cancion+4)
  1904  000E8C  2401               	addwf	?___wmul^0,w,c
  1905  000E8E  6ED9               	movwf	fsr2l,c
  1906  000E90  0E05               	movlw	high (_cancion+4)
  1907  000E92  2002               	addwfc	(?___wmul+1)^0,w,c
  1908  000E94  6EDA               	movwf	fsr2h,c
  1909  000E96  CFDE F034          	movff	postinc2,silencio@tfrec
  1910  000E9A  CFDE F035          	movff	postinc2,silencio@tfrec+1
  1911  000E9E  CFDE F036          	movff	postinc2,silencio@tfrec+2
  1912  000EA2  CFDE F037          	movff	postinc2,silencio@tfrec+3
  1913  000EA6  EC5A  F013         	call	_silencio	;wreg free
  1914  000EAA                     l3175:
  1915                           
  1916                           ;main.c: 212:             LCD_Comando(1);
  1917  000EAA  0E01               	movlw	1
  1918  000EAC  ECC7  F017         	call	_LCD_Comando
  1919  000EB0                     
  1920                           ;main.c: 213:             i--;
  1921  000EB0  0100               	movlb	0	; () banked
  1922  000EB2  0780               	decf	_i& (0+255),f,b
  1923  000EB4  A0D8               	btfss	status,0,c
  1924  000EB6  0781               	decf	(_i+1)& (0+255),f,b
  1925  000EB8                     
  1926                           ; BSR set to: 0
  1927                           ;main.c: 214:             l++;
  1928  000EB8  4BCD               	infsnz	_l& (0+255),f,b
  1929  000EBA  2BCE               	incf	(_l+1)& (0+255),f,b
  1930  000EBC                     l3181:
  1931                           
  1932                           ; BSR set to: 0
  1933                           ;main.c: 219:     }
  1934  000EBC  4BC6               	infsnz	cancion1@j& (0+255),f,b
  1935  000EBE  2BC7               	incf	(cancion1@j+1)& (0+255),f,b
  1936  000EC0                     
  1937                           ; BSR set to: 0
  1938  000EC0  BFC7               	btfsc	(cancion1@j+1)& (0+255),7,b
  1939  000EC2  EF6C  F007         	goto	u3321
  1940  000EC6  51C7               	movf	(cancion1@j+1)& (0+255),w,b
  1941  000EC8  E109               	bnz	u3320
  1942  000ECA  0E2C               	movlw	44
  1943  000ECC  5DC6               	subwf	cancion1@j& (0+255),w,b
  1944  000ECE  A0D8               	btfss	status,0,c
  1945  000ED0  EF6C  F007         	goto	u3321
  1946  000ED4  EF6E  F007         	goto	u3320
  1947  000ED8                     u3321:
  1948  000ED8  EF08  F004         	goto	l3057
  1949  000EDC                     u3320:
  1950  000EDC                     
  1951                           ; BSR set to: 0
  1952  000EDC  0012               	return		;funcret
  1953  000EDE                     __end_of_cancion1:
  1954                           	callstack 0
  1955                           
  1956 ;; *************** function _tocar_nota *****************
  1957 ;; Defined at:
  1958 ;;		line 53 in file "main.c"
  1959 ;; Parameters:    Size  Location     Type
  1960 ;;  duracion        2   49[COMRAM] int 
  1961 ;;  tfrec           4   51[COMRAM] float 
  1962 ;; Auto vars:     Size  Location     Type
  1963 ;;  duracion2       2   60[COMRAM] int 
  1964 ;; Return value:  Size  Location     Type
  1965 ;;                  1    wreg      void 
  1966 ;; Registers used:
  1967 ;;		wreg, status,2, status,0, cstack
  1968 ;; Tracked objects:
  1969 ;;		On entry : 0/0
  1970 ;;		On exit  : 0/0
  1971 ;;		Unchanged: 0/0
  1972 ;; Data sizes:     COMRAM   BANK0   BANK1   BANK2   BANK3   BANK4   BANK5   BANK6   BANK7
  1973 ;;      Params:         6       0       0       0       0       0       0       0       0
  1974 ;;      Locals:         6       0       0       0       0       0       0       0       0
  1975 ;;      Temps:          1       0       0       0       0       0       0       0       0
  1976 ;;      Totals:        13       0       0       0       0       0       0       0       0
  1977 ;;Total ram usage:       13 bytes
  1978 ;; Hardware stack levels used: 1
  1979 ;; Hardware stack levels required when called: 2
  1980 ;; This function calls:
  1981 ;;		___fldiv
  1982 ;;		___flsub
  1983 ;;		___fltol
  1984 ;;		___xxtofl
  1985 ;; This function is called by:
  1986 ;;		_cancion1
  1987 ;; This function uses a non-reentrant model
  1988 ;;
  1989                           
  1990                           	psect	text3
  1991  002540                     __ptext3:
  1992                           	callstack 0
  1993  002540                     _tocar_nota:
  1994                           	callstack 27
  1995  002540                     
  1996                           ;main.c: 55:      int duracion2;;main.c: 56:      duracion2 = (int)duracion/tfrec;
  1997  002540  C034  F013         	movff	tocar_nota@tfrec,___fldiv@a
  1998  002544  C035  F014         	movff	tocar_nota@tfrec+1,___fldiv@a+1
  1999  002548  C036  F015         	movff	tocar_nota@tfrec+2,___fldiv@a+2
  2000  00254C  C037  F016         	movff	tocar_nota@tfrec+3,___fldiv@a+3
  2001  002550  C032  F001         	movff	tocar_nota@duracion,___xxtofl@val
  2002  002554  C033  F002         	movff	tocar_nota@duracion+1,___xxtofl@val+1
  2003  002558  0E00               	movlw	0
  2004  00255A  BE02               	btfsc	(___xxtofl@val+1)^0,7,c
  2005  00255C  0EFF               	movlw	-1
  2006  00255E  6E03               	movwf	(___xxtofl@val+2)^0,c
  2007  002560  6E04               	movwf	(___xxtofl@val+3)^0,c
  2008  002562  0E01               	movlw	1
  2009  002564  EC02  F011         	call	___xxtofl
  2010  002568  C001  F00F         	movff	?___xxtofl,___fldiv@b
  2011  00256C  C002  F010         	movff	?___xxtofl+1,___fldiv@b+1
  2012  002570  C003  F011         	movff	?___xxtofl+2,___fldiv@b+2
  2013  002574  C004  F012         	movff	?___xxtofl+3,___fldiv@b+3
  2014  002578  ECE4  F00B         	call	___fldiv	;wreg free
  2015  00257C  C00F  F028         	movff	?___fldiv,___fltol@f1
  2016  002580  C010  F029         	movff	?___fldiv+1,___fltol@f1+1
  2017  002584  C011  F02A         	movff	?___fldiv+2,___fltol@f1+2
  2018  002588  C012  F02B         	movff	?___fldiv+3,___fltol@f1+3
  2019  00258C  ECC6  F014         	call	___fltol	;wreg free
  2020  002590  C028  F03D         	movff	?___fltol,tocar_nota@duracion2
  2021  002594  C029  F03E         	movff	?___fltol+1,tocar_nota@duracion2+1
  2022                           
  2023                           ;main.c: 57:      tfrec = 255-((tfrec/2)/(.0002*128));
  2024  002598  0E00               	movlw	0
  2025  00259A  6E13               	movwf	___fldiv@a^0,c
  2026  00259C  0E00               	movlw	0
  2027  00259E  6E14               	movwf	(___fldiv@a+1)^0,c
  2028  0025A0  0E00               	movlw	0
  2029  0025A2  6E15               	movwf	(___fldiv@a+2)^0,c
  2030  0025A4  0E40               	movlw	64
  2031  0025A6  6E16               	movwf	(___fldiv@a+3)^0,c
  2032  0025A8  C034  F00F         	movff	tocar_nota@tfrec,___fldiv@b
  2033  0025AC  C035  F010         	movff	tocar_nota@tfrec+1,___fldiv@b+1
  2034  0025B0  C036  F011         	movff	tocar_nota@tfrec+2,___fldiv@b+2
  2035  0025B4  C037  F012         	movff	tocar_nota@tfrec+3,___fldiv@b+3
  2036  0025B8  ECE4  F00B         	call	___fldiv	;wreg free
  2037  0025BC  C00F  F039         	movff	?___fldiv,_tocar_nota$1174
  2038  0025C0  C010  F03A         	movff	?___fldiv+1,_tocar_nota$1174+1
  2039  0025C4  C011  F03B         	movff	?___fldiv+2,_tocar_nota$1174+2
  2040  0025C8  C012  F03C         	movff	?___fldiv+3,_tocar_nota$1174+3
  2041                           
  2042                           ;main.c: 57:      tfrec = 255-((tfrec/2)/(.0002*128));
  2043  0025CC  0E00               	movlw	0
  2044  0025CE  6E28               	movwf	___flsub@b^0,c
  2045  0025D0  0E00               	movlw	0
  2046  0025D2  6E29               	movwf	(___flsub@b+1)^0,c
  2047  0025D4  0E7F               	movlw	127
  2048  0025D6  6E2A               	movwf	(___flsub@b+2)^0,c
  2049  0025D8  0E43               	movlw	67
  2050  0025DA  6E2B               	movwf	(___flsub@b+3)^0,c
  2051  0025DC  0E17               	movlw	23
  2052  0025DE  6E13               	movwf	___fldiv@a^0,c
  2053  0025E0  0EB7               	movlw	183
  2054  0025E2  6E14               	movwf	(___fldiv@a+1)^0,c
  2055  0025E4  0ED1               	movlw	209
  2056  0025E6  6E15               	movwf	(___fldiv@a+2)^0,c
  2057  0025E8  0E3C               	movlw	60
  2058  0025EA  6E16               	movwf	(___fldiv@a+3)^0,c
  2059  0025EC  C039  F00F         	movff	_tocar_nota$1174,___fldiv@b
  2060  0025F0  C03A  F010         	movff	_tocar_nota$1174+1,___fldiv@b+1
  2061  0025F4  C03B  F011         	movff	_tocar_nota$1174+2,___fldiv@b+2
  2062  0025F8  C03C  F012         	movff	_tocar_nota$1174+3,___fldiv@b+3
  2063  0025FC  ECE4  F00B         	call	___fldiv	;wreg free
  2064  002600  C00F  F02C         	movff	?___fldiv,___flsub@a
  2065  002604  C010  F02D         	movff	?___fldiv+1,___flsub@a+1
  2066  002608  C011  F02E         	movff	?___fldiv+2,___flsub@a+2
  2067  00260C  C012  F02F         	movff	?___fldiv+3,___flsub@a+3
  2068  002610  ECEF  F017         	call	___flsub	;wreg free
  2069  002614  C028  F034         	movff	?___flsub,tocar_nota@tfrec
  2070  002618  C029  F035         	movff	?___flsub+1,tocar_nota@tfrec+1
  2071  00261C  C02A  F036         	movff	?___flsub+2,tocar_nota@tfrec+2
  2072  002620  C02B  F037         	movff	?___flsub+3,tocar_nota@tfrec+3
  2073  002624                     
  2074                           ;main.c: 59:        for(b=0;b<duracion2;b++){
  2075  002624  0E00               	movlw	0
  2076  002626  0100               	movlb	0	; () banked
  2077  002628  6F7D               	movwf	(_b+1)& (0+255),b
  2078  00262A  0E00               	movlw	0
  2079  00262C  6F7C               	movwf	_b& (0+255),b
  2080  00262E  EF4A  F013         	goto	l2855
  2081  002632                     l55:
  2082                           
  2083                           ; BSR set to: 0
  2084                           ;main.c: 61:             PORTAbits.RA0 = 1;
  2085  002632  8080               	bsf	128,0,c	;volatile
  2086  002634                     
  2087                           ; BSR set to: 0
  2088                           ;main.c: 62:            TMR0 = tfrec;
  2089  002634  C034  F028         	movff	tocar_nota@tfrec,___fltol@f1
  2090  002638  C035  F029         	movff	tocar_nota@tfrec+1,___fltol@f1+1
  2091  00263C  C036  F02A         	movff	tocar_nota@tfrec+2,___fltol@f1+2
  2092  002640  C037  F02B         	movff	tocar_nota@tfrec+3,___fltol@f1+3
  2093  002644  ECC6  F014         	call	___fltol	;wreg free
  2094  002648  C028  FFD6         	movff	?___fltol,4054	;volatile
  2095  00264C  C029  FFD7         	movff	?___fltol+1,4055	;volatile
  2096  002650                     l56:
  2097  002650  A4F2               	btfss	242,2,c	;volatile
  2098  002652  EF2D  F013         	goto	u2901
  2099  002656  EF2F  F013         	goto	u2900
  2100  00265A                     u2901:
  2101  00265A  EF28  F013         	goto	l56
  2102  00265E                     u2900:
  2103  00265E                     
  2104                           ;main.c: 64:            INTCONbits.TMR0IF=0;
  2105  00265E  94F2               	bcf	242,2,c	;volatile
  2106                           
  2107                           ;main.c: 66:         PORTAbits.RA0=0;
  2108  002660  9080               	bcf	128,0,c	;volatile
  2109  002662                     
  2110                           ;main.c: 67:          TMR0 = tfrec;
  2111  002662  C034  F028         	movff	tocar_nota@tfrec,___fltol@f1
  2112  002666  C035  F029         	movff	tocar_nota@tfrec+1,___fltol@f1+1
  2113  00266A  C036  F02A         	movff	tocar_nota@tfrec+2,___fltol@f1+2
  2114  00266E  C037  F02B         	movff	tocar_nota@tfrec+3,___fltol@f1+3
  2115  002672  ECC6  F014         	call	___fltol	;wreg free
  2116  002676  C028  FFD6         	movff	?___fltol,4054	;volatile
  2117  00267A  C029  FFD7         	movff	?___fltol+1,4055	;volatile
  2118  00267E                     l59:
  2119  00267E  A4F2               	btfss	242,2,c	;volatile
  2120  002680  EF44  F013         	goto	u2911
  2121  002684  EF46  F013         	goto	u2910
  2122  002688                     u2911:
  2123  002688  EF3F  F013         	goto	l59
  2124  00268C                     u2910:
  2125  00268C                     
  2126                           ;main.c: 69:          INTCONbits.TMR0IF=0;
  2127  00268C  94F2               	bcf	242,2,c	;volatile
  2128  00268E                     
  2129                           ;main.c: 70: }
  2130  00268E  0100               	movlb	0	; () banked
  2131  002690  4B7C               	infsnz	_b& (0+255),f,b
  2132  002692  2B7D               	incf	(_b+1)& (0+255),f,b
  2133  002694                     l2855:
  2134                           
  2135                           ; BSR set to: 0
  2136  002694  503D               	movf	tocar_nota@duracion2^0,w,c
  2137  002696  5D7C               	subwf	_b& (0+255),w,b
  2138  002698  517D               	movf	(_b+1)& (0+255),w,b
  2139  00269A  0A80               	xorlw	128
  2140  00269C  6E38               	movwf	??_tocar_nota^0,c
  2141  00269E  503E               	movf	(tocar_nota@duracion2+1)^0,w,c
  2142  0026A0  0A80               	xorlw	128
  2143  0026A2  5838               	subwfb	??_tocar_nota^0,w,c
  2144  0026A4  A0D8               	btfss	status,0,c
  2145  0026A6  EF57  F013         	goto	u2921
  2146  0026AA  EF59  F013         	goto	u2920
  2147  0026AE                     u2921:
  2148  0026AE  EF19  F013         	goto	l55
  2149  0026B2                     u2920:
  2150  0026B2                     
  2151                           ; BSR set to: 0
  2152  0026B2  0012               	return		;funcret
  2153  0026B4                     __end_of_tocar_nota:
  2154                           	callstack 0
  2155                           
  2156 ;; *************** function _sprintf *****************
  2157 ;; Defined at:
  2158 ;;		line 9 in file "C:\Program Files\Microchip\xc8\v2.32\pic\sources\c99\common\nf_sprintf.c"
  2159 ;; Parameters:    Size  Location     Type
  2160 ;;  s               2   87[COMRAM] PTR unsigned char 
  2161 ;;		 -> buffer1(23), 
  2162 ;;  fmt             2   89[COMRAM] PTR const unsigned char 
  2163 ;;		 -> STR_4(3), STR_3(3), STR_2(3), STR_1(3), 
  2164 ;; Auto vars:     Size  Location     Type
  2165 ;;  f               6    2[BANK0 ] struct _IO_FILE
  2166 ;;  ap              2    0[BANK0 ] PTR void [1]
  2167 ;;		 -> ?_sprintf(2), 
  2168 ;;  ret             2    0        int 
  2169 ;; Return value:  Size  Location     Type
  2170 ;;                  2   87[COMRAM] int 
  2171 ;; Registers used:
  2172 ;;		wreg, fsr1l, fsr1h, fsr2l, fsr2h, status,2, status,0, tblptrl, tblptrh, tblptru, cstack
  2173 ;; Tracked objects:
  2174 ;;		On entry : 0/0
  2175 ;;		On exit  : 0/0
  2176 ;;		Unchanged: 0/0
  2177 ;; Data sizes:     COMRAM   BANK0   BANK1   BANK2   BANK3   BANK4   BANK5   BANK6   BANK7
  2178 ;;      Params:         6       0       0       0       0       0       0       0       0
  2179 ;;      Locals:         0       8       0       0       0       0       0       0       0
  2180 ;;      Temps:          0       0       0       0       0       0       0       0       0
  2181 ;;      Totals:         6       8       0       0       0       0       0       0       0
  2182 ;;Total ram usage:       14 bytes
  2183 ;; Hardware stack levels used: 1
  2184 ;; Hardware stack levels required when called: 7
  2185 ;; This function calls:
  2186 ;;		_vfprintf
  2187 ;; This function is called by:
  2188 ;;		_cancion1
  2189 ;; This function uses a non-reentrant model
  2190 ;;
  2191                           
  2192                           	psect	text4
  2193  002F3C                     __ptext4:
  2194                           	callstack 0
  2195  002F3C                     _sprintf:
  2196                           	callstack 22
  2197  002F3C  0E5C               	movlw	low (?_sprintf+4)
  2198  002F3E  0100               	movlb	0	; () banked
  2199  002F40  6FBA               	movwf	sprintf@ap& (0+255),b
  2200  002F42  0E00               	movlw	high (?_sprintf+4)
  2201  002F44  6FBB               	movwf	(sprintf@ap+1)& (0+255),b
  2202  002F46  C058  F0BC         	movff	sprintf@s,sprintf@f
  2203  002F4A  C059  F0BD         	movff	sprintf@s+1,sprintf@f+1
  2204  002F4E                     
  2205                           ; BSR set to: 0
  2206  002F4E  0E00               	movlw	0
  2207  002F50  6FBF               	movwf	(sprintf@f+3)& (0+255),b
  2208  002F52  0E00               	movlw	0
  2209  002F54  6FBE               	movwf	(sprintf@f+2)& (0+255),b
  2210  002F56                     
  2211                           ; BSR set to: 0
  2212  002F56  0E00               	movlw	0
  2213  002F58  6FC1               	movwf	(sprintf@f+5)& (0+255),b
  2214  002F5A  0E00               	movlw	0
  2215  002F5C  6FC0               	movwf	(sprintf@f+4)& (0+255),b
  2216  002F5E                     
  2217                           ; BSR set to: 0
  2218  002F5E  0EBC               	movlw	low sprintf@f
  2219  002F60  6E50               	movwf	vfprintf@fp^0,c
  2220  002F62  0E00               	movlw	high sprintf@f
  2221  002F64  6E51               	movwf	(vfprintf@fp+1)^0,c
  2222  002F66  C05A  F052         	movff	sprintf@fmt,vfprintf@fmt
  2223  002F6A  C05B  F053         	movff	sprintf@fmt+1,vfprintf@fmt+1
  2224  002F6E  0EBA               	movlw	low sprintf@ap
  2225  002F70  6E54               	movwf	vfprintf@ap^0,c
  2226  002F72  0E00               	movlw	high sprintf@ap
  2227  002F74  6E55               	movwf	(vfprintf@ap+1)^0,c
  2228  002F76  EC41  F017         	call	_vfprintf	;wreg free
  2229  002F7A  0100               	movlb	0	; () banked
  2230  002F7C  51BE               	movf	(sprintf@f+2)& (0+255),w,b
  2231  002F7E  2458               	addwf	sprintf@s^0,w,c
  2232  002F80  6ED9               	movwf	fsr2l,c
  2233  002F82  51BF               	movf	(sprintf@f+3)& (0+255),w,b
  2234  002F84  2059               	addwfc	(sprintf@s+1)^0,w,c
  2235  002F86  6EDA               	movwf	fsr2h,c
  2236  002F88  0E00               	movlw	0
  2237  002F8A  6EDF               	movwf	indf2,c
  2238  002F8C                     
  2239                           ; BSR set to: 0
  2240  002F8C  0012               	return		;funcret
  2241  002F8E                     __end_of_sprintf:
  2242                           	callstack 0
  2243                           
  2244 ;; *************** function _vfprintf *****************
  2245 ;; Defined at:
  2246 ;;		line 1390 in file "C:\Program Files\Microchip\xc8\v2.32\pic\sources\c99\common\doprnt.c"
  2247 ;; Parameters:    Size  Location     Type
  2248 ;;  fp              2   79[COMRAM] PTR struct _IO_FILE
  2249 ;;		 -> sprintf@f(6), 
  2250 ;;  fmt             2   81[COMRAM] PTR const unsigned char 
  2251 ;;		 -> STR_4(3), STR_3(3), STR_2(3), STR_1(3), 
  2252 ;;  ap              2   83[COMRAM] PTR PTR void 
  2253 ;;		 -> sprintf@ap(2), 
  2254 ;; Auto vars:     Size  Location     Type
  2255 ;;  cfmt            2   85[COMRAM] PTR unsigned char 
  2256 ;;		 -> STR_4(3), STR_3(3), STR_2(3), STR_1(3), 
  2257 ;; Return value:  Size  Location     Type
  2258 ;;                  2   79[COMRAM] int 
  2259 ;; Registers used:
  2260 ;;		wreg, fsr1l, fsr1h, fsr2l, fsr2h, status,2, status,0, tblptrl, tblptrh, tblptru, cstack
  2261 ;; Tracked objects:
  2262 ;;		On entry : 0/0
  2263 ;;		On exit  : 0/0
  2264 ;;		Unchanged: 0/0
  2265 ;; Data sizes:     COMRAM   BANK0   BANK1   BANK2   BANK3   BANK4   BANK5   BANK6   BANK7
  2266 ;;      Params:         6       0       0       0       0       0       0       0       0
  2267 ;;      Locals:         2       0       0       0       0       0       0       0       0
  2268 ;;      Temps:          0       0       0       0       0       0       0       0       0
  2269 ;;      Totals:         8       0       0       0       0       0       0       0       0
  2270 ;;Total ram usage:        8 bytes
  2271 ;; Hardware stack levels used: 1
  2272 ;; Hardware stack levels required when called: 6
  2273 ;; This function calls:
  2274 ;;		_vfpfcnvrt
  2275 ;; This function is called by:
  2276 ;;		_sprintf
  2277 ;; This function uses a non-reentrant model
  2278 ;;
  2279                           
  2280                           	psect	text5
  2281  002E82                     __ptext5:
  2282                           	callstack 0
  2283  002E82                     _vfprintf:
  2284                           	callstack 22
  2285  002E82                     
  2286                           ;C:\Program Files\Microchip\xc8\v2.32\pic\sources\c99\common\doprnt.c: 1390: int vfprint
      +                          f(FILE *fp, const char *fmt, va_list ap);C:\Program Files\Microchip\xc8\v2.32\pic\source
      +                          s\c99\common\doprnt.c: 1391: {;C:\Program Files\Microchip\xc8\v2.32\pic\sources\c99\comm
      +                          on\doprnt.c: 1393:     char *cfmt;;C:\Program Files\Microchip\xc8\v2.32\pic\sources\c99\
      +                          common\doprnt.c: 1395:     cfmt = (char *)fmt;
  2287  002E82  C052  F056         	movff	vfprintf@fmt,vfprintf@cfmt
  2288  002E86  C053  F057         	movff	vfprintf@fmt+1,vfprintf@cfmt+1
  2289  002E8A                     
  2290                           ;C:\Program Files\Microchip\xc8\v2.32\pic\sources\c99\common\doprnt.c: 1396:     nout = 
      +                          0;
  2291  002E8A  0E00               	movlw	0
  2292  002E8C  0100               	movlb	0	; () banked
  2293  002E8E  6F75               	movwf	(_nout+1)& (0+255),b
  2294  002E90  0E00               	movlw	0
  2295  002E92  6F74               	movwf	_nout& (0+255),b
  2296                           
  2297                           ;C:\Program Files\Microchip\xc8\v2.32\pic\sources\c99\common\doprnt.c: 1397:     while (
      +                          *cfmt) {
  2298  002E94  EF5F  F017         	goto	l2843
  2299  002E98                     l2841:
  2300                           
  2301                           ; BSR set to: 0
  2302                           ;C:\Program Files\Microchip\xc8\v2.32\pic\sources\c99\common\doprnt.c: 1398:         nou
      +                          t += vfpfcnvrt(fp, &cfmt, ap);
  2303  002E98  C050  F040         	movff	vfprintf@fp,vfpfcnvrt@fp
  2304  002E9C  C051  F041         	movff	vfprintf@fp+1,vfpfcnvrt@fp+1
  2305  002EA0  0E56               	movlw	low vfprintf@cfmt
  2306  002EA2  6E42               	movwf	vfpfcnvrt@fmt^0,c
  2307  002EA4  0E00               	movlw	high vfprintf@cfmt
  2308  002EA6  6E43               	movwf	(vfpfcnvrt@fmt+1)^0,c
  2309  002EA8  C054  F044         	movff	vfprintf@ap,vfpfcnvrt@ap
  2310  002EAC  C055  F045         	movff	vfprintf@ap+1,vfpfcnvrt@ap+1
  2311  002EB0  EC28  F010         	call	_vfpfcnvrt	;wreg free
  2312  002EB4  5040               	movf	?_vfpfcnvrt^0,w,c
  2313  002EB6  0100               	movlb	0	; () banked
  2314  002EB8  2774               	addwf	_nout& (0+255),f,b
  2315  002EBA  5041               	movf	(?_vfpfcnvrt+1)^0,w,c
  2316  002EBC  2375               	addwfc	(_nout+1)& (0+255),f,b
  2317  002EBE                     l2843:
  2318                           
  2319                           ; BSR set to: 0
  2320                           ;C:\Program Files\Microchip\xc8\v2.32\pic\sources\c99\common\doprnt.c: 1397:     while (
      +                          *cfmt) {
  2321  002EBE  C056  FFF6         	movff	vfprintf@cfmt,tblptrl
  2322  002EC2  C057  FFF7         	movff	vfprintf@cfmt+1,tblptrh
  2323  002EC6                     	if	0	;tblptru may be non-zero
  2324  002EC6                     	endif
  2325  002EC6                     	if	0	;tblptru may be non-zero
  2326  002EC6                     	endif
  2327  002EC6  0008               	tblrd		*
  2328  002EC8  50F5               	movf	tablat,w,c
  2329  002ECA  0900               	iorlw	0
  2330  002ECC  A4D8               	btfss	status,2,c
  2331  002ECE  EF6B  F017         	goto	u2891
  2332  002ED2  EF6D  F017         	goto	u2890
  2333  002ED6                     u2891:
  2334  002ED6  EF4C  F017         	goto	l2841
  2335  002EDA                     u2890:
  2336  002EDA                     
  2337                           ; BSR set to: 0
  2338                           ;C:\Program Files\Microchip\xc8\v2.32\pic\sources\c99\common\doprnt.c: 1400:     return 
      +                          nout;
  2339  002EDA  C074  F050         	movff	_nout,?_vfprintf
  2340  002EDE  C075  F051         	movff	_nout+1,?_vfprintf+1
  2341  002EE2                     
  2342                           ; BSR set to: 0
  2343  002EE2  0012               	return		;funcret
  2344  002EE4                     __end_of_vfprintf:
  2345                           	callstack 0
  2346                           
  2347 ;; *************** function _vfpfcnvrt *****************
  2348 ;; Defined at:
  2349 ;;		line 692 in file "C:\Program Files\Microchip\xc8\v2.32\pic\sources\c99\common\doprnt.c"
  2350 ;; Parameters:    Size  Location     Type
  2351 ;;  fp              2   63[COMRAM] PTR struct _IO_FILE
  2352 ;;		 -> sprintf@f(6), 
  2353 ;;  fmt             2   65[COMRAM] PTR PTR unsigned char 
  2354 ;;		 -> vfprintf@cfmt(2), 
  2355 ;;  ap              2   67[COMRAM] PTR PTR void 
  2356 ;;		 -> sprintf@ap(2), 
  2357 ;; Auto vars:     Size  Location     Type
  2358 ;;  ll              8   71[COMRAM] long long 
  2359 ;;  llu             8    0        unsigned long long 
  2360 ;;  f               4    0        unsigned long long 
  2361 ;;  vp              3    0        PTR void 
  2362 ;;  ct              3    0        unsigned char [3]
  2363 ;;  cp              3    0        PTR unsigned char 
  2364 ;;  i               2    0        int 
  2365 ;;  done            2    0        int 
  2366 ;;  c               1    0        unsigned char 
  2367 ;; Return value:  Size  Location     Type
  2368 ;;                  2   63[COMRAM] int 
  2369 ;; Registers used:
  2370 ;;		wreg, fsr1l, fsr1h, fsr2l, fsr2h, status,2, status,0, tblptrl, tblptrh, tblptru, cstack
  2371 ;; Tracked objects:
  2372 ;;		On entry : 0/0
  2373 ;;		On exit  : 0/0
  2374 ;;		Unchanged: 0/0
  2375 ;; Data sizes:     COMRAM   BANK0   BANK1   BANK2   BANK3   BANK4   BANK5   BANK6   BANK7
  2376 ;;      Params:         6       0       0       0       0       0       0       0       0
  2377 ;;      Locals:         8       0       0       0       0       0       0       0       0
  2378 ;;      Temps:          2       0       0       0       0       0       0       0       0
  2379 ;;      Totals:        16       0       0       0       0       0       0       0       0
  2380 ;;Total ram usage:       16 bytes
  2381 ;; Hardware stack levels used: 1
  2382 ;; Hardware stack levels required when called: 5
  2383 ;; This function calls:
  2384 ;;		_dtoa
  2385 ;;		_fputc
  2386 ;; This function is called by:
  2387 ;;		_vfprintf
  2388 ;; This function uses a non-reentrant model
  2389 ;;
  2390                           
  2391                           	psect	text6
  2392  002050                     __ptext6:
  2393                           	callstack 0
  2394  002050                     _vfpfcnvrt:
  2395                           	callstack 22
  2396  002050                     
  2397                           ;C:\Program Files\Microchip\xc8\v2.32\pic\sources\c99\common\doprnt.c: 692: static int v
      +                          fpfcnvrt(FILE *fp, char *fmt[], va_list ap);C:\Program Files\Microchip\xc8\v2.32\pic\sou
      +                          rces\c99\common\doprnt.c: 693: {;C:\Program Files\Microchip\xc8\v2.32\pic\sources\c99\co
      +                          mmon\doprnt.c: 694:     char c, *cp, ct[3];;C:\Program Files\Microchip\xc8\v2.32\pic\sou
      +                          rces\c99\common\doprnt.c: 695:     int done, i;;C:\Program Files\Microchip\xc8\v2.32\pic
      +                          \sources\c99\common\doprnt.c: 696:     long long ll;;C:\Program Files\Microchip\xc8\v2.3
      +                          2\pic\sources\c99\common\doprnt.c: 697:     unsigned long long llu;
  2398  002050  C042  FFD9         	movff	vfpfcnvrt@fmt,fsr2l
  2399  002054  C043  FFDA         	movff	vfpfcnvrt@fmt+1,fsr2h
  2400  002058  CFDE FFF6          	movff	postinc2,tblptrl
  2401  00205C  CFDD FFF7          	movff	postdec2,tblptrh
  2402  002060                     	if	0	;tblptru may be non-zero
  2403  002060                     	endif
  2404  002060                     	if	0	;tblptru may be non-zero
  2405  002060                     	endif
  2406  002060  0008               	tblrd		*
  2407  002062  50F5               	movf	tablat,w,c
  2408  002064  0A25               	xorlw	37
  2409  002066  A4D8               	btfss	status,2,c
  2410  002068  EF38  F010         	goto	u2451
  2411  00206C  EF3A  F010         	goto	u2450
  2412  002070                     u2451:
  2413  002070  EFE6  F010         	goto	l2535
  2414  002074                     u2450:
  2415  002074                     
  2416                           ;C:\Program Files\Microchip\xc8\v2.32\pic\sources\c99\common\doprnt.c: 703:         ++*f
      +                          mt;
  2417  002074  C042  FFD9         	movff	vfpfcnvrt@fmt,fsr2l
  2418  002078  C043  FFDA         	movff	vfpfcnvrt@fmt+1,fsr2h
  2419  00207C  2ADE               	incf	postinc2,f,c
  2420  00207E  0E00               	movlw	0
  2421  002080  22DD               	addwfc	postdec2,f,c
  2422  002082                     
  2423                           ;C:\Program Files\Microchip\xc8\v2.32\pic\sources\c99\common\doprnt.c: 705:         flag
      +                          s = width = 0;
  2424  002082  0E00               	movlw	0
  2425  002084  0100               	movlb	0	; () banked
  2426  002086  6F77               	movwf	(_width+1)& (0+255),b
  2427  002088  0E00               	movlw	0
  2428  00208A  6F76               	movwf	_width& (0+255),b
  2429  00208C  C076  F05E         	movff	_width,_flags
  2430  002090  C077  F05F         	movff	_width+1,_flags+1
  2431  002094                     
  2432                           ; BSR set to: 0
  2433                           ;C:\Program Files\Microchip\xc8\v2.32\pic\sources\c99\common\doprnt.c: 706:         prec
      +                           = -1;
  2434  002094  6978               	setf	_prec& (0+255),b
  2435  002096  6979               	setf	(_prec+1)& (0+255),b
  2436  002098                     
  2437                           ; BSR set to: 0
  2438                           ;C:\Program Files\Microchip\xc8\v2.32\pic\sources\c99\common\doprnt.c: 847:         if (
      +                          (*fmt[0] == 'd') || (*fmt[0] == 'i')) {
  2439  002098  C042  FFD9         	movff	vfpfcnvrt@fmt,fsr2l
  2440  00209C  C043  FFDA         	movff	vfpfcnvrt@fmt+1,fsr2h
  2441  0020A0  CFDE FFF6          	movff	postinc2,tblptrl
  2442  0020A4  CFDD FFF7          	movff	postdec2,tblptrh
  2443  0020A8                     	if	0	;tblptru may be non-zero
  2444  0020A8                     	endif
  2445  0020A8                     	if	0	;tblptru may be non-zero
  2446  0020A8                     	endif
  2447  0020A8  0008               	tblrd		*
  2448  0020AA  50F5               	movf	tablat,w,c
  2449  0020AC  0A64               	xorlw	100
  2450  0020AE  B4D8               	btfsc	status,2,c
  2451  0020B0  EF5C  F010         	goto	u2461
  2452  0020B4  EF5E  F010         	goto	u2460
  2453  0020B8                     u2461:
  2454  0020B8  EF70  F010         	goto	l2513
  2455  0020BC                     u2460:
  2456  0020BC                     
  2457                           ; BSR set to: 0
  2458  0020BC  C042  FFD9         	movff	vfpfcnvrt@fmt,fsr2l
  2459  0020C0  C043  FFDA         	movff	vfpfcnvrt@fmt+1,fsr2h
  2460  0020C4  CFDE FFF6          	movff	postinc2,tblptrl
  2461  0020C8  CFDD FFF7          	movff	postdec2,tblptrh
  2462  0020CC                     	if	0	;tblptru may be non-zero
  2463  0020CC                     	endif
  2464  0020CC                     	if	0	;tblptru may be non-zero
  2465  0020CC                     	endif
  2466  0020CC  0008               	tblrd		*
  2467  0020CE  50F5               	movf	tablat,w,c
  2468  0020D0  0A69               	xorlw	105
  2469  0020D2  A4D8               	btfss	status,2,c
  2470  0020D4  EF6E  F010         	goto	u2471
  2471  0020D8  EF70  F010         	goto	u2470
  2472  0020DC                     u2471:
  2473  0020DC  EFB0  F010         	goto	l2519
  2474  0020E0                     u2470:
  2475  0020E0                     l2513:
  2476                           
  2477                           ; BSR set to: 0
  2478                           ;C:\Program Files\Microchip\xc8\v2.32\pic\sources\c99\common\doprnt.c: 849:             
      +                          ++*fmt;
  2479  0020E0  C042  FFD9         	movff	vfpfcnvrt@fmt,fsr2l
  2480  0020E4  C043  FFDA         	movff	vfpfcnvrt@fmt+1,fsr2h
  2481  0020E8  2ADE               	incf	postinc2,f,c
  2482  0020EA  0E00               	movlw	0
  2483  0020EC  22DD               	addwfc	postdec2,f,c
  2484                           
  2485                           ;C:\Program Files\Microchip\xc8\v2.32\pic\sources\c99\common\doprnt.c: 850:             
      +                          ll = (long long)(*(int *)__va_arg(*(int **)ap, (int)0));
  2486  0020EE  C044  FFD9         	movff	vfpfcnvrt@ap,fsr2l
  2487  0020F2  C045  FFDA         	movff	vfpfcnvrt@ap+1,fsr2h
  2488  0020F6  CFDF F046          	movff	indf2,??_vfpfcnvrt
  2489  0020FA  0E02               	movlw	2
  2490  0020FC  26DE               	addwf	postinc2,f,c
  2491  0020FE  CFDF F047          	movff	indf2,??_vfpfcnvrt+1
  2492  002102  0E00               	movlw	0
  2493  002104  22DD               	addwfc	postdec2,f,c
  2494  002106  C046  FFD9         	movff	??_vfpfcnvrt,fsr2l
  2495  00210A  C047  FFDA         	movff	??_vfpfcnvrt+1,fsr2h
  2496  00210E  CFDE F048          	movff	postinc2,vfpfcnvrt@ll
  2497  002112  CFDD F049          	movff	postdec2,vfpfcnvrt@ll+1
  2498  002116  0E00               	movlw	0
  2499  002118  BE49               	btfsc	(vfpfcnvrt@ll+1)^0,7,c
  2500  00211A  0EFF               	movlw	-1
  2501  00211C  6E4A               	movwf	(vfpfcnvrt@ll+2)^0,c
  2502  00211E  6E4B               	movwf	(vfpfcnvrt@ll+3)^0,c
  2503  002120  6E4C               	movwf	(vfpfcnvrt@ll+4)^0,c
  2504  002122  6E4D               	movwf	(vfpfcnvrt@ll+5)^0,c
  2505  002124  6E4E               	movwf	(vfpfcnvrt@ll+6)^0,c
  2506  002126  6E4F               	movwf	(vfpfcnvrt@ll+7)^0,c
  2507  002128                     
  2508                           ; BSR set to: 0
  2509                           ;C:\Program Files\Microchip\xc8\v2.32\pic\sources\c99\common\doprnt.c: 852:             
      +                          return dtoa(fp, ll);
  2510  002128  C040  F01C         	movff	vfpfcnvrt@fp,dtoa@fp
  2511  00212C  C041  F01D         	movff	vfpfcnvrt@fp+1,dtoa@fp+1
  2512  002130  C048  F01E         	movff	vfpfcnvrt@ll,dtoa@d
  2513  002134  C049  F01F         	movff	vfpfcnvrt@ll+1,dtoa@d+1
  2514  002138  C04A  F020         	movff	vfpfcnvrt@ll+2,dtoa@d+2
  2515  00213C  C04B  F021         	movff	vfpfcnvrt@ll+3,dtoa@d+3
  2516  002140  C04C  F022         	movff	vfpfcnvrt@ll+4,dtoa@d+4
  2517  002144  C04D  F023         	movff	vfpfcnvrt@ll+5,dtoa@d+5
  2518  002148  C04E  F024         	movff	vfpfcnvrt@ll+6,dtoa@d+6
  2519  00214C  C04F  F025         	movff	vfpfcnvrt@ll+7,dtoa@d+7
  2520  002150  ECB1  F00D         	call	_dtoa	;wreg free
  2521  002154  C01C  F040         	movff	?_dtoa,?_vfpfcnvrt
  2522  002158  C01D  F041         	movff	?_dtoa+1,?_vfpfcnvrt+1
  2523  00215C  EF01  F011         	goto	l890
  2524  002160                     l2519:
  2525                           
  2526                           ; BSR set to: 0
  2527                           ;C:\Program Files\Microchip\xc8\v2.32\pic\sources\c99\common\doprnt.c: 1372:         if 
      +                          ((*fmt)[0] == '%') {
  2528  002160  C042  FFD9         	movff	vfpfcnvrt@fmt,fsr2l
  2529  002164  C043  FFDA         	movff	vfpfcnvrt@fmt+1,fsr2h
  2530  002168  CFDE FFF6          	movff	postinc2,tblptrl
  2531  00216C  CFDD FFF7          	movff	postdec2,tblptrh
  2532  002170                     	if	0	;tblptru may be non-zero
  2533  002170                     	endif
  2534  002170                     	if	0	;tblptru may be non-zero
  2535  002170                     	endif
  2536  002170  0008               	tblrd		*
  2537  002172  50F5               	movf	tablat,w,c
  2538  002174  0A25               	xorlw	37
  2539  002176  A4D8               	btfss	status,2,c
  2540  002178  EFC0  F010         	goto	u2481
  2541  00217C  EFC2  F010         	goto	u2480
  2542  002180                     u2481:
  2543  002180  EFD9  F010         	goto	l2529
  2544  002184                     u2480:
  2545  002184                     
  2546                           ; BSR set to: 0
  2547                           ;C:\Program Files\Microchip\xc8\v2.32\pic\sources\c99\common\doprnt.c: 1373:            
      +                           ++*fmt;
  2548  002184  C042  FFD9         	movff	vfpfcnvrt@fmt,fsr2l
  2549  002188  C043  FFDA         	movff	vfpfcnvrt@fmt+1,fsr2h
  2550  00218C  2ADE               	incf	postinc2,f,c
  2551  00218E  0E00               	movlw	0
  2552  002190  22DD               	addwfc	postdec2,f,c
  2553  002192                     
  2554                           ; BSR set to: 0
  2555                           ;C:\Program Files\Microchip\xc8\v2.32\pic\sources\c99\common\doprnt.c: 1374:            
      +                           fputc((int)'%', fp);
  2556  002192  0E00               	movlw	0
  2557  002194  6E02               	movwf	(fputc@c+1)^0,c
  2558  002196  0E25               	movlw	37
  2559  002198  6E01               	movwf	fputc@c^0,c
  2560  00219A  C040  F003         	movff	vfpfcnvrt@fp,fputc@fp
  2561  00219E  C041  F004         	movff	vfpfcnvrt@fp+1,fputc@fp+1
  2562  0021A2  EC49  F015         	call	_fputc	;wreg free
  2563  0021A6                     l2525:
  2564                           
  2565                           ;C:\Program Files\Microchip\xc8\v2.32\pic\sources\c99\common\doprnt.c: 1375:            
      +                           return 1;
  2566  0021A6  0E00               	movlw	0
  2567  0021A8  6E41               	movwf	(?_vfpfcnvrt+1)^0,c
  2568  0021AA  0E01               	movlw	1
  2569  0021AC  6E40               	movwf	?_vfpfcnvrt^0,c
  2570  0021AE  EF01  F011         	goto	l890
  2571  0021B2                     l2529:
  2572                           
  2573                           ; BSR set to: 0
  2574                           ;C:\Program Files\Microchip\xc8\v2.32\pic\sources\c99\common\doprnt.c: 1379:         ++*
      +                          fmt;
  2575  0021B2  C042  FFD9         	movff	vfpfcnvrt@fmt,fsr2l
  2576  0021B6  C043  FFDA         	movff	vfpfcnvrt@fmt+1,fsr2h
  2577  0021BA  2ADE               	incf	postinc2,f,c
  2578  0021BC  0E00               	movlw	0
  2579  0021BE  22DD               	addwfc	postdec2,f,c
  2580  0021C0                     
  2581                           ; BSR set to: 0
  2582                           ;C:\Program Files\Microchip\xc8\v2.32\pic\sources\c99\common\doprnt.c: 1380:         ret
      +                          urn 0;
  2583  0021C0  0E00               	movlw	0
  2584  0021C2  6E41               	movwf	(?_vfpfcnvrt+1)^0,c
  2585  0021C4  0E00               	movlw	0
  2586  0021C6  6E40               	movwf	?_vfpfcnvrt^0,c
  2587  0021C8  EF01  F011         	goto	l890
  2588  0021CC                     l2535:
  2589                           
  2590                           ;C:\Program Files\Microchip\xc8\v2.32\pic\sources\c99\common\doprnt.c: 1384:     fputc((
      +                          int)(*fmt)[0], fp);
  2591  0021CC  C042  FFD9         	movff	vfpfcnvrt@fmt,fsr2l
  2592  0021D0  C043  FFDA         	movff	vfpfcnvrt@fmt+1,fsr2h
  2593  0021D4  CFDE FFF6          	movff	postinc2,tblptrl
  2594  0021D8  CFDD FFF7          	movff	postdec2,tblptrh
  2595  0021DC                     	if	0	;tblptru may be non-zero
  2596  0021DC                     	endif
  2597  0021DC                     	if	0	;tblptru may be non-zero
  2598  0021DC                     	endif
  2599  0021DC  0008               	tblrd		*
  2600  0021DE  50F5               	movf	tablat,w,c
  2601  0021E0  6E01               	movwf	fputc@c^0,c
  2602  0021E2  6A02               	clrf	(fputc@c+1)^0,c
  2603  0021E4  C040  F003         	movff	vfpfcnvrt@fp,fputc@fp
  2604  0021E8  C041  F004         	movff	vfpfcnvrt@fp+1,fputc@fp+1
  2605  0021EC  EC49  F015         	call	_fputc	;wreg free
  2606  0021F0                     
  2607                           ;C:\Program Files\Microchip\xc8\v2.32\pic\sources\c99\common\doprnt.c: 1385:     ++*fmt;
  2608  0021F0  C042  FFD9         	movff	vfpfcnvrt@fmt,fsr2l
  2609  0021F4  C043  FFDA         	movff	vfpfcnvrt@fmt+1,fsr2h
  2610  0021F8  2ADE               	incf	postinc2,f,c
  2611  0021FA  0E00               	movlw	0
  2612  0021FC  22DD               	addwfc	postdec2,f,c
  2613  0021FE  EFD3  F010         	goto	l2525
  2614  002202                     l890:
  2615  002202  0012               	return		;funcret
  2616  002204                     __end_of_vfpfcnvrt:
  2617                           	callstack 0
  2618                           
  2619 ;; *************** function _dtoa *****************
  2620 ;; Defined at:
  2621 ;;		line 287 in file "C:\Program Files\Microchip\xc8\v2.32\pic\sources\c99\common\doprnt.c"
  2622 ;; Parameters:    Size  Location     Type
  2623 ;;  fp              2   27[COMRAM] PTR struct _IO_FILE
  2624 ;;		 -> sprintf@f(6), 
  2625 ;;  d               8   29[COMRAM] long long 
  2626 ;; Auto vars:     Size  Location     Type
  2627 ;;  n               8   53[COMRAM] long long 
  2628 ;;  i               2   61[COMRAM] int 
  2629 ;;  s               2   51[COMRAM] int 
  2630 ;;  w               2   49[COMRAM] int 
  2631 ;;  p               2   47[COMRAM] int 
  2632 ;; Return value:  Size  Location     Type
  2633 ;;                  2   27[COMRAM] int 
  2634 ;; Registers used:
  2635 ;;		wreg, fsr1l, fsr1h, fsr2l, fsr2h, status,2, status,0, cstack
  2636 ;; Tracked objects:
  2637 ;;		On entry : 0/0
  2638 ;;		On exit  : 0/0
  2639 ;;		Unchanged: 0/0
  2640 ;; Data sizes:     COMRAM   BANK0   BANK1   BANK2   BANK3   BANK4   BANK5   BANK6   BANK7
  2641 ;;      Params:        10       0       0       0       0       0       0       0       0
  2642 ;;      Locals:        18       0       0       0       0       0       0       0       0
  2643 ;;      Temps:          8       0       0       0       0       0       0       0       0
  2644 ;;      Totals:        36       0       0       0       0       0       0       0       0
  2645 ;;Total ram usage:       36 bytes
  2646 ;; Hardware stack levels used: 1
  2647 ;; Hardware stack levels required when called: 4
  2648 ;; This function calls:
  2649 ;;		___aodiv
  2650 ;;		___aomod
  2651 ;;		_abs
  2652 ;;		_pad
  2653 ;; This function is called by:
  2654 ;;		_vfpfcnvrt
  2655 ;; This function uses a non-reentrant model
  2656 ;;
  2657                           
  2658                           	psect	text7
  2659  001B62                     __ptext7:
  2660                           	callstack 0
  2661  001B62                     _dtoa:
  2662                           	callstack 22
  2663  001B62                     
  2664                           ;C:\Program Files\Microchip\xc8\v2.32\pic\sources\c99\common\doprnt.c: 287: static int d
      +                          toa(FILE *fp, long long d);C:\Program Files\Microchip\xc8\v2.32\pic\sources\c99\common\d
      +                          oprnt.c: 288: {;C:\Program Files\Microchip\xc8\v2.32\pic\sources\c99\common\doprnt.c: 28
      +                          9:     int i, p, s, w;;C:\Program Files\Microchip\xc8\v2.32\pic\sources\c99\common\doprn
      +                          t.c: 290:     long long n;;C:\Program Files\Microchip\xc8\v2.32\pic\sources\c99\common\d
      +                          oprnt.c: 293:     n = d;
  2665  001B62  C01E  F036         	movff	dtoa@d,dtoa@n
  2666  001B66  C01F  F037         	movff	dtoa@d+1,dtoa@n+1
  2667  001B6A  C020  F038         	movff	dtoa@d+2,dtoa@n+2
  2668  001B6E  C021  F039         	movff	dtoa@d+3,dtoa@n+3
  2669  001B72  C022  F03A         	movff	dtoa@d+4,dtoa@n+4
  2670  001B76  C023  F03B         	movff	dtoa@d+5,dtoa@n+5
  2671  001B7A  C024  F03C         	movff	dtoa@d+6,dtoa@n+6
  2672  001B7E  C025  F03D         	movff	dtoa@d+7,dtoa@n+7
  2673  001B82                     
  2674                           ;C:\Program Files\Microchip\xc8\v2.32\pic\sources\c99\common\doprnt.c: 294:     s = n < 
      +                          0 ? 1 : 0;
  2675  001B82  BE3D               	btfsc	(dtoa@n+7)^0,7,c
  2676  001B84  EFC6  F00D         	goto	u1911
  2677  001B88  EFC9  F00D         	goto	u1910
  2678  001B8C                     u1911:
  2679  001B8C  0E01               	movlw	1
  2680  001B8E  EFCA  F00D         	goto	u1920
  2681  001B92                     u1910:
  2682  001B92  0E00               	movlw	0
  2683  001B94                     u1920:
  2684  001B94  6E34               	movwf	dtoa@s^0,c
  2685  001B96  6A35               	clrf	(dtoa@s+1)^0,c
  2686                           
  2687                           ;C:\Program Files\Microchip\xc8\v2.32\pic\sources\c99\common\doprnt.c: 295:     if (s) {
  2688  001B98  5034               	movf	dtoa@s^0,w,c
  2689  001B9A  1035               	iorwf	(dtoa@s+1)^0,w,c
  2690  001B9C  B4D8               	btfsc	status,2,c
  2691  001B9E  EFD3  F00D         	goto	u1931
  2692  001BA2  EFD5  F00D         	goto	u1930
  2693  001BA6                     u1931:
  2694  001BA6  EFE5  F00D         	goto	l2243
  2695  001BAA                     u1930:
  2696  001BAA                     
  2697                           ;C:\Program Files\Microchip\xc8\v2.32\pic\sources\c99\common\doprnt.c: 296:         n = 
      +                          -n;
  2698  001BAA  1E3D               	comf	(dtoa@n+7)^0,f,c
  2699  001BAC  1E3C               	comf	(dtoa@n+6)^0,f,c
  2700  001BAE  1E3B               	comf	(dtoa@n+5)^0,f,c
  2701  001BB0  1E3A               	comf	(dtoa@n+4)^0,f,c
  2702  001BB2  1E39               	comf	(dtoa@n+3)^0,f,c
  2703  001BB4  1E38               	comf	(dtoa@n+2)^0,f,c
  2704  001BB6  1E37               	comf	(dtoa@n+1)^0,f,c
  2705  001BB8  6C36               	negf	dtoa@n^0,c
  2706  001BBA  0E00               	movlw	0
  2707  001BBC  2237               	addwfc	(dtoa@n+1)^0,f,c
  2708  001BBE  2238               	addwfc	(dtoa@n+2)^0,f,c
  2709  001BC0  2239               	addwfc	(dtoa@n+3)^0,f,c
  2710  001BC2  223A               	addwfc	(dtoa@n+4)^0,f,c
  2711  001BC4  223B               	addwfc	(dtoa@n+5)^0,f,c
  2712  001BC6  223C               	addwfc	(dtoa@n+6)^0,f,c
  2713  001BC8  223D               	addwfc	(dtoa@n+7)^0,f,c
  2714  001BCA                     l2243:
  2715                           
  2716                           ;C:\Program Files\Microchip\xc8\v2.32\pic\sources\c99\common\doprnt.c: 300:     if (!(pr
      +                          ec < 0)) {
  2717  001BCA  0100               	movlb	0	; () banked
  2718  001BCC  BF79               	btfsc	(_prec+1)& (0+255),7,b
  2719  001BCE  EFEB  F00D         	goto	u1941
  2720  001BD2  EFED  F00D         	goto	u1940
  2721  001BD6                     u1941:
  2722  001BD6  EFEE  F00D         	goto	l2247
  2723  001BDA                     u1940:
  2724  001BDA                     
  2725                           ; BSR set to: 0
  2726                           ;C:\Program Files\Microchip\xc8\v2.32\pic\sources\c99\common\doprnt.c: 301:         flag
      +                          s &= ~(1 << 1);
  2727  001BDA  925E               	bcf	_flags^0,1,c
  2728  001BDC                     l2247:
  2729                           
  2730                           ; BSR set to: 0
  2731                           ;C:\Program Files\Microchip\xc8\v2.32\pic\sources\c99\common\doprnt.c: 303:     p = (0 <
      +                           prec) ? prec : 1;
  2732  001BDC  BF79               	btfsc	(_prec+1)& (0+255),7,b
  2733  001BDE  EFFB  F00D         	goto	u1950
  2734  001BE2  5179               	movf	(_prec+1)& (0+255),w,b
  2735  001BE4  E106               	bnz	u1951
  2736  001BE6  0578               	decf	_prec& (0+255),w,b
  2737  001BE8  B0D8               	btfsc	status,0,c
  2738  001BEA  EFF9  F00D         	goto	u1951
  2739  001BEE  EFFB  F00D         	goto	u1950
  2740  001BF2                     u1951:
  2741  001BF2  EF01  F00E         	goto	l863
  2742  001BF6                     u1950:
  2743  001BF6                     
  2744                           ; BSR set to: 0
  2745  001BF6  0E00               	movlw	0
  2746  001BF8  6E31               	movwf	(dtoa@p+1)^0,c
  2747  001BFA  0E01               	movlw	1
  2748  001BFC  6E30               	movwf	dtoa@p^0,c
  2749  001BFE  EF05  F00E         	goto	l865
  2750  001C02                     l863:
  2751                           
  2752                           ; BSR set to: 0
  2753  001C02  C078  F030         	movff	_prec,dtoa@p
  2754  001C06  C079  F031         	movff	_prec+1,dtoa@p+1
  2755  001C0A                     l865:
  2756                           
  2757                           ; BSR set to: 0
  2758                           ;C:\Program Files\Microchip\xc8\v2.32\pic\sources\c99\common\doprnt.c: 304:     w = widt
      +                          h;
  2759  001C0A  C076  F032         	movff	_width,dtoa@w
  2760  001C0E  C077  F033         	movff	_width+1,dtoa@w+1
  2761  001C12                     
  2762                           ; BSR set to: 0
  2763                           ;C:\Program Files\Microchip\xc8\v2.32\pic\sources\c99\common\doprnt.c: 305:     if (s ||
      +                           (flags & (1 << 2))) {
  2764  001C12  5034               	movf	dtoa@s^0,w,c
  2765  001C14  1035               	iorwf	(dtoa@s+1)^0,w,c
  2766  001C16  A4D8               	btfss	status,2,c
  2767  001C18  EF10  F00E         	goto	u1961
  2768  001C1C  EF12  F00E         	goto	u1960
  2769  001C20                     u1961:
  2770  001C20  EF19  F00E         	goto	l2255
  2771  001C24                     u1960:
  2772  001C24                     
  2773                           ; BSR set to: 0
  2774  001C24  A45E               	btfss	_flags^0,2,c
  2775  001C26  EF17  F00E         	goto	u1971
  2776  001C2A  EF19  F00E         	goto	u1970
  2777  001C2E                     u1971:
  2778  001C2E  EF1C  F00E         	goto	l2257
  2779  001C32                     u1970:
  2780  001C32                     l2255:
  2781                           
  2782                           ; BSR set to: 0
  2783                           ;C:\Program Files\Microchip\xc8\v2.32\pic\sources\c99\common\doprnt.c: 306:         --w;
  2784  001C32  0632               	decf	dtoa@w^0,f,c
  2785  001C34  A0D8               	btfss	status,0,c
  2786  001C36  0633               	decf	(dtoa@w+1)^0,f,c
  2787  001C38                     l2257:
  2788                           
  2789                           ; BSR set to: 0
  2790                           ;C:\Program Files\Microchip\xc8\v2.32\pic\sources\c99\common\doprnt.c: 310:     i = size
      +                          of(dbuf) - 1;
  2791  001C38  0E00               	movlw	0
  2792  001C3A  6E3F               	movwf	(dtoa@i+1)^0,c
  2793  001C3C  0E1F               	movlw	31
  2794  001C3E  6E3E               	movwf	dtoa@i^0,c
  2795  001C40                     
  2796                           ; BSR set to: 0
  2797                           ;C:\Program Files\Microchip\xc8\v2.32\pic\sources\c99\common\doprnt.c: 311:     dbuf[i] 
      +                          = '\0';
  2798  001C40  0E00               	movlw	0
  2799  001C42  6FA2               	movwf	(_dbuf+31)& (0+255),b
  2800                           
  2801                           ;C:\Program Files\Microchip\xc8\v2.32\pic\sources\c99\common\doprnt.c: 312:     while (!
      +                          (i < 1) && (n || (0 < p) || ((0 < w) && (flags & (1 << 1))))) {
  2802  001C44  EFA0  F00E         	goto	l2271
  2803  001C48                     l2261:
  2804                           
  2805                           ;C:\Program Files\Microchip\xc8\v2.32\pic\sources\c99\common\doprnt.c: 313:         --i;
  2806  001C48  063E               	decf	dtoa@i^0,f,c
  2807  001C4A  A0D8               	btfss	status,0,c
  2808  001C4C  063F               	decf	(dtoa@i+1)^0,f,c
  2809  001C4E                     
  2810                           ;C:\Program Files\Microchip\xc8\v2.32\pic\sources\c99\common\doprnt.c: 314:         dbuf
      +                          [i] = (char)((int)'0' + abs(n % 10));
  2811  001C4E  0E83               	movlw	low _dbuf
  2812  001C50  243E               	addwf	dtoa@i^0,w,c
  2813  001C52  6ED9               	movwf	fsr2l,c
  2814  001C54  0E00               	movlw	high _dbuf
  2815  001C56  203F               	addwfc	(dtoa@i+1)^0,w,c
  2816  001C58  6EDA               	movwf	fsr2h,c
  2817  001C5A  C036  F001         	movff	dtoa@n,___aomod@dividend
  2818  001C5E  C037  F002         	movff	dtoa@n+1,___aomod@dividend+1
  2819  001C62  C038  F003         	movff	dtoa@n+2,___aomod@dividend+2
  2820  001C66  C039  F004         	movff	dtoa@n+3,___aomod@dividend+3
  2821  001C6A  C03A  F005         	movff	dtoa@n+4,___aomod@dividend+4
  2822  001C6E  C03B  F006         	movff	dtoa@n+5,___aomod@dividend+5
  2823  001C72  C03C  F007         	movff	dtoa@n+6,___aomod@dividend+6
  2824  001C76  C03D  F008         	movff	dtoa@n+7,___aomod@dividend+7
  2825  001C7A  0E0A               	movlw	10
  2826  001C7C  6E09               	movwf	___aomod@divisor^0,c
  2827  001C7E  0E00               	movlw	0
  2828  001C80  6E0A               	movwf	(___aomod@divisor+1)^0,c
  2829  001C82  0E00               	movlw	0
  2830  001C84  6E0B               	movwf	(___aomod@divisor+2)^0,c
  2831  001C86  0E00               	movlw	0
  2832  001C88  6E0C               	movwf	(___aomod@divisor+3)^0,c
  2833  001C8A  0E00               	movlw	0
  2834  001C8C  6E0D               	movwf	(___aomod@divisor+4)^0,c
  2835  001C8E  0E00               	movlw	0
  2836  001C90  6E0E               	movwf	(___aomod@divisor+5)^0,c
  2837  001C92  0E00               	movlw	0
  2838  001C94  6E0F               	movwf	(___aomod@divisor+6)^0,c
  2839  001C96  0E00               	movlw	0
  2840  001C98  6E10               	movwf	(___aomod@divisor+7)^0,c
  2841  001C9A  EC14  F014         	call	___aomod	;wreg free
  2842  001C9E  C001  F026         	movff	?___aomod,??_dtoa
  2843  001CA2  C002  F027         	movff	?___aomod+1,??_dtoa+1
  2844  001CA6  C003  F028         	movff	?___aomod+2,??_dtoa+2
  2845  001CAA  C004  F029         	movff	?___aomod+3,??_dtoa+3
  2846  001CAE  C005  F02A         	movff	?___aomod+4,??_dtoa+4
  2847  001CB2  C006  F02B         	movff	?___aomod+5,??_dtoa+5
  2848  001CB6  C007  F02C         	movff	?___aomod+6,??_dtoa+6
  2849  001CBA  C008  F02D         	movff	?___aomod+7,??_dtoa+7
  2850  001CBE  C026  F013         	movff	??_dtoa,abs@a
  2851  001CC2  C028  F014         	movff	??_dtoa+2,abs@a+1
  2852  001CC6  EC34  F018         	call	_abs	;wreg free
  2853  001CCA  5013               	movf	?_abs^0,w,c
  2854  001CCC  0F30               	addlw	48
  2855  001CCE  6EDF               	movwf	indf2,c
  2856  001CD0                     
  2857                           ;C:\Program Files\Microchip\xc8\v2.32\pic\sources\c99\common\doprnt.c: 315:         --p;
  2858  001CD0  0630               	decf	dtoa@p^0,f,c
  2859  001CD2  A0D8               	btfss	status,0,c
  2860  001CD4  0631               	decf	(dtoa@p+1)^0,f,c
  2861  001CD6                     
  2862                           ;C:\Program Files\Microchip\xc8\v2.32\pic\sources\c99\common\doprnt.c: 316:         --w;
  2863  001CD6  0632               	decf	dtoa@w^0,f,c
  2864  001CD8  A0D8               	btfss	status,0,c
  2865  001CDA  0633               	decf	(dtoa@w+1)^0,f,c
  2866  001CDC                     
  2867                           ;C:\Program Files\Microchip\xc8\v2.32\pic\sources\c99\common\doprnt.c: 317:         n = 
      +                          n / 10;
  2868  001CDC  C036  F001         	movff	dtoa@n,___aodiv@dividend
  2869  001CE0  C037  F002         	movff	dtoa@n+1,___aodiv@dividend+1
  2870  001CE4  C038  F003         	movff	dtoa@n+2,___aodiv@dividend+2
  2871  001CE8  C039  F004         	movff	dtoa@n+3,___aodiv@dividend+3
  2872  001CEC  C03A  F005         	movff	dtoa@n+4,___aodiv@dividend+4
  2873  001CF0  C03B  F006         	movff	dtoa@n+5,___aodiv@dividend+5
  2874  001CF4  C03C  F007         	movff	dtoa@n+6,___aodiv@dividend+6
  2875  001CF8  C03D  F008         	movff	dtoa@n+7,___aodiv@dividend+7
  2876  001CFC  0E0A               	movlw	10
  2877  001CFE  6E09               	movwf	___aodiv@divisor^0,c
  2878  001D00  0E00               	movlw	0
  2879  001D02  6E0A               	movwf	(___aodiv@divisor+1)^0,c
  2880  001D04  0E00               	movlw	0
  2881  001D06  6E0B               	movwf	(___aodiv@divisor+2)^0,c
  2882  001D08  0E00               	movlw	0
  2883  001D0A  6E0C               	movwf	(___aodiv@divisor+3)^0,c
  2884  001D0C  0E00               	movlw	0
  2885  001D0E  6E0D               	movwf	(___aodiv@divisor+4)^0,c
  2886  001D10  0E00               	movlw	0
  2887  001D12  6E0E               	movwf	(___aodiv@divisor+5)^0,c
  2888  001D14  0E00               	movlw	0
  2889  001D16  6E0F               	movwf	(___aodiv@divisor+6)^0,c
  2890  001D18  0E00               	movlw	0
  2891  001D1A  6E10               	movwf	(___aodiv@divisor+7)^0,c
  2892  001D1C  ECDC  F011         	call	___aodiv	;wreg free
  2893  001D20  C001  F036         	movff	?___aodiv,dtoa@n
  2894  001D24  C002  F037         	movff	?___aodiv+1,dtoa@n+1
  2895  001D28  C003  F038         	movff	?___aodiv+2,dtoa@n+2
  2896  001D2C  C004  F039         	movff	?___aodiv+3,dtoa@n+3
  2897  001D30  C005  F03A         	movff	?___aodiv+4,dtoa@n+4
  2898  001D34  C006  F03B         	movff	?___aodiv+5,dtoa@n+5
  2899  001D38  C007  F03C         	movff	?___aodiv+6,dtoa@n+6
  2900  001D3C  C008  F03D         	movff	?___aodiv+7,dtoa@n+7
  2901  001D40                     l2271:
  2902                           
  2903                           ;C:\Program Files\Microchip\xc8\v2.32\pic\sources\c99\common\doprnt.c: 312:     while (!
      +                          (i < 1) && (n || (0 < p) || ((0 < w) && (flags & (1 << 1))))) {
  2904  001D40  BE3F               	btfsc	(dtoa@i+1)^0,7,c
  2905  001D42  EFAB  F00E         	goto	u1981
  2906  001D46  503F               	movf	(dtoa@i+1)^0,w,c
  2907  001D48  E108               	bnz	u1980
  2908  001D4A  043E               	decf	dtoa@i^0,w,c
  2909  001D4C  A0D8               	btfss	status,0,c
  2910  001D4E  EFAB  F00E         	goto	u1981
  2911  001D52  EFAD  F00E         	goto	u1980
  2912  001D56                     u1981:
  2913  001D56  EFDD  F00E         	goto	l2281
  2914  001D5A                     u1980:
  2915  001D5A  5036               	movf	dtoa@n^0,w,c
  2916  001D5C  1037               	iorwf	(dtoa@n+1)^0,w,c
  2917  001D5E  1038               	iorwf	(dtoa@n+2)^0,w,c
  2918  001D60  1039               	iorwf	(dtoa@n+3)^0,w,c
  2919  001D62  103A               	iorwf	(dtoa@n+4)^0,w,c
  2920  001D64  103B               	iorwf	(dtoa@n+5)^0,w,c
  2921  001D66  103C               	iorwf	(dtoa@n+6)^0,w,c
  2922  001D68  103D               	iorwf	(dtoa@n+7)^0,w,c
  2923  001D6A  A4D8               	btfss	status,2,c
  2924  001D6C  EFBA  F00E         	goto	u1991
  2925  001D70  EFBC  F00E         	goto	u1990
  2926  001D74                     u1991:
  2927  001D74  EF24  F00E         	goto	l2261
  2928  001D78                     u1990:
  2929  001D78  BE31               	btfsc	(dtoa@p+1)^0,7,c
  2930  001D7A  EFC9  F00E         	goto	u2000
  2931  001D7E  5031               	movf	(dtoa@p+1)^0,w,c
  2932  001D80  E106               	bnz	u2001
  2933  001D82  0430               	decf	dtoa@p^0,w,c
  2934  001D84  B0D8               	btfsc	status,0,c
  2935  001D86  EFC7  F00E         	goto	u2001
  2936  001D8A  EFC9  F00E         	goto	u2000
  2937  001D8E                     u2001:
  2938  001D8E  EF24  F00E         	goto	l2261
  2939  001D92                     u2000:
  2940  001D92  BE33               	btfsc	(dtoa@w+1)^0,7,c
  2941  001D94  EFD4  F00E         	goto	u2011
  2942  001D98  5033               	movf	(dtoa@w+1)^0,w,c
  2943  001D9A  E108               	bnz	u2010
  2944  001D9C  0432               	decf	dtoa@w^0,w,c
  2945  001D9E  A0D8               	btfss	status,0,c
  2946  001DA0  EFD4  F00E         	goto	u2011
  2947  001DA4  EFD6  F00E         	goto	u2010
  2948  001DA8                     u2011:
  2949  001DA8  EFDD  F00E         	goto	l2281
  2950  001DAC                     u2010:
  2951  001DAC  B25E               	btfsc	_flags^0,1,c
  2952  001DAE  EFDB  F00E         	goto	u2021
  2953  001DB2  EFDD  F00E         	goto	u2020
  2954  001DB6                     u2021:
  2955  001DB6  EF24  F00E         	goto	l2261
  2956  001DBA                     u2020:
  2957  001DBA                     l2281:
  2958                           
  2959                           ;C:\Program Files\Microchip\xc8\v2.32\pic\sources\c99\common\doprnt.c: 321:     if (s ||
      +                           (flags & (1 << 2))) {
  2960  001DBA  5034               	movf	dtoa@s^0,w,c
  2961  001DBC  1035               	iorwf	(dtoa@s+1)^0,w,c
  2962  001DBE  A4D8               	btfss	status,2,c
  2963  001DC0  EFE4  F00E         	goto	u2031
  2964  001DC4  EFE6  F00E         	goto	u2030
  2965  001DC8                     u2031:
  2966  001DC8  EFED  F00E         	goto	l2285
  2967  001DCC                     u2030:
  2968  001DCC  A45E               	btfss	_flags^0,2,c
  2969  001DCE  EFEB  F00E         	goto	u2041
  2970  001DD2  EFED  F00E         	goto	u2040
  2971  001DD6                     u2041:
  2972  001DD6  EF0B  F00F         	goto	l2295
  2973  001DDA                     u2040:
  2974  001DDA                     l2285:
  2975                           
  2976                           ;C:\Program Files\Microchip\xc8\v2.32\pic\sources\c99\common\doprnt.c: 322:         --i;
  2977  001DDA  063E               	decf	dtoa@i^0,f,c
  2978  001DDC  A0D8               	btfss	status,0,c
  2979  001DDE  063F               	decf	(dtoa@i+1)^0,f,c
  2980  001DE0                     
  2981                           ;C:\Program Files\Microchip\xc8\v2.32\pic\sources\c99\common\doprnt.c: 323:         dbuf
      +                          [i] = s ? '-' : '+';
  2982  001DE0  5034               	movf	dtoa@s^0,w,c
  2983  001DE2  1035               	iorwf	(dtoa@s+1)^0,w,c
  2984  001DE4  A4D8               	btfss	status,2,c
  2985  001DE6  EFF7  F00E         	goto	u2051
  2986  001DEA  EFF9  F00E         	goto	u2050
  2987  001DEE                     u2051:
  2988  001DEE  EFFF  F00E         	goto	l2291
  2989  001DF2                     u2050:
  2990  001DF2  0E00               	movlw	0
  2991  001DF4  6E2F               	movwf	(_dtoa$934+1)^0,c
  2992  001DF6  0E2B               	movlw	43
  2993  001DF8  6E2E               	movwf	_dtoa$934^0,c
  2994  001DFA  EF03  F00F         	goto	l2293
  2995  001DFE                     l2291:
  2996  001DFE  0E00               	movlw	0
  2997  001E00  6E2F               	movwf	(_dtoa$934+1)^0,c
  2998  001E02  0E2D               	movlw	45
  2999  001E04  6E2E               	movwf	_dtoa$934^0,c
  3000  001E06                     l2293:
  3001  001E06  0E83               	movlw	low _dbuf
  3002  001E08  243E               	addwf	dtoa@i^0,w,c
  3003  001E0A  6ED9               	movwf	fsr2l,c
  3004  001E0C  0E00               	movlw	high _dbuf
  3005  001E0E  203F               	addwfc	(dtoa@i+1)^0,w,c
  3006  001E10  6EDA               	movwf	fsr2h,c
  3007  001E12  C02E  FFDF         	movff	_dtoa$934,indf2
  3008  001E16                     l2295:
  3009                           
  3010                           ;C:\Program Files\Microchip\xc8\v2.32\pic\sources\c99\common\doprnt.c: 327:     return p
      +                          ad(fp, &dbuf[i], w);
  3011  001E16  C01C  F011         	movff	dtoa@fp,pad@fp
  3012  001E1A  C01D  F012         	movff	dtoa@fp+1,pad@fp+1
  3013  001E1E  0E83               	movlw	low _dbuf
  3014  001E20  243E               	addwf	dtoa@i^0,w,c
  3015  001E22  6E13               	movwf	pad@buf^0,c
  3016  001E24  0E00               	movlw	high _dbuf
  3017  001E26  203F               	addwfc	(dtoa@i+1)^0,w,c
  3018  001E28  6E14               	movwf	(pad@buf+1)^0,c
  3019  001E2A  C032  F015         	movff	dtoa@w,pad@p
  3020  001E2E  C033  F016         	movff	dtoa@w+1,pad@p+1
  3021  001E32  ECAE  F015         	call	_pad	;wreg free
  3022  001E36  C011  F01C         	movff	?_pad,?_dtoa
  3023  001E3A  C012  F01D         	movff	?_pad+1,?_dtoa+1
  3024  001E3E  0012               	return		;funcret
  3025  001E40                     __end_of_dtoa:
  3026                           	callstack 0
  3027                           
  3028 ;; *************** function _pad *****************
  3029 ;; Defined at:
  3030 ;;		line 72 in file "C:\Program Files\Microchip\xc8\v2.32\pic\sources\c99\common\doprnt.c"
  3031 ;; Parameters:    Size  Location     Type
  3032 ;;  fp              2   16[COMRAM] PTR struct _IO_FILE
  3033 ;;		 -> sprintf@f(6), 
  3034 ;;  buf             2   18[COMRAM] PTR unsigned char 
  3035 ;;		 -> dbuf(32), 
  3036 ;;  p               2   20[COMRAM] int 
  3037 ;; Auto vars:     Size  Location     Type
  3038 ;;  w               2   25[COMRAM] int 
  3039 ;;  i               2   23[COMRAM] int 
  3040 ;; Return value:  Size  Location     Type
  3041 ;;                  2   16[COMRAM] int 
  3042 ;; Registers used:
  3043 ;;		wreg, fsr1l, fsr1h, fsr2l, fsr2h, status,2, status,0, cstack
  3044 ;; Tracked objects:
  3045 ;;		On entry : 0/0
  3046 ;;		On exit  : 0/0
  3047 ;;		Unchanged: 0/0
  3048 ;; Data sizes:     COMRAM   BANK0   BANK1   BANK2   BANK3   BANK4   BANK5   BANK6   BANK7
  3049 ;;      Params:         6       0       0       0       0       0       0       0       0
  3050 ;;      Locals:         4       0       0       0       0       0       0       0       0
  3051 ;;      Temps:          1       0       0       0       0       0       0       0       0
  3052 ;;      Totals:        11       0       0       0       0       0       0       0       0
  3053 ;;Total ram usage:       11 bytes
  3054 ;; Hardware stack levels used: 1
  3055 ;; Hardware stack levels required when called: 3
  3056 ;; This function calls:
  3057 ;;		_fputc
  3058 ;;		_fputs
  3059 ;;		_strlen
  3060 ;; This function is called by:
  3061 ;;		_dtoa
  3062 ;; This function uses a non-reentrant model
  3063 ;;
  3064                           
  3065                           	psect	text8
  3066  002B5C                     __ptext8:
  3067                           	callstack 0
  3068  002B5C                     _pad:
  3069                           	callstack 22
  3070  002B5C                     
  3071                           ;C:\Program Files\Microchip\xc8\v2.32\pic\sources\c99\common\doprnt.c: 72: static int pa
      +                          d(FILE *fp, char *buf, int p);C:\Program Files\Microchip\xc8\v2.32\pic\sources\c99\commo
      +                          n\doprnt.c: 73: {;C:\Program Files\Microchip\xc8\v2.32\pic\sources\c99\common\doprnt.c: 
      +                          74:     int i, w;;C:\Program Files\Microchip\xc8\v2.32\pic\sources\c99\common\doprnt.c: 
      +                          77:     if (flags & (1 << 0)) {
  3072  002B5C  A05E               	btfss	_flags^0,0,c
  3073  002B5E  EFB3  F015         	goto	u1861
  3074  002B62  EFB5  F015         	goto	u1860
  3075  002B66                     u1861:
  3076  002B66  EFBF  F015         	goto	l2215
  3077  002B6A                     u1860:
  3078  002B6A                     
  3079                           ;C:\Program Files\Microchip\xc8\v2.32\pic\sources\c99\common\doprnt.c: 78:         fputs
      +                          ((const char *)buf, fp);
  3080  002B6A  C013  F00A         	movff	pad@buf,fputs@s
  3081  002B6E  C014  F00B         	movff	pad@buf+1,fputs@s+1
  3082  002B72  C011  F00C         	movff	pad@fp,fputs@fp
  3083  002B76  C012  F00D         	movff	pad@fp+1,fputs@fp+1
  3084  002B7A  EC12  F018         	call	_fputs	;wreg free
  3085  002B7E                     l2215:
  3086                           
  3087                           ;C:\Program Files\Microchip\xc8\v2.32\pic\sources\c99\common\doprnt.c: 82:     w = (p < 
      +                          0) ? 0 : p;
  3088  002B7E  BE16               	btfsc	(pad@p+1)^0,7,c
  3089  002B80  EFC4  F015         	goto	u1871
  3090  002B84  EFC6  F015         	goto	u1870
  3091  002B88                     u1871:
  3092  002B88  EFCC  F015         	goto	l2219
  3093  002B8C                     u1870:
  3094  002B8C  C015  F01A         	movff	pad@p,pad@w
  3095  002B90  C016  F01B         	movff	pad@p+1,pad@w+1
  3096  002B94  EFD0  F015         	goto	l852
  3097  002B98                     l2219:
  3098  002B98  0E00               	movlw	0
  3099  002B9A  6E1B               	movwf	(pad@w+1)^0,c
  3100  002B9C  0E00               	movlw	0
  3101  002B9E  6E1A               	movwf	pad@w^0,c
  3102  002BA0                     l852:
  3103                           
  3104                           ;C:\Program Files\Microchip\xc8\v2.32\pic\sources\c99\common\doprnt.c: 83:     i = 0;
  3105  002BA0  0E00               	movlw	0
  3106  002BA2  6E19               	movwf	(pad@i+1)^0,c
  3107  002BA4  0E00               	movlw	0
  3108  002BA6  6E18               	movwf	pad@i^0,c
  3109                           
  3110                           ;C:\Program Files\Microchip\xc8\v2.32\pic\sources\c99\common\doprnt.c: 84:     while (i 
      +                          < w) {
  3111  002BA8  EFE2  F015         	goto	l2225
  3112  002BAC                     l2221:
  3113                           
  3114                           ;C:\Program Files\Microchip\xc8\v2.32\pic\sources\c99\common\doprnt.c: 85:         fputc
      +                          (' ', fp);
  3115  002BAC  0E00               	movlw	0
  3116  002BAE  6E02               	movwf	(fputc@c+1)^0,c
  3117  002BB0  0E20               	movlw	32
  3118  002BB2  6E01               	movwf	fputc@c^0,c
  3119  002BB4  C011  F003         	movff	pad@fp,fputc@fp
  3120  002BB8  C012  F004         	movff	pad@fp+1,fputc@fp+1
  3121  002BBC  EC49  F015         	call	_fputc	;wreg free
  3122  002BC0                     
  3123                           ;C:\Program Files\Microchip\xc8\v2.32\pic\sources\c99\common\doprnt.c: 86:         ++i;
  3124  002BC0  4A18               	infsnz	pad@i^0,f,c
  3125  002BC2  2A19               	incf	(pad@i+1)^0,f,c
  3126  002BC4                     l2225:
  3127                           
  3128                           ;C:\Program Files\Microchip\xc8\v2.32\pic\sources\c99\common\doprnt.c: 84:     while (i 
      +                          < w) {
  3129  002BC4  501A               	movf	pad@w^0,w,c
  3130  002BC6  5C18               	subwf	pad@i^0,w,c
  3131  002BC8  5019               	movf	(pad@i+1)^0,w,c
  3132  002BCA  0A80               	xorlw	128
  3133  002BCC  6E17               	movwf	??_pad^0,c
  3134  002BCE  501B               	movf	(pad@w+1)^0,w,c
  3135  002BD0  0A80               	xorlw	128
  3136  002BD2  5817               	subwfb	??_pad^0,w,c
  3137  002BD4  A0D8               	btfss	status,0,c
  3138  002BD6  EFEF  F015         	goto	u1881
  3139  002BDA  EFF1  F015         	goto	u1880
  3140  002BDE                     u1881:
  3141  002BDE  EFD6  F015         	goto	l2221
  3142  002BE2                     u1880:
  3143  002BE2                     
  3144                           ;C:\Program Files\Microchip\xc8\v2.32\pic\sources\c99\common\doprnt.c: 90:     if (!(fla
      +                          gs & (1 << 0))) {
  3145  002BE2  B05E               	btfsc	_flags^0,0,c
  3146  002BE4  EFF6  F015         	goto	u1891
  3147  002BE8  EFF8  F015         	goto	u1890
  3148  002BEC                     u1891:
  3149  002BEC  EF02  F016         	goto	l2229
  3150  002BF0                     u1890:
  3151  002BF0                     
  3152                           ;C:\Program Files\Microchip\xc8\v2.32\pic\sources\c99\common\doprnt.c: 91:         fputs
      +                          ((const char *)buf, fp);
  3153  002BF0  C013  F00A         	movff	pad@buf,fputs@s
  3154  002BF4  C014  F00B         	movff	pad@buf+1,fputs@s+1
  3155  002BF8  C011  F00C         	movff	pad@fp,fputs@fp
  3156  002BFC  C012  F00D         	movff	pad@fp+1,fputs@fp+1
  3157  002C00  EC12  F018         	call	_fputs	;wreg free
  3158  002C04                     l2229:
  3159                           
  3160                           ;C:\Program Files\Microchip\xc8\v2.32\pic\sources\c99\common\doprnt.c: 94:     return (i
      +                          nt)(strlen(buf) + (size_t)w);
  3161  002C04  C013  F001         	movff	pad@buf,strlen@s
  3162  002C08  C014  F002         	movff	pad@buf+1,strlen@s+1
  3163  002C0C  EC70  F018         	call	_strlen	;wreg free
  3164  002C10  501A               	movf	pad@w^0,w,c
  3165  002C12  2401               	addwf	?_strlen^0,w,c
  3166  002C14  6E11               	movwf	?_pad^0,c
  3167  002C16  501B               	movf	(pad@w+1)^0,w,c
  3168  002C18  2002               	addwfc	(?_strlen+1)^0,w,c
  3169  002C1A  6E12               	movwf	(?_pad+1)^0,c
  3170  002C1C  0012               	return		;funcret
  3171  002C1E                     __end_of_pad:
  3172                           	callstack 0
  3173                           
  3174 ;; *************** function _strlen *****************
  3175 ;; Defined at:
  3176 ;;		line 5 in file "C:\Program Files\Microchip\xc8\v2.32\pic\sources\c99\common\strlen.c"
  3177 ;; Parameters:    Size  Location     Type
  3178 ;;  s               2    0[COMRAM] PTR const unsigned char 
  3179 ;;		 -> dbuf(32), 
  3180 ;; Auto vars:     Size  Location     Type
  3181 ;;  a               2    2[COMRAM] PTR const unsigned char 
  3182 ;;		 -> dbuf(32), 
  3183 ;; Return value:  Size  Location     Type
  3184 ;;                  2    0[COMRAM] unsigned int 
  3185 ;; Registers used:
  3186 ;;		wreg, fsr2l, fsr2h, status,2, status,0
  3187 ;; Tracked objects:
  3188 ;;		On entry : 0/0
  3189 ;;		On exit  : 0/0
  3190 ;;		Unchanged: 0/0
  3191 ;; Data sizes:     COMRAM   BANK0   BANK1   BANK2   BANK3   BANK4   BANK5   BANK6   BANK7
  3192 ;;      Params:         2       0       0       0       0       0       0       0       0
  3193 ;;      Locals:         2       0       0       0       0       0       0       0       0
  3194 ;;      Temps:          0       0       0       0       0       0       0       0       0
  3195 ;;      Totals:         4       0       0       0       0       0       0       0       0
  3196 ;;Total ram usage:        4 bytes
  3197 ;; Hardware stack levels used: 1
  3198 ;; This function calls:
  3199 ;;		Nothing
  3200 ;; This function is called by:
  3201 ;;		_pad
  3202 ;; This function uses a non-reentrant model
  3203 ;;
  3204                           
  3205                           	psect	text9
  3206  0030E0                     __ptext9:
  3207                           	callstack 0
  3208  0030E0                     _strlen:
  3209                           	callstack 24
  3210  0030E0  C001  F003         	movff	strlen@s,strlen@a
  3211  0030E4  C002  F004         	movff	strlen@s+1,strlen@a+1
  3212  0030E8  EF78  F018         	goto	l2125
  3213  0030EC                     l2123:
  3214  0030EC  4A01               	infsnz	strlen@s^0,f,c
  3215  0030EE  2A02               	incf	(strlen@s+1)^0,f,c
  3216  0030F0                     l2125:
  3217  0030F0  C001  FFD9         	movff	strlen@s,fsr2l
  3218  0030F4  C002  FFDA         	movff	strlen@s+1,fsr2h
  3219  0030F8  50DF               	movf	indf2,w,c
  3220  0030FA  A4D8               	btfss	status,2,c
  3221  0030FC  EF82  F018         	goto	u1721
  3222  003100  EF84  F018         	goto	u1720
  3223  003104                     u1721:
  3224  003104  EF76  F018         	goto	l2123
  3225  003108                     u1720:
  3226  003108  5003               	movf	strlen@a^0,w,c
  3227  00310A  5C01               	subwf	strlen@s^0,w,c
  3228  00310C  6E01               	movwf	?_strlen^0,c
  3229  00310E  5004               	movf	(strlen@a+1)^0,w,c
  3230  003110  5802               	subwfb	(strlen@s+1)^0,w,c
  3231  003112  6E02               	movwf	(?_strlen+1)^0,c
  3232  003114  0012               	return		;funcret
  3233  003116                     __end_of_strlen:
  3234                           	callstack 0
  3235                           
  3236 ;; *************** function _fputs *****************
  3237 ;; Defined at:
  3238 ;;		line 8 in file "C:\Program Files\Microchip\xc8\v2.32\pic\sources\c99\common\nf_fputs.c"
  3239 ;; Parameters:    Size  Location     Type
  3240 ;;  s               2    9[COMRAM] PTR const unsigned char 
  3241 ;;		 -> dbuf(32), 
  3242 ;;  fp              2   11[COMRAM] PTR struct _IO_FILE
  3243 ;;		 -> sprintf@f(6), 
  3244 ;; Auto vars:     Size  Location     Type
  3245 ;;  i               2   14[COMRAM] int 
  3246 ;;  c               1   13[COMRAM] unsigned char 
  3247 ;; Return value:  Size  Location     Type
  3248 ;;                  2    9[COMRAM] int 
  3249 ;; Registers used:
  3250 ;;		wreg, fsr1l, fsr1h, fsr2l, fsr2h, status,2, status,0, cstack
  3251 ;; Tracked objects:
  3252 ;;		On entry : 0/0
  3253 ;;		On exit  : 0/0
  3254 ;;		Unchanged: 0/0
  3255 ;; Data sizes:     COMRAM   BANK0   BANK1   BANK2   BANK3   BANK4   BANK5   BANK6   BANK7
  3256 ;;      Params:         4       0       0       0       0       0       0       0       0
  3257 ;;      Locals:         3       0       0       0       0       0       0       0       0
  3258 ;;      Temps:          0       0       0       0       0       0       0       0       0
  3259 ;;      Totals:         7       0       0       0       0       0       0       0       0
  3260 ;;Total ram usage:        7 bytes
  3261 ;; Hardware stack levels used: 1
  3262 ;; Hardware stack levels required when called: 2
  3263 ;; This function calls:
  3264 ;;		_fputc
  3265 ;; This function is called by:
  3266 ;;		_pad
  3267 ;; This function uses a non-reentrant model
  3268 ;;
  3269                           
  3270                           	psect	text10
  3271  003024                     __ptext10:
  3272                           	callstack 0
  3273  003024                     _fputs:
  3274                           	callstack 22
  3275  003024  0E00               	movlw	0
  3276  003026  6E10               	movwf	(fputs@i+1)^0,c
  3277  003028  0E00               	movlw	0
  3278  00302A  6E0F               	movwf	fputs@i^0,c
  3279  00302C  EF23  F018         	goto	l2119
  3280  003030                     l2115:
  3281  003030  C00E  F001         	movff	fputs@c,fputc@c
  3282  003034  6A02               	clrf	(fputc@c+1)^0,c
  3283  003036  C00C  F003         	movff	fputs@fp,fputc@fp
  3284  00303A  C00D  F004         	movff	fputs@fp+1,fputc@fp+1
  3285  00303E  EC49  F015         	call	_fputc	;wreg free
  3286  003042  4A0F               	infsnz	fputs@i^0,f,c
  3287  003044  2A10               	incf	(fputs@i+1)^0,f,c
  3288  003046                     l2119:
  3289  003046  500F               	movf	fputs@i^0,w,c
  3290  003048  240A               	addwf	fputs@s^0,w,c
  3291  00304A  6ED9               	movwf	fsr2l,c
  3292  00304C  5010               	movf	(fputs@i+1)^0,w,c
  3293  00304E  200B               	addwfc	(fputs@s+1)^0,w,c
  3294  003050  6EDA               	movwf	fsr2h,c
  3295  003052  50DF               	movf	indf2,w,c
  3296  003054  6E0E               	movwf	fputs@c^0,c
  3297  003056  500E               	movf	fputs@c^0,w,c
  3298  003058  A4D8               	btfss	status,2,c
  3299  00305A  EF31  F018         	goto	u1711
  3300  00305E  EF33  F018         	goto	u1710
  3301  003062                     u1711:
  3302  003062  EF18  F018         	goto	l2115
  3303  003066                     u1710:
  3304  003066  0012               	return		;funcret
  3305  003068                     __end_of_fputs:
  3306                           	callstack 0
  3307                           
  3308 ;; *************** function _fputc *****************
  3309 ;; Defined at:
  3310 ;;		line 8 in file "C:\Program Files\Microchip\xc8\v2.32\pic\sources\c99\common\nf_fputc.c"
  3311 ;; Parameters:    Size  Location     Type
  3312 ;;  c               2    0[COMRAM] int 
  3313 ;;  fp              2    2[COMRAM] PTR struct _IO_FILE
  3314 ;;		 -> sprintf@f(6), 
  3315 ;; Auto vars:     Size  Location     Type
  3316 ;;		None
  3317 ;; Return value:  Size  Location     Type
  3318 ;;                  2    0[COMRAM] int 
  3319 ;; Registers used:
  3320 ;;		wreg, fsr1l, fsr1h, fsr2l, fsr2h, status,2, status,0, cstack
  3321 ;; Tracked objects:
  3322 ;;		On entry : 0/0
  3323 ;;		On exit  : 0/0
  3324 ;;		Unchanged: 0/0
  3325 ;; Data sizes:     COMRAM   BANK0   BANK1   BANK2   BANK3   BANK4   BANK5   BANK6   BANK7
  3326 ;;      Params:         4       0       0       0       0       0       0       0       0
  3327 ;;      Locals:         0       0       0       0       0       0       0       0       0
  3328 ;;      Temps:          5       0       0       0       0       0       0       0       0
  3329 ;;      Totals:         9       0       0       0       0       0       0       0       0
  3330 ;;Total ram usage:        9 bytes
  3331 ;; Hardware stack levels used: 1
  3332 ;; Hardware stack levels required when called: 1
  3333 ;; This function calls:
  3334 ;;		_putch
  3335 ;; This function is called by:
  3336 ;;		_pad
  3337 ;;		_vfpfcnvrt
  3338 ;;		_fputs
  3339 ;; This function uses a non-reentrant model
  3340 ;;
  3341                           
  3342                           	psect	text11
  3343  002A92                     __ptext11:
  3344                           	callstack 0
  3345  002A92                     _fputc:
  3346                           	callstack 25
  3347  002A92  5003               	movf	fputc@fp^0,w,c
  3348  002A94  1004               	iorwf	(fputc@fp+1)^0,w,c
  3349  002A96  B4D8               	btfsc	status,2,c
  3350  002A98  EF50  F015         	goto	u1671
  3351  002A9C  EF52  F015         	goto	u1670
  3352  002AA0                     u1671:
  3353  002AA0  EF5B  F015         	goto	l2103
  3354  002AA4                     u1670:
  3355  002AA4  5003               	movf	fputc@fp^0,w,c
  3356  002AA6  1004               	iorwf	(fputc@fp+1)^0,w,c
  3357  002AA8  A4D8               	btfss	status,2,c
  3358  002AAA  EF59  F015         	goto	u1681
  3359  002AAE  EF5B  F015         	goto	u1680
  3360  002AB2                     u1681:
  3361  002AB2  EF60  F015         	goto	l2105
  3362  002AB6                     u1680:
  3363  002AB6                     l2103:
  3364  002AB6  5001               	movf	fputc@c^0,w,c
  3365  002AB8  ECD5  F018         	call	_putch
  3366  002ABC  EFAD  F015         	goto	l916
  3367  002AC0                     l2105:
  3368  002AC0  EE20 F004          	lfsr	2,4
  3369  002AC4  5003               	movf	fputc@fp^0,w,c
  3370  002AC6  26D9               	addwf	fsr2l,f,c
  3371  002AC8  5004               	movf	(fputc@fp+1)^0,w,c
  3372  002ACA  22DA               	addwfc	fsr2h,f,c
  3373  002ACC  50DE               	movf	postinc2,w,c
  3374  002ACE  10DE               	iorwf	postinc2,w,c
  3375  002AD0  B4D8               	btfsc	status,2,c
  3376  002AD2  EF6D  F015         	goto	u1691
  3377  002AD6  EF6F  F015         	goto	u1690
  3378  002ADA                     u1691:
  3379  002ADA  EF8A  F015         	goto	l2109
  3380  002ADE                     u1690:
  3381  002ADE  EE20 F004          	lfsr	2,4
  3382  002AE2  5003               	movf	fputc@fp^0,w,c
  3383  002AE4  26D9               	addwf	fsr2l,f,c
  3384  002AE6  5004               	movf	(fputc@fp+1)^0,w,c
  3385  002AE8  22DA               	addwfc	fsr2h,f,c
  3386  002AEA  EE10 F002          	lfsr	1,2
  3387  002AEE  5003               	movf	fputc@fp^0,w,c
  3388  002AF0  26E1               	addwf	fsr1l,f,c
  3389  002AF2  5004               	movf	(fputc@fp+1)^0,w,c
  3390  002AF4  22E2               	addwfc	fsr1h,f,c
  3391  002AF6  50DE               	movf	postinc2,w,c
  3392  002AF8  5CE6               	subwf	postinc1,w,c
  3393  002AFA  50E6               	movf	postinc1,w,c
  3394  002AFC  0A80               	xorlw	128
  3395  002AFE  6E09               	movwf	(??_fputc+4)^0,c
  3396  002B00  50DE               	movf	postinc2,w,c
  3397  002B02  0A80               	xorlw	128
  3398  002B04  5809               	subwfb	(??_fputc+4)^0,w,c
  3399  002B06  B0D8               	btfsc	status,0,c
  3400  002B08  EF88  F015         	goto	u1701
  3401  002B0C  EF8A  F015         	goto	u1700
  3402  002B10                     u1701:
  3403  002B10  EFAD  F015         	goto	l916
  3404  002B14                     u1700:
  3405  002B14                     l2109:
  3406  002B14  EE20 F002          	lfsr	2,2
  3407  002B18  5003               	movf	fputc@fp^0,w,c
  3408  002B1A  26D9               	addwf	fsr2l,f,c
  3409  002B1C  5004               	movf	(fputc@fp+1)^0,w,c
  3410  002B1E  22DA               	addwfc	fsr2h,f,c
  3411  002B20  CFDE F005          	movff	postinc2,??_fputc
  3412  002B24  CFDD F006          	movff	postdec2,??_fputc+1
  3413  002B28  C003  FFD9         	movff	fputc@fp,fsr2l
  3414  002B2C  C004  FFDA         	movff	fputc@fp+1,fsr2h
  3415  002B30  CFDE F007          	movff	postinc2,??_fputc+2
  3416  002B34  CFDD F008          	movff	postdec2,??_fputc+3
  3417  002B38  5005               	movf	??_fputc^0,w,c
  3418  002B3A  2407               	addwf	(??_fputc+2)^0,w,c
  3419  002B3C  6ED9               	movwf	fsr2l,c
  3420  002B3E  5006               	movf	(??_fputc+1)^0,w,c
  3421  002B40  2008               	addwfc	(??_fputc+3)^0,w,c
  3422  002B42  6EDA               	movwf	fsr2h,c
  3423  002B44  C001  FFDF         	movff	fputc@c,indf2
  3424  002B48  EE20 F002          	lfsr	2,2
  3425  002B4C  5003               	movf	fputc@fp^0,w,c
  3426  002B4E  26D9               	addwf	fsr2l,f,c
  3427  002B50  5004               	movf	(fputc@fp+1)^0,w,c
  3428  002B52  22DA               	addwfc	fsr2h,f,c
  3429  002B54  2ADE               	incf	postinc2,f,c
  3430  002B56  0E00               	movlw	0
  3431  002B58  22DD               	addwfc	postdec2,f,c
  3432  002B5A                     l916:
  3433  002B5A  0012               	return		;funcret
  3434  002B5C                     __end_of_fputc:
  3435                           	callstack 0
  3436                           
  3437 ;; *************** function _putch *****************
  3438 ;; Defined at:
  3439 ;;		line 7 in file "C:\Program Files\Microchip\xc8\v2.32\pic\sources\c99\common\putch.c"
  3440 ;; Parameters:    Size  Location     Type
  3441 ;;  c               1    wreg     unsigned char 
  3442 ;; Auto vars:     Size  Location     Type
  3443 ;;  c               1    0[COMRAM] unsigned char 
  3444 ;; Return value:  Size  Location     Type
  3445 ;;                  1    wreg      void 
  3446 ;; Registers used:
  3447 ;;		wreg
  3448 ;; Tracked objects:
  3449 ;;		On entry : 0/0
  3450 ;;		On exit  : 0/0
  3451 ;;		Unchanged: 0/0
  3452 ;; Data sizes:     COMRAM   BANK0   BANK1   BANK2   BANK3   BANK4   BANK5   BANK6   BANK7
  3453 ;;      Params:         0       0       0       0       0       0       0       0       0
  3454 ;;      Locals:         0       0       0       0       0       0       0       0       0
  3455 ;;      Temps:          0       0       0       0       0       0       0       0       0
  3456 ;;      Totals:         0       0       0       0       0       0       0       0       0
  3457 ;;Total ram usage:        0 bytes
  3458 ;; Hardware stack levels used: 1
  3459 ;; This function calls:
  3460 ;;		Nothing
  3461 ;; This function is called by:
  3462 ;;		_fputc
  3463 ;; This function uses a non-reentrant model
  3464 ;;
  3465                           
  3466                           	psect	text12
  3467  0031AA                     __ptext12:
  3468                           	callstack 0
  3469  0031AA                     _putch:
  3470                           	callstack 25
  3471  0031AA  0012               	return		;funcret
  3472  0031AC                     __end_of_putch:
  3473                           	callstack 0
  3474                           
  3475 ;; *************** function _abs *****************
  3476 ;; Defined at:
  3477 ;;		line 1 in file "C:\Program Files\Microchip\xc8\v2.32\pic\sources\c99\common\abs.c"
  3478 ;; Parameters:    Size  Location     Type
  3479 ;;  a               2   18[COMRAM] int 
  3480 ;; Auto vars:     Size  Location     Type
  3481 ;;		None
  3482 ;; Return value:  Size  Location     Type
  3483 ;;                  2   18[COMRAM] int 
  3484 ;; Registers used:
  3485 ;;		wreg, status,2, status,0
  3486 ;; Tracked objects:
  3487 ;;		On entry : 0/0
  3488 ;;		On exit  : 0/0
  3489 ;;		Unchanged: 0/0
  3490 ;; Data sizes:     COMRAM   BANK0   BANK1   BANK2   BANK3   BANK4   BANK5   BANK6   BANK7
  3491 ;;      Params:         2       0       0       0       0       0       0       0       0
  3492 ;;      Locals:         0       0       0       0       0       0       0       0       0
  3493 ;;      Temps:          2       0       0       0       0       0       0       0       0
  3494 ;;      Totals:         4       0       0       0       0       0       0       0       0
  3495 ;;Total ram usage:        4 bytes
  3496 ;; Hardware stack levels used: 1
  3497 ;; This function calls:
  3498 ;;		Nothing
  3499 ;; This function is called by:
  3500 ;;		_dtoa
  3501 ;; This function uses a non-reentrant model
  3502 ;;
  3503                           
  3504                           	psect	text13
  3505  003068                     __ptext13:
  3506                           	callstack 0
  3507  003068                     _abs:
  3508                           	callstack 25
  3509  003068  BE14               	btfsc	(abs@a+1)^0,7,c
  3510  00306A  EF41  F018         	goto	u1900
  3511  00306E  5014               	movf	(abs@a+1)^0,w,c
  3512  003070  E106               	bnz	u1901
  3513  003072  0413               	decf	abs@a^0,w,c
  3514  003074  B0D8               	btfsc	status,0,c
  3515  003076  EF3F  F018         	goto	u1901
  3516  00307A  EF41  F018         	goto	u1900
  3517  00307E                     u1901:
  3518  00307E  EF4F  F018         	goto	l901
  3519  003082                     u1900:
  3520  003082  C013  F015         	movff	abs@a,??_abs
  3521  003086  C014  F016         	movff	abs@a+1,??_abs+1
  3522  00308A  1E15               	comf	??_abs^0,f,c
  3523  00308C  1E16               	comf	(??_abs+1)^0,f,c
  3524  00308E  4A15               	infsnz	??_abs^0,f,c
  3525  003090  2A16               	incf	(??_abs+1)^0,f,c
  3526  003092  C015  F013         	movff	??_abs,?_abs
  3527  003096  C016  F014         	movff	??_abs+1,?_abs+1
  3528  00309A  EF53  F018         	goto	l904
  3529  00309E                     l901:
  3530  00309E  C013  F013         	movff	abs@a,?_abs
  3531  0030A2  C014  F014         	movff	abs@a+1,?_abs+1
  3532  0030A6                     l904:
  3533  0030A6  0012               	return		;funcret
  3534  0030A8                     __end_of_abs:
  3535                           	callstack 0
  3536                           
  3537 ;; *************** function ___aomod *****************
  3538 ;; Defined at:
  3539 ;;		line 9 in file "C:\Program Files\Microchip\xc8\v2.32\pic\sources\c99\common\aomod.c"
  3540 ;; Parameters:    Size  Location     Type
  3541 ;;  dividend        8    0[COMRAM] long long 
  3542 ;;  divisor         8    8[COMRAM] long long 
  3543 ;; Auto vars:     Size  Location     Type
  3544 ;;  sign            1   17[COMRAM] unsigned char 
  3545 ;;  counter         1   16[COMRAM] unsigned char 
  3546 ;; Return value:  Size  Location     Type
  3547 ;;                  8    0[COMRAM] long long 
  3548 ;; Registers used:
  3549 ;;		wreg, status,2, status,0
  3550 ;; Tracked objects:
  3551 ;;		On entry : 0/0
  3552 ;;		On exit  : 0/0
  3553 ;;		Unchanged: 0/0
  3554 ;; Data sizes:     COMRAM   BANK0   BANK1   BANK2   BANK3   BANK4   BANK5   BANK6   BANK7
  3555 ;;      Params:        16       0       0       0       0       0       0       0       0
  3556 ;;      Locals:         2       0       0       0       0       0       0       0       0
  3557 ;;      Temps:          0       0       0       0       0       0       0       0       0
  3558 ;;      Totals:        18       0       0       0       0       0       0       0       0
  3559 ;;Total ram usage:       18 bytes
  3560 ;; Hardware stack levels used: 1
  3561 ;; This function calls:
  3562 ;;		Nothing
  3563 ;; This function is called by:
  3564 ;;		_dtoa
  3565 ;; This function uses a non-reentrant model
  3566 ;;
  3567                           
  3568                           	psect	text14
  3569  002828                     __ptext14:
  3570                           	callstack 0
  3571  002828                     ___aomod:
  3572                           	callstack 25
  3573  002828  0E00               	movlw	0
  3574  00282A  6E12               	movwf	___aomod@sign^0,c
  3575  00282C  BE08               	btfsc	(___aomod@dividend+7)^0,7,c
  3576  00282E  EF1D  F014         	goto	u1800
  3577  002832  EF1B  F014         	goto	u1801
  3578  002836                     u1801:
  3579  002836  EF2F  F014         	goto	l2183
  3580  00283A                     u1800:
  3581  00283A  1E08               	comf	(___aomod@dividend+7)^0,f,c
  3582  00283C  1E07               	comf	(___aomod@dividend+6)^0,f,c
  3583  00283E  1E06               	comf	(___aomod@dividend+5)^0,f,c
  3584  002840  1E05               	comf	(___aomod@dividend+4)^0,f,c
  3585  002842  1E04               	comf	(___aomod@dividend+3)^0,f,c
  3586  002844  1E03               	comf	(___aomod@dividend+2)^0,f,c
  3587  002846  1E02               	comf	(___aomod@dividend+1)^0,f,c
  3588  002848  6C01               	negf	___aomod@dividend^0,c
  3589  00284A  0E00               	movlw	0
  3590  00284C  2202               	addwfc	(___aomod@dividend+1)^0,f,c
  3591  00284E  2203               	addwfc	(___aomod@dividend+2)^0,f,c
  3592  002850  2204               	addwfc	(___aomod@dividend+3)^0,f,c
  3593  002852  2205               	addwfc	(___aomod@dividend+4)^0,f,c
  3594  002854  2206               	addwfc	(___aomod@dividend+5)^0,f,c
  3595  002856  2207               	addwfc	(___aomod@dividend+6)^0,f,c
  3596  002858  2208               	addwfc	(___aomod@dividend+7)^0,f,c
  3597  00285A  0E01               	movlw	1
  3598  00285C  6E12               	movwf	___aomod@sign^0,c
  3599  00285E                     l2183:
  3600  00285E  BE10               	btfsc	(___aomod@divisor+7)^0,7,c
  3601  002860  EF36  F014         	goto	u1810
  3602  002864  EF34  F014         	goto	u1811
  3603  002868                     u1811:
  3604  002868  EF46  F014         	goto	l2187
  3605  00286C                     u1810:
  3606  00286C  1E10               	comf	(___aomod@divisor+7)^0,f,c
  3607  00286E  1E0F               	comf	(___aomod@divisor+6)^0,f,c
  3608  002870  1E0E               	comf	(___aomod@divisor+5)^0,f,c
  3609  002872  1E0D               	comf	(___aomod@divisor+4)^0,f,c
  3610  002874  1E0C               	comf	(___aomod@divisor+3)^0,f,c
  3611  002876  1E0B               	comf	(___aomod@divisor+2)^0,f,c
  3612  002878  1E0A               	comf	(___aomod@divisor+1)^0,f,c
  3613  00287A  6C09               	negf	___aomod@divisor^0,c
  3614  00287C  0E00               	movlw	0
  3615  00287E  220A               	addwfc	(___aomod@divisor+1)^0,f,c
  3616  002880  220B               	addwfc	(___aomod@divisor+2)^0,f,c
  3617  002882  220C               	addwfc	(___aomod@divisor+3)^0,f,c
  3618  002884  220D               	addwfc	(___aomod@divisor+4)^0,f,c
  3619  002886  220E               	addwfc	(___aomod@divisor+5)^0,f,c
  3620  002888  220F               	addwfc	(___aomod@divisor+6)^0,f,c
  3621  00288A  2210               	addwfc	(___aomod@divisor+7)^0,f,c
  3622  00288C                     l2187:
  3623  00288C  5009               	movf	___aomod@divisor^0,w,c
  3624  00288E  100A               	iorwf	(___aomod@divisor+1)^0,w,c
  3625  002890  100B               	iorwf	(___aomod@divisor+2)^0,w,c
  3626  002892  100C               	iorwf	(___aomod@divisor+3)^0,w,c
  3627  002894  100D               	iorwf	(___aomod@divisor+4)^0,w,c
  3628  002896  100E               	iorwf	(___aomod@divisor+5)^0,w,c
  3629  002898  100F               	iorwf	(___aomod@divisor+6)^0,w,c
  3630  00289A  1010               	iorwf	(___aomod@divisor+7)^0,w,c
  3631  00289C  B4D8               	btfsc	status,2,c
  3632  00289E  EF53  F014         	goto	u1821
  3633  0028A2  EF55  F014         	goto	u1820
  3634  0028A6                     u1821:
  3635  0028A6  EF9D  F014         	goto	l2203
  3636  0028AA                     u1820:
  3637  0028AA  0E01               	movlw	1
  3638  0028AC  6E11               	movwf	___aomod@counter^0,c
  3639  0028AE  EF63  F014         	goto	l2193
  3640  0028B2                     l2191:
  3641  0028B2  90D8               	bcf	status,0,c
  3642  0028B4  3609               	rlcf	___aomod@divisor^0,f,c
  3643  0028B6  360A               	rlcf	(___aomod@divisor+1)^0,f,c
  3644  0028B8  360B               	rlcf	(___aomod@divisor+2)^0,f,c
  3645  0028BA  360C               	rlcf	(___aomod@divisor+3)^0,f,c
  3646  0028BC  360D               	rlcf	(___aomod@divisor+4)^0,f,c
  3647  0028BE  360E               	rlcf	(___aomod@divisor+5)^0,f,c
  3648  0028C0  360F               	rlcf	(___aomod@divisor+6)^0,f,c
  3649  0028C2  3610               	rlcf	(___aomod@divisor+7)^0,f,c
  3650  0028C4  2A11               	incf	___aomod@counter^0,f,c
  3651  0028C6                     l2193:
  3652  0028C6  AE10               	btfss	(___aomod@divisor+7)^0,7,c
  3653  0028C8  EF68  F014         	goto	u1831
  3654  0028CC  EF6A  F014         	goto	u1830
  3655  0028D0                     u1831:
  3656  0028D0  EF59  F014         	goto	l2191
  3657  0028D4                     u1830:
  3658  0028D4                     l2195:
  3659  0028D4  5009               	movf	___aomod@divisor^0,w,c
  3660  0028D6  5C01               	subwf	___aomod@dividend^0,w,c
  3661  0028D8  500A               	movf	(___aomod@divisor+1)^0,w,c
  3662  0028DA  5802               	subwfb	(___aomod@dividend+1)^0,w,c
  3663  0028DC  500B               	movf	(___aomod@divisor+2)^0,w,c
  3664  0028DE  5803               	subwfb	(___aomod@dividend+2)^0,w,c
  3665  0028E0  500C               	movf	(___aomod@divisor+3)^0,w,c
  3666  0028E2  5804               	subwfb	(___aomod@dividend+3)^0,w,c
  3667  0028E4  500D               	movf	(___aomod@divisor+4)^0,w,c
  3668  0028E6  5805               	subwfb	(___aomod@dividend+4)^0,w,c
  3669  0028E8  500E               	movf	(___aomod@divisor+5)^0,w,c
  3670  0028EA  5806               	subwfb	(___aomod@dividend+5)^0,w,c
  3671  0028EC  500F               	movf	(___aomod@divisor+6)^0,w,c
  3672  0028EE  5807               	subwfb	(___aomod@dividend+6)^0,w,c
  3673  0028F0  5010               	movf	(___aomod@divisor+7)^0,w,c
  3674  0028F2  5808               	subwfb	(___aomod@dividend+7)^0,w,c
  3675  0028F4  A0D8               	btfss	status,0,c
  3676  0028F6  EF7F  F014         	goto	u1841
  3677  0028FA  EF81  F014         	goto	u1840
  3678  0028FE                     u1841:
  3679  0028FE  EF91  F014         	goto	l2199
  3680  002902                     u1840:
  3681  002902  5009               	movf	___aomod@divisor^0,w,c
  3682  002904  5E01               	subwf	___aomod@dividend^0,f,c
  3683  002906  500A               	movf	(___aomod@divisor+1)^0,w,c
  3684  002908  5A02               	subwfb	(___aomod@dividend+1)^0,f,c
  3685  00290A  500B               	movf	(___aomod@divisor+2)^0,w,c
  3686  00290C  5A03               	subwfb	(___aomod@dividend+2)^0,f,c
  3687  00290E  500C               	movf	(___aomod@divisor+3)^0,w,c
  3688  002910  5A04               	subwfb	(___aomod@dividend+3)^0,f,c
  3689  002912  500D               	movf	(___aomod@divisor+4)^0,w,c
  3690  002914  5A05               	subwfb	(___aomod@dividend+4)^0,f,c
  3691  002916  500E               	movf	(___aomod@divisor+5)^0,w,c
  3692  002918  5A06               	subwfb	(___aomod@dividend+5)^0,f,c
  3693  00291A  500F               	movf	(___aomod@divisor+6)^0,w,c
  3694  00291C  5A07               	subwfb	(___aomod@dividend+6)^0,f,c
  3695  00291E  5010               	movf	(___aomod@divisor+7)^0,w,c
  3696  002920  5A08               	subwfb	(___aomod@dividend+7)^0,f,c
  3697  002922                     l2199:
  3698  002922  90D8               	bcf	status,0,c
  3699  002924  3210               	rrcf	(___aomod@divisor+7)^0,f,c
  3700  002926  320F               	rrcf	(___aomod@divisor+6)^0,f,c
  3701  002928  320E               	rrcf	(___aomod@divisor+5)^0,f,c
  3702  00292A  320D               	rrcf	(___aomod@divisor+4)^0,f,c
  3703  00292C  320C               	rrcf	(___aomod@divisor+3)^0,f,c
  3704  00292E  320B               	rrcf	(___aomod@divisor+2)^0,f,c
  3705  002930  320A               	rrcf	(___aomod@divisor+1)^0,f,c
  3706  002932  3209               	rrcf	___aomod@divisor^0,f,c
  3707  002934  2E11               	decfsz	___aomod@counter^0,f,c
  3708  002936  EF6A  F014         	goto	l2195
  3709  00293A                     l2203:
  3710  00293A  5012               	movf	___aomod@sign^0,w,c
  3711  00293C  B4D8               	btfsc	status,2,c
  3712  00293E  EFA3  F014         	goto	u1851
  3713  002942  EFA5  F014         	goto	u1850
  3714  002946                     u1851:
  3715  002946  EFB5  F014         	goto	l2207
  3716  00294A                     u1850:
  3717  00294A  1E08               	comf	(___aomod@dividend+7)^0,f,c
  3718  00294C  1E07               	comf	(___aomod@dividend+6)^0,f,c
  3719  00294E  1E06               	comf	(___aomod@dividend+5)^0,f,c
  3720  002950  1E05               	comf	(___aomod@dividend+4)^0,f,c
  3721  002952  1E04               	comf	(___aomod@dividend+3)^0,f,c
  3722  002954  1E03               	comf	(___aomod@dividend+2)^0,f,c
  3723  002956  1E02               	comf	(___aomod@dividend+1)^0,f,c
  3724  002958  6C01               	negf	___aomod@dividend^0,c
  3725  00295A  0E00               	movlw	0
  3726  00295C  2202               	addwfc	(___aomod@dividend+1)^0,f,c
  3727  00295E  2203               	addwfc	(___aomod@dividend+2)^0,f,c
  3728  002960  2204               	addwfc	(___aomod@dividend+3)^0,f,c
  3729  002962  2205               	addwfc	(___aomod@dividend+4)^0,f,c
  3730  002964  2206               	addwfc	(___aomod@dividend+5)^0,f,c
  3731  002966  2207               	addwfc	(___aomod@dividend+6)^0,f,c
  3732  002968  2208               	addwfc	(___aomod@dividend+7)^0,f,c
  3733  00296A                     l2207:
  3734  00296A  C001  F001         	movff	___aomod@dividend,?___aomod
  3735  00296E  C002  F002         	movff	___aomod@dividend+1,?___aomod+1
  3736  002972  C003  F003         	movff	___aomod@dividend+2,?___aomod+2
  3737  002976  C004  F004         	movff	___aomod@dividend+3,?___aomod+3
  3738  00297A  C005  F005         	movff	___aomod@dividend+4,?___aomod+4
  3739  00297E  C006  F006         	movff	___aomod@dividend+5,?___aomod+5
  3740  002982  C007  F007         	movff	___aomod@dividend+6,?___aomod+6
  3741  002986  C008  F008         	movff	___aomod@dividend+7,?___aomod+7
  3742  00298A  0012               	return		;funcret
  3743  00298C                     __end_of___aomod:
  3744                           	callstack 0
  3745                           
  3746 ;; *************** function ___aodiv *****************
  3747 ;; Defined at:
  3748 ;;		line 9 in file "C:\Program Files\Microchip\xc8\v2.32\pic\sources\c99\common\aodiv.c"
  3749 ;; Parameters:    Size  Location     Type
  3750 ;;  dividend        8    0[COMRAM] long long 
  3751 ;;  divisor         8    8[COMRAM] long long 
  3752 ;; Auto vars:     Size  Location     Type
  3753 ;;  quotient        8   18[COMRAM] long long 
  3754 ;;  sign            1   17[COMRAM] unsigned char 
  3755 ;;  counter         1   16[COMRAM] unsigned char 
  3756 ;; Return value:  Size  Location     Type
  3757 ;;                  8    0[COMRAM] long long 
  3758 ;; Registers used:
  3759 ;;		wreg, fsr2l, fsr2h, status,2, status,0
  3760 ;; Tracked objects:
  3761 ;;		On entry : 0/0
  3762 ;;		On exit  : 0/0
  3763 ;;		Unchanged: 0/0
  3764 ;; Data sizes:     COMRAM   BANK0   BANK1   BANK2   BANK3   BANK4   BANK5   BANK6   BANK7
  3765 ;;      Params:        16       0       0       0       0       0       0       0       0
  3766 ;;      Locals:        10       0       0       0       0       0       0       0       0
  3767 ;;      Temps:          0       0       0       0       0       0       0       0       0
  3768 ;;      Totals:        26       0       0       0       0       0       0       0       0
  3769 ;;Total ram usage:       26 bytes
  3770 ;; Hardware stack levels used: 1
  3771 ;; This function calls:
  3772 ;;		Nothing
  3773 ;; This function is called by:
  3774 ;;		_dtoa
  3775 ;; This function uses a non-reentrant model
  3776 ;;
  3777                           
  3778                           	psect	text15
  3779  0023B8                     __ptext15:
  3780                           	callstack 0
  3781  0023B8                     ___aodiv:
  3782                           	callstack 25
  3783  0023B8  0E00               	movlw	0
  3784  0023BA  6E12               	movwf	___aodiv@sign^0,c
  3785  0023BC  BE10               	btfsc	(___aodiv@divisor+7)^0,7,c
  3786  0023BE  EFE5  F011         	goto	u1730
  3787  0023C2  EFE3  F011         	goto	u1731
  3788  0023C6                     u1731:
  3789  0023C6  EFF7  F011         	goto	l2139
  3790  0023CA                     u1730:
  3791  0023CA  1E10               	comf	(___aodiv@divisor+7)^0,f,c
  3792  0023CC  1E0F               	comf	(___aodiv@divisor+6)^0,f,c
  3793  0023CE  1E0E               	comf	(___aodiv@divisor+5)^0,f,c
  3794  0023D0  1E0D               	comf	(___aodiv@divisor+4)^0,f,c
  3795  0023D2  1E0C               	comf	(___aodiv@divisor+3)^0,f,c
  3796  0023D4  1E0B               	comf	(___aodiv@divisor+2)^0,f,c
  3797  0023D6  1E0A               	comf	(___aodiv@divisor+1)^0,f,c
  3798  0023D8  6C09               	negf	___aodiv@divisor^0,c
  3799  0023DA  0E00               	movlw	0
  3800  0023DC  220A               	addwfc	(___aodiv@divisor+1)^0,f,c
  3801  0023DE  220B               	addwfc	(___aodiv@divisor+2)^0,f,c
  3802  0023E0  220C               	addwfc	(___aodiv@divisor+3)^0,f,c
  3803  0023E2  220D               	addwfc	(___aodiv@divisor+4)^0,f,c
  3804  0023E4  220E               	addwfc	(___aodiv@divisor+5)^0,f,c
  3805  0023E6  220F               	addwfc	(___aodiv@divisor+6)^0,f,c
  3806  0023E8  2210               	addwfc	(___aodiv@divisor+7)^0,f,c
  3807  0023EA  0E01               	movlw	1
  3808  0023EC  6E12               	movwf	___aodiv@sign^0,c
  3809  0023EE                     l2139:
  3810  0023EE  BE08               	btfsc	(___aodiv@dividend+7)^0,7,c
  3811  0023F0  EFFE  F011         	goto	u1740
  3812  0023F4  EFFC  F011         	goto	u1741
  3813  0023F8                     u1741:
  3814  0023F8  EF10  F012         	goto	l2145
  3815  0023FC                     u1740:
  3816  0023FC  1E08               	comf	(___aodiv@dividend+7)^0,f,c
  3817  0023FE  1E07               	comf	(___aodiv@dividend+6)^0,f,c
  3818  002400  1E06               	comf	(___aodiv@dividend+5)^0,f,c
  3819  002402  1E05               	comf	(___aodiv@dividend+4)^0,f,c
  3820  002404  1E04               	comf	(___aodiv@dividend+3)^0,f,c
  3821  002406  1E03               	comf	(___aodiv@dividend+2)^0,f,c
  3822  002408  1E02               	comf	(___aodiv@dividend+1)^0,f,c
  3823  00240A  6C01               	negf	___aodiv@dividend^0,c
  3824  00240C  0E00               	movlw	0
  3825  00240E  2202               	addwfc	(___aodiv@dividend+1)^0,f,c
  3826  002410  2203               	addwfc	(___aodiv@dividend+2)^0,f,c
  3827  002412  2204               	addwfc	(___aodiv@dividend+3)^0,f,c
  3828  002414  2205               	addwfc	(___aodiv@dividend+4)^0,f,c
  3829  002416  2206               	addwfc	(___aodiv@dividend+5)^0,f,c
  3830  002418  2207               	addwfc	(___aodiv@dividend+6)^0,f,c
  3831  00241A  2208               	addwfc	(___aodiv@dividend+7)^0,f,c
  3832  00241C  0E01               	movlw	1
  3833  00241E  1A12               	xorwf	___aodiv@sign^0,f,c
  3834  002420                     l2145:
  3835  002420  EE20  F013         	lfsr	2,___aodiv@quotient
  3836  002424  0E07               	movlw	7
  3837  002426                     u1751:
  3838  002426  6ADE               	clrf	postinc2,c
  3839  002428  06E8               	decf	wreg,f,c
  3840  00242A  E2FD               	bc	u1751
  3841  00242C  5009               	movf	___aodiv@divisor^0,w,c
  3842  00242E  100A               	iorwf	(___aodiv@divisor+1)^0,w,c
  3843  002430  100B               	iorwf	(___aodiv@divisor+2)^0,w,c
  3844  002432  100C               	iorwf	(___aodiv@divisor+3)^0,w,c
  3845  002434  100D               	iorwf	(___aodiv@divisor+4)^0,w,c
  3846  002436  100E               	iorwf	(___aodiv@divisor+5)^0,w,c
  3847  002438  100F               	iorwf	(___aodiv@divisor+6)^0,w,c
  3848  00243A  1010               	iorwf	(___aodiv@divisor+7)^0,w,c
  3849  00243C  B4D8               	btfsc	status,2,c
  3850  00243E  EF23  F012         	goto	u1761
  3851  002442  EF25  F012         	goto	u1760
  3852  002446                     u1761:
  3853  002446  EF77  F012         	goto	l2167
  3854  00244A                     u1760:
  3855  00244A  0E01               	movlw	1
  3856  00244C  6E11               	movwf	___aodiv@counter^0,c
  3857  00244E  EF33  F012         	goto	l2153
  3858  002452                     l2151:
  3859  002452  90D8               	bcf	status,0,c
  3860  002454  3609               	rlcf	___aodiv@divisor^0,f,c
  3861  002456  360A               	rlcf	(___aodiv@divisor+1)^0,f,c
  3862  002458  360B               	rlcf	(___aodiv@divisor+2)^0,f,c
  3863  00245A  360C               	rlcf	(___aodiv@divisor+3)^0,f,c
  3864  00245C  360D               	rlcf	(___aodiv@divisor+4)^0,f,c
  3865  00245E  360E               	rlcf	(___aodiv@divisor+5)^0,f,c
  3866  002460  360F               	rlcf	(___aodiv@divisor+6)^0,f,c
  3867  002462  3610               	rlcf	(___aodiv@divisor+7)^0,f,c
  3868  002464  2A11               	incf	___aodiv@counter^0,f,c
  3869  002466                     l2153:
  3870  002466  AE10               	btfss	(___aodiv@divisor+7)^0,7,c
  3871  002468  EF38  F012         	goto	u1771
  3872  00246C  EF3A  F012         	goto	u1770
  3873  002470                     u1771:
  3874  002470  EF29  F012         	goto	l2151
  3875  002474                     u1770:
  3876  002474                     l2155:
  3877  002474  90D8               	bcf	status,0,c
  3878  002476  3613               	rlcf	___aodiv@quotient^0,f,c
  3879  002478  3614               	rlcf	(___aodiv@quotient+1)^0,f,c
  3880  00247A  3615               	rlcf	(___aodiv@quotient+2)^0,f,c
  3881  00247C  3616               	rlcf	(___aodiv@quotient+3)^0,f,c
  3882  00247E  3617               	rlcf	(___aodiv@quotient+4)^0,f,c
  3883  002480  3618               	rlcf	(___aodiv@quotient+5)^0,f,c
  3884  002482  3619               	rlcf	(___aodiv@quotient+6)^0,f,c
  3885  002484  361A               	rlcf	(___aodiv@quotient+7)^0,f,c
  3886  002486  5009               	movf	___aodiv@divisor^0,w,c
  3887  002488  5C01               	subwf	___aodiv@dividend^0,w,c
  3888  00248A  500A               	movf	(___aodiv@divisor+1)^0,w,c
  3889  00248C  5802               	subwfb	(___aodiv@dividend+1)^0,w,c
  3890  00248E  500B               	movf	(___aodiv@divisor+2)^0,w,c
  3891  002490  5803               	subwfb	(___aodiv@dividend+2)^0,w,c
  3892  002492  500C               	movf	(___aodiv@divisor+3)^0,w,c
  3893  002494  5804               	subwfb	(___aodiv@dividend+3)^0,w,c
  3894  002496  500D               	movf	(___aodiv@divisor+4)^0,w,c
  3895  002498  5805               	subwfb	(___aodiv@dividend+4)^0,w,c
  3896  00249A  500E               	movf	(___aodiv@divisor+5)^0,w,c
  3897  00249C  5806               	subwfb	(___aodiv@dividend+5)^0,w,c
  3898  00249E  500F               	movf	(___aodiv@divisor+6)^0,w,c
  3899  0024A0  5807               	subwfb	(___aodiv@dividend+6)^0,w,c
  3900  0024A2  5010               	movf	(___aodiv@divisor+7)^0,w,c
  3901  0024A4  5808               	subwfb	(___aodiv@dividend+7)^0,w,c
  3902  0024A6  A0D8               	btfss	status,0,c
  3903  0024A8  EF58  F012         	goto	u1781
  3904  0024AC  EF5A  F012         	goto	u1780
  3905  0024B0                     u1781:
  3906  0024B0  EF6B  F012         	goto	l2163
  3907  0024B4                     u1780:
  3908  0024B4  5009               	movf	___aodiv@divisor^0,w,c
  3909  0024B6  5E01               	subwf	___aodiv@dividend^0,f,c
  3910  0024B8  500A               	movf	(___aodiv@divisor+1)^0,w,c
  3911  0024BA  5A02               	subwfb	(___aodiv@dividend+1)^0,f,c
  3912  0024BC  500B               	movf	(___aodiv@divisor+2)^0,w,c
  3913  0024BE  5A03               	subwfb	(___aodiv@dividend+2)^0,f,c
  3914  0024C0  500C               	movf	(___aodiv@divisor+3)^0,w,c
  3915  0024C2  5A04               	subwfb	(___aodiv@dividend+3)^0,f,c
  3916  0024C4  500D               	movf	(___aodiv@divisor+4)^0,w,c
  3917  0024C6  5A05               	subwfb	(___aodiv@dividend+4)^0,f,c
  3918  0024C8  500E               	movf	(___aodiv@divisor+5)^0,w,c
  3919  0024CA  5A06               	subwfb	(___aodiv@dividend+5)^0,f,c
  3920  0024CC  500F               	movf	(___aodiv@divisor+6)^0,w,c
  3921  0024CE  5A07               	subwfb	(___aodiv@dividend+6)^0,f,c
  3922  0024D0  5010               	movf	(___aodiv@divisor+7)^0,w,c
  3923  0024D2  5A08               	subwfb	(___aodiv@dividend+7)^0,f,c
  3924  0024D4  8013               	bsf	___aodiv@quotient^0,0,c
  3925  0024D6                     l2163:
  3926  0024D6  90D8               	bcf	status,0,c
  3927  0024D8  3210               	rrcf	(___aodiv@divisor+7)^0,f,c
  3928  0024DA  320F               	rrcf	(___aodiv@divisor+6)^0,f,c
  3929  0024DC  320E               	rrcf	(___aodiv@divisor+5)^0,f,c
  3930  0024DE  320D               	rrcf	(___aodiv@divisor+4)^0,f,c
  3931  0024E0  320C               	rrcf	(___aodiv@divisor+3)^0,f,c
  3932  0024E2  320B               	rrcf	(___aodiv@divisor+2)^0,f,c
  3933  0024E4  320A               	rrcf	(___aodiv@divisor+1)^0,f,c
  3934  0024E6  3209               	rrcf	___aodiv@divisor^0,f,c
  3935  0024E8  2E11               	decfsz	___aodiv@counter^0,f,c
  3936  0024EA  EF3A  F012         	goto	l2155
  3937  0024EE                     l2167:
  3938  0024EE  5012               	movf	___aodiv@sign^0,w,c
  3939  0024F0  B4D8               	btfsc	status,2,c
  3940  0024F2  EF7D  F012         	goto	u1791
  3941  0024F6  EF7F  F012         	goto	u1790
  3942  0024FA                     u1791:
  3943  0024FA  EF8F  F012         	goto	l2171
  3944  0024FE                     u1790:
  3945  0024FE  1E1A               	comf	(___aodiv@quotient+7)^0,f,c
  3946  002500  1E19               	comf	(___aodiv@quotient+6)^0,f,c
  3947  002502  1E18               	comf	(___aodiv@quotient+5)^0,f,c
  3948  002504  1E17               	comf	(___aodiv@quotient+4)^0,f,c
  3949  002506  1E16               	comf	(___aodiv@quotient+3)^0,f,c
  3950  002508  1E15               	comf	(___aodiv@quotient+2)^0,f,c
  3951  00250A  1E14               	comf	(___aodiv@quotient+1)^0,f,c
  3952  00250C  6C13               	negf	___aodiv@quotient^0,c
  3953  00250E  0E00               	movlw	0
  3954  002510  2214               	addwfc	(___aodiv@quotient+1)^0,f,c
  3955  002512  2215               	addwfc	(___aodiv@quotient+2)^0,f,c
  3956  002514  2216               	addwfc	(___aodiv@quotient+3)^0,f,c
  3957  002516  2217               	addwfc	(___aodiv@quotient+4)^0,f,c
  3958  002518  2218               	addwfc	(___aodiv@quotient+5)^0,f,c
  3959  00251A  2219               	addwfc	(___aodiv@quotient+6)^0,f,c
  3960  00251C  221A               	addwfc	(___aodiv@quotient+7)^0,f,c
  3961  00251E                     l2171:
  3962  00251E  C013  F001         	movff	___aodiv@quotient,?___aodiv
  3963  002522  C014  F002         	movff	___aodiv@quotient+1,?___aodiv+1
  3964  002526  C015  F003         	movff	___aodiv@quotient+2,?___aodiv+2
  3965  00252A  C016  F004         	movff	___aodiv@quotient+3,?___aodiv+3
  3966  00252E  C017  F005         	movff	___aodiv@quotient+4,?___aodiv+4
  3967  002532  C018  F006         	movff	___aodiv@quotient+5,?___aodiv+5
  3968  002536  C019  F007         	movff	___aodiv@quotient+6,?___aodiv+6
  3969  00253A  C01A  F008         	movff	___aodiv@quotient+7,?___aodiv+7
  3970  00253E  0012               	return		;funcret
  3971  002540                     __end_of___aodiv:
  3972                           	callstack 0
  3973                           
  3974 ;; *************** function _silencio *****************
  3975 ;; Defined at:
  3976 ;;		line 73 in file "main.c"
  3977 ;; Parameters:    Size  Location     Type
  3978 ;;  duracion        2   49[COMRAM] int 
  3979 ;;  tfrec           4   51[COMRAM] float 
  3980 ;; Auto vars:     Size  Location     Type
  3981 ;;		None
  3982 ;; Return value:  Size  Location     Type
  3983 ;;                  1    wreg      void 
  3984 ;; Registers used:
  3985 ;;		wreg, status,2, status,0, cstack
  3986 ;; Tracked objects:
  3987 ;;		On entry : 0/0
  3988 ;;		On exit  : 0/0
  3989 ;;		Unchanged: 0/0
  3990 ;; Data sizes:     COMRAM   BANK0   BANK1   BANK2   BANK3   BANK4   BANK5   BANK6   BANK7
  3991 ;;      Params:         6       0       0       0       0       0       0       0       0
  3992 ;;      Locals:         4       0       0       0       0       0       0       0       0
  3993 ;;      Temps:          1       0       0       0       0       0       0       0       0
  3994 ;;      Totals:        11       0       0       0       0       0       0       0       0
  3995 ;;Total ram usage:       11 bytes
  3996 ;; Hardware stack levels used: 1
  3997 ;; Hardware stack levels required when called: 2
  3998 ;; This function calls:
  3999 ;;		___fldiv
  4000 ;;		___flsub
  4001 ;;		___fltol
  4002 ;;		___xxtofl
  4003 ;; This function is called by:
  4004 ;;		_cancion1
  4005 ;; This function uses a non-reentrant model
  4006 ;;
  4007                           
  4008                           	psect	text16
  4009  0026B4                     __ptext16:
  4010                           	callstack 0
  4011  0026B4                     _silencio:
  4012                           	callstack 27
  4013  0026B4                     
  4014                           ;main.c: 75:      duracion = duracion/tfrec;
  4015  0026B4  C034  F013         	movff	silencio@tfrec,___fldiv@a
  4016  0026B8  C035  F014         	movff	silencio@tfrec+1,___fldiv@a+1
  4017  0026BC  C036  F015         	movff	silencio@tfrec+2,___fldiv@a+2
  4018  0026C0  C037  F016         	movff	silencio@tfrec+3,___fldiv@a+3
  4019  0026C4  C032  F001         	movff	silencio@duracion,___xxtofl@val
  4020  0026C8  C033  F002         	movff	silencio@duracion+1,___xxtofl@val+1
  4021  0026CC  0E00               	movlw	0
  4022  0026CE  BE02               	btfsc	(___xxtofl@val+1)^0,7,c
  4023  0026D0  0EFF               	movlw	-1
  4024  0026D2  6E03               	movwf	(___xxtofl@val+2)^0,c
  4025  0026D4  6E04               	movwf	(___xxtofl@val+3)^0,c
  4026  0026D6  0E01               	movlw	1
  4027  0026D8  EC02  F011         	call	___xxtofl
  4028  0026DC  C001  F00F         	movff	?___xxtofl,___fldiv@b
  4029  0026E0  C002  F010         	movff	?___xxtofl+1,___fldiv@b+1
  4030  0026E4  C003  F011         	movff	?___xxtofl+2,___fldiv@b+2
  4031  0026E8  C004  F012         	movff	?___xxtofl+3,___fldiv@b+3
  4032  0026EC  ECE4  F00B         	call	___fldiv	;wreg free
  4033  0026F0  C00F  F028         	movff	?___fldiv,___fltol@f1
  4034  0026F4  C010  F029         	movff	?___fldiv+1,___fltol@f1+1
  4035  0026F8  C011  F02A         	movff	?___fldiv+2,___fltol@f1+2
  4036  0026FC  C012  F02B         	movff	?___fldiv+3,___fltol@f1+3
  4037  002700  ECC6  F014         	call	___fltol	;wreg free
  4038  002704  C028  F032         	movff	?___fltol,silencio@duracion
  4039  002708  C029  F033         	movff	?___fltol+1,silencio@duracion+1
  4040                           
  4041                           ;main.c: 76:      tfrec = 255-((tfrec/2)/(.0002*128));
  4042  00270C  0E00               	movlw	0
  4043  00270E  6E13               	movwf	___fldiv@a^0,c
  4044  002710  0E00               	movlw	0
  4045  002712  6E14               	movwf	(___fldiv@a+1)^0,c
  4046  002714  0E00               	movlw	0
  4047  002716  6E15               	movwf	(___fldiv@a+2)^0,c
  4048  002718  0E40               	movlw	64
  4049  00271A  6E16               	movwf	(___fldiv@a+3)^0,c
  4050  00271C  C034  F00F         	movff	silencio@tfrec,___fldiv@b
  4051  002720  C035  F010         	movff	silencio@tfrec+1,___fldiv@b+1
  4052  002724  C036  F011         	movff	silencio@tfrec+2,___fldiv@b+2
  4053  002728  C037  F012         	movff	silencio@tfrec+3,___fldiv@b+3
  4054  00272C  ECE4  F00B         	call	___fldiv	;wreg free
  4055  002730  C00F  F039         	movff	?___fldiv,_silencio$1175
  4056  002734  C010  F03A         	movff	?___fldiv+1,_silencio$1175+1
  4057  002738  C011  F03B         	movff	?___fldiv+2,_silencio$1175+2
  4058  00273C  C012  F03C         	movff	?___fldiv+3,_silencio$1175+3
  4059                           
  4060                           ;main.c: 76:      tfrec = 255-((tfrec/2)/(.0002*128));
  4061  002740  0E00               	movlw	0
  4062  002742  6E28               	movwf	___flsub@b^0,c
  4063  002744  0E00               	movlw	0
  4064  002746  6E29               	movwf	(___flsub@b+1)^0,c
  4065  002748  0E7F               	movlw	127
  4066  00274A  6E2A               	movwf	(___flsub@b+2)^0,c
  4067  00274C  0E43               	movlw	67
  4068  00274E  6E2B               	movwf	(___flsub@b+3)^0,c
  4069  002750  0E17               	movlw	23
  4070  002752  6E13               	movwf	___fldiv@a^0,c
  4071  002754  0EB7               	movlw	183
  4072  002756  6E14               	movwf	(___fldiv@a+1)^0,c
  4073  002758  0ED1               	movlw	209
  4074  00275A  6E15               	movwf	(___fldiv@a+2)^0,c
  4075  00275C  0E3C               	movlw	60
  4076  00275E  6E16               	movwf	(___fldiv@a+3)^0,c
  4077  002760  C039  F00F         	movff	_silencio$1175,___fldiv@b
  4078  002764  C03A  F010         	movff	_silencio$1175+1,___fldiv@b+1
  4079  002768  C03B  F011         	movff	_silencio$1175+2,___fldiv@b+2
  4080  00276C  C03C  F012         	movff	_silencio$1175+3,___fldiv@b+3
  4081  002770  ECE4  F00B         	call	___fldiv	;wreg free
  4082  002774  C00F  F02C         	movff	?___fldiv,___flsub@a
  4083  002778  C010  F02D         	movff	?___fldiv+1,___flsub@a+1
  4084  00277C  C011  F02E         	movff	?___fldiv+2,___flsub@a+2
  4085  002780  C012  F02F         	movff	?___fldiv+3,___flsub@a+3
  4086  002784  ECEF  F017         	call	___flsub	;wreg free
  4087  002788  C028  F034         	movff	?___flsub,silencio@tfrec
  4088  00278C  C029  F035         	movff	?___flsub+1,silencio@tfrec+1
  4089  002790  C02A  F036         	movff	?___flsub+2,silencio@tfrec+2
  4090  002794  C02B  F037         	movff	?___flsub+3,silencio@tfrec+3
  4091  002798                     
  4092                           ;main.c: 78:        for(b=0;b<duracion;b++){
  4093  002798  0E00               	movlw	0
  4094  00279A  0100               	movlb	0	; () banked
  4095  00279C  6F7D               	movwf	(_b+1)& (0+255),b
  4096  00279E  0E00               	movlw	0
  4097  0027A0  6F7C               	movwf	_b& (0+255),b
  4098  0027A2  EF04  F014         	goto	l2867
  4099  0027A6                     l67:
  4100                           
  4101                           ; BSR set to: 0
  4102                           ;main.c: 79:             PORTAbits.RA0 = 0;
  4103  0027A6  9080               	bcf	128,0,c	;volatile
  4104  0027A8                     
  4105                           ; BSR set to: 0
  4106                           ;main.c: 80:            TMR0 = tfrec;
  4107  0027A8  C034  F028         	movff	silencio@tfrec,___fltol@f1
  4108  0027AC  C035  F029         	movff	silencio@tfrec+1,___fltol@f1+1
  4109  0027B0  C036  F02A         	movff	silencio@tfrec+2,___fltol@f1+2
  4110  0027B4  C037  F02B         	movff	silencio@tfrec+3,___fltol@f1+3
  4111  0027B8  ECC6  F014         	call	___fltol	;wreg free
  4112  0027BC  C028  FFD6         	movff	?___fltol,4054	;volatile
  4113  0027C0  C029  FFD7         	movff	?___fltol+1,4055	;volatile
  4114  0027C4                     l68:
  4115  0027C4  A4F2               	btfss	242,2,c	;volatile
  4116  0027C6  EFE7  F013         	goto	u2931
  4117  0027CA  EFE9  F013         	goto	u2930
  4118  0027CE                     u2931:
  4119  0027CE  EFE2  F013         	goto	l68
  4120  0027D2                     u2930:
  4121  0027D2                     
  4122                           ;main.c: 82:            INTCONbits.TMR0IF=0;
  4123  0027D2  94F2               	bcf	242,2,c	;volatile
  4124                           
  4125                           ;main.c: 84:         PORTAbits.RA0=0;
  4126  0027D4  9080               	bcf	128,0,c	;volatile
  4127  0027D6                     
  4128                           ;main.c: 85:          TMR0 = tfrec;
  4129  0027D6  C034  F028         	movff	silencio@tfrec,___fltol@f1
  4130  0027DA  C035  F029         	movff	silencio@tfrec+1,___fltol@f1+1
  4131  0027DE  C036  F02A         	movff	silencio@tfrec+2,___fltol@f1+2
  4132  0027E2  C037  F02B         	movff	silencio@tfrec+3,___fltol@f1+3
  4133  0027E6  ECC6  F014         	call	___fltol	;wreg free
  4134  0027EA  C028  FFD6         	movff	?___fltol,4054	;volatile
  4135  0027EE  C029  FFD7         	movff	?___fltol+1,4055	;volatile
  4136  0027F2                     l71:
  4137  0027F2  A4F2               	btfss	242,2,c	;volatile
  4138  0027F4  EFFE  F013         	goto	u2941
  4139  0027F8  EF00  F014         	goto	u2940
  4140  0027FC                     u2941:
  4141  0027FC  EFF9  F013         	goto	l71
  4142  002800                     u2940:
  4143  002800                     
  4144                           ;main.c: 87:          INTCONbits.TMR0IF=0;
  4145  002800  94F2               	bcf	242,2,c	;volatile
  4146  002802                     
  4147                           ;main.c: 88: }
  4148  002802  0100               	movlb	0	; () banked
  4149  002804  4B7C               	infsnz	_b& (0+255),f,b
  4150  002806  2B7D               	incf	(_b+1)& (0+255),f,b
  4151  002808                     l2867:
  4152                           
  4153                           ; BSR set to: 0
  4154  002808  5032               	movf	silencio@duracion^0,w,c
  4155  00280A  5D7C               	subwf	_b& (0+255),w,b
  4156  00280C  517D               	movf	(_b+1)& (0+255),w,b
  4157  00280E  0A80               	xorlw	128
  4158  002810  6E38               	movwf	??_silencio^0,c
  4159  002812  5033               	movf	(silencio@duracion+1)^0,w,c
  4160  002814  0A80               	xorlw	128
  4161  002816  5838               	subwfb	??_silencio^0,w,c
  4162  002818  A0D8               	btfss	status,0,c
  4163  00281A  EF11  F014         	goto	u2951
  4164  00281E  EF13  F014         	goto	u2950
  4165  002822                     u2951:
  4166  002822  EFD3  F013         	goto	l67
  4167  002826                     u2950:
  4168  002826                     
  4169                           ; BSR set to: 0
  4170  002826  0012               	return		;funcret
  4171  002828                     __end_of_silencio:
  4172                           	callstack 0
  4173                           
  4174 ;; *************** function ___xxtofl *****************
  4175 ;; Defined at:
  4176 ;;		line 10 in file "C:\Program Files\Microchip\xc8\v2.32\pic\sources\c99\common\xxtofl.c"
  4177 ;; Parameters:    Size  Location     Type
  4178 ;;  sign            1    wreg     unsigned char 
  4179 ;;  val             4    0[COMRAM] long 
  4180 ;; Auto vars:     Size  Location     Type
  4181 ;;  sign            1    8[COMRAM] unsigned char 
  4182 ;;  arg             4   10[COMRAM] unsigned long 
  4183 ;;  exp             1    9[COMRAM] unsigned char 
  4184 ;; Return value:  Size  Location     Type
  4185 ;;                  4    0[COMRAM] unsigned char 
  4186 ;; Registers used:
  4187 ;;		wreg, status,2, status,0
  4188 ;; Tracked objects:
  4189 ;;		On entry : 0/0
  4190 ;;		On exit  : 0/0
  4191 ;;		Unchanged: 0/0
  4192 ;; Data sizes:     COMRAM   BANK0   BANK1   BANK2   BANK3   BANK4   BANK5   BANK6   BANK7
  4193 ;;      Params:         4       0       0       0       0       0       0       0       0
  4194 ;;      Locals:         6       0       0       0       0       0       0       0       0
  4195 ;;      Temps:          4       0       0       0       0       0       0       0       0
  4196 ;;      Totals:        14       0       0       0       0       0       0       0       0
  4197 ;;Total ram usage:       14 bytes
  4198 ;; Hardware stack levels used: 1
  4199 ;; This function calls:
  4200 ;;		Nothing
  4201 ;; This function is called by:
  4202 ;;		_tocar_nota
  4203 ;;		_silencio
  4204 ;;		_cancion1
  4205 ;; This function uses a non-reentrant model
  4206 ;;
  4207                           
  4208                           	psect	text17
  4209  002204                     __ptext17:
  4210                           	callstack 0
  4211  002204                     ___xxtofl:
  4212                           	callstack 28
  4213                           
  4214                           ; BSR set to: 0
  4215                           ;incstack = 0
  4216                           ;___xxtofl@sign stored from wreg
  4217  002204  6E09               	movwf	___xxtofl@sign^0,c
  4218  002206  5009               	movf	___xxtofl@sign^0,w,c
  4219  002208  B4D8               	btfsc	status,2,c
  4220  00220A  EF09  F011         	goto	u2791
  4221  00220E  EF0B  F011         	goto	u2790
  4222  002212                     u2791:
  4223  002212  EF2D  F011         	goto	l802
  4224  002216                     u2790:
  4225  002216  BE04               	btfsc	(___xxtofl@val+3)^0,7,c
  4226  002218  EF12  F011         	goto	u2800
  4227  00221C  EF10  F011         	goto	u2801
  4228  002220                     u2801:
  4229  002220  EF2D  F011         	goto	l802
  4230  002224                     u2800:
  4231  002224  C001  F005         	movff	___xxtofl@val,??___xxtofl
  4232  002228  C002  F006         	movff	___xxtofl@val+1,??___xxtofl+1
  4233  00222C  C003  F007         	movff	___xxtofl@val+2,??___xxtofl+2
  4234  002230  C004  F008         	movff	___xxtofl@val+3,??___xxtofl+3
  4235  002234  1E05               	comf	??___xxtofl^0,f,c
  4236  002236  1E06               	comf	(??___xxtofl+1)^0,f,c
  4237  002238  1E07               	comf	(??___xxtofl+2)^0,f,c
  4238  00223A  1E08               	comf	(??___xxtofl+3)^0,f,c
  4239  00223C  2A05               	incf	??___xxtofl^0,f,c
  4240  00223E  0E00               	movlw	0
  4241  002240  2206               	addwfc	(??___xxtofl+1)^0,f,c
  4242  002242  2207               	addwfc	(??___xxtofl+2)^0,f,c
  4243  002244  2208               	addwfc	(??___xxtofl+3)^0,f,c
  4244  002246  C005  F00B         	movff	??___xxtofl,___xxtofl@arg
  4245  00224A  C006  F00C         	movff	??___xxtofl+1,___xxtofl@arg+1
  4246  00224E  C007  F00D         	movff	??___xxtofl+2,___xxtofl@arg+2
  4247  002252  C008  F00E         	movff	??___xxtofl+3,___xxtofl@arg+3
  4248  002256  EF35  F011         	goto	l2797
  4249  00225A                     l802:
  4250  00225A  C001  F00B         	movff	___xxtofl@val,___xxtofl@arg
  4251  00225E  C002  F00C         	movff	___xxtofl@val+1,___xxtofl@arg+1
  4252  002262  C003  F00D         	movff	___xxtofl@val+2,___xxtofl@arg+2
  4253  002266  C004  F00E         	movff	___xxtofl@val+3,___xxtofl@arg+3
  4254  00226A                     l2797:
  4255  00226A  5001               	movf	___xxtofl@val^0,w,c
  4256  00226C  1002               	iorwf	(___xxtofl@val+1)^0,w,c
  4257  00226E  1003               	iorwf	(___xxtofl@val+2)^0,w,c
  4258  002270  1004               	iorwf	(___xxtofl@val+3)^0,w,c
  4259  002272  A4D8               	btfss	status,2,c
  4260  002274  EF3E  F011         	goto	u2811
  4261  002278  EF40  F011         	goto	u2810
  4262  00227C                     u2811:
  4263  00227C  EF4A  F011         	goto	l2803
  4264  002280                     u2810:
  4265  002280  0E00               	movlw	0
  4266  002282  6E01               	movwf	?___xxtofl^0,c
  4267  002284  0E00               	movlw	0
  4268  002286  6E02               	movwf	(?___xxtofl+1)^0,c
  4269  002288  0E00               	movlw	0
  4270  00228A  6E03               	movwf	(?___xxtofl+2)^0,c
  4271  00228C  0E00               	movlw	0
  4272  00228E  6E04               	movwf	(?___xxtofl+3)^0,c
  4273  002290  EFDB  F011         	goto	l805
  4274  002294                     l2803:
  4275  002294  0E96               	movlw	150
  4276  002296  6E0A               	movwf	___xxtofl@exp^0,c
  4277  002298  EF54  F011         	goto	l2807
  4278  00229C                     l2805:
  4279  00229C  2A0A               	incf	___xxtofl@exp^0,f,c
  4280  00229E  90D8               	bcf	status,0,c
  4281  0022A0  320E               	rrcf	(___xxtofl@arg+3)^0,f,c
  4282  0022A2  320D               	rrcf	(___xxtofl@arg+2)^0,f,c
  4283  0022A4  320C               	rrcf	(___xxtofl@arg+1)^0,f,c
  4284  0022A6  320B               	rrcf	___xxtofl@arg^0,f,c
  4285  0022A8                     l2807:
  4286  0022A8  0E00               	movlw	0
  4287  0022AA  140B               	andwf	___xxtofl@arg^0,w,c
  4288  0022AC  6E05               	movwf	??___xxtofl^0,c
  4289  0022AE  0E00               	movlw	0
  4290  0022B0  140C               	andwf	(___xxtofl@arg+1)^0,w,c
  4291  0022B2  6E06               	movwf	(??___xxtofl+1)^0,c
  4292  0022B4  0E00               	movlw	0
  4293  0022B6  140D               	andwf	(___xxtofl@arg+2)^0,w,c
  4294  0022B8  6E07               	movwf	(??___xxtofl+2)^0,c
  4295  0022BA  0EFE               	movlw	254
  4296  0022BC  140E               	andwf	(___xxtofl@arg+3)^0,w,c
  4297  0022BE  6E08               	movwf	(??___xxtofl+3)^0,c
  4298  0022C0  5005               	movf	??___xxtofl^0,w,c
  4299  0022C2  1006               	iorwf	(??___xxtofl+1)^0,w,c
  4300  0022C4  1007               	iorwf	(??___xxtofl+2)^0,w,c
  4301  0022C6  1008               	iorwf	(??___xxtofl+3)^0,w,c
  4302  0022C8  A4D8               	btfss	status,2,c
  4303  0022CA  EF69  F011         	goto	u2821
  4304  0022CE  EF6B  F011         	goto	u2820
  4305  0022D2                     u2821:
  4306  0022D2  EF4E  F011         	goto	l2805
  4307  0022D6                     u2820:
  4308  0022D6  EF79  F011         	goto	l809
  4309  0022DA                     l2809:
  4310  0022DA  2A0A               	incf	___xxtofl@exp^0,f,c
  4311  0022DC  0E01               	movlw	1
  4312  0022DE  260B               	addwf	___xxtofl@arg^0,f,c
  4313  0022E0  0E00               	movlw	0
  4314  0022E2  220C               	addwfc	(___xxtofl@arg+1)^0,f,c
  4315  0022E4  220D               	addwfc	(___xxtofl@arg+2)^0,f,c
  4316  0022E6  220E               	addwfc	(___xxtofl@arg+3)^0,f,c
  4317  0022E8  90D8               	bcf	status,0,c
  4318  0022EA  320E               	rrcf	(___xxtofl@arg+3)^0,f,c
  4319  0022EC  320D               	rrcf	(___xxtofl@arg+2)^0,f,c
  4320  0022EE  320C               	rrcf	(___xxtofl@arg+1)^0,f,c
  4321  0022F0  320B               	rrcf	___xxtofl@arg^0,f,c
  4322  0022F2                     l809:
  4323  0022F2  0E00               	movlw	0
  4324  0022F4  140B               	andwf	___xxtofl@arg^0,w,c
  4325  0022F6  6E05               	movwf	??___xxtofl^0,c
  4326  0022F8  0E00               	movlw	0
  4327  0022FA  140C               	andwf	(___xxtofl@arg+1)^0,w,c
  4328  0022FC  6E06               	movwf	(??___xxtofl+1)^0,c
  4329  0022FE  0E00               	movlw	0
  4330  002300  140D               	andwf	(___xxtofl@arg+2)^0,w,c
  4331  002302  6E07               	movwf	(??___xxtofl+2)^0,c
  4332  002304  0EFF               	movlw	255
  4333  002306  140E               	andwf	(___xxtofl@arg+3)^0,w,c
  4334  002308  6E08               	movwf	(??___xxtofl+3)^0,c
  4335  00230A  5005               	movf	??___xxtofl^0,w,c
  4336  00230C  1006               	iorwf	(??___xxtofl+1)^0,w,c
  4337  00230E  1007               	iorwf	(??___xxtofl+2)^0,w,c
  4338  002310  1008               	iorwf	(??___xxtofl+3)^0,w,c
  4339  002312  A4D8               	btfss	status,2,c
  4340  002314  EF8E  F011         	goto	u2831
  4341  002318  EF90  F011         	goto	u2830
  4342  00231C                     u2831:
  4343  00231C  EF6D  F011         	goto	l2809
  4344  002320                     u2830:
  4345  002320  EF98  F011         	goto	l2817
  4346  002324                     l2815:
  4347  002324  060A               	decf	___xxtofl@exp^0,f,c
  4348  002326  90D8               	bcf	status,0,c
  4349  002328  360B               	rlcf	___xxtofl@arg^0,f,c
  4350  00232A  360C               	rlcf	(___xxtofl@arg+1)^0,f,c
  4351  00232C  360D               	rlcf	(___xxtofl@arg+2)^0,f,c
  4352  00232E  360E               	rlcf	(___xxtofl@arg+3)^0,f,c
  4353  002330                     l2817:
  4354  002330  BE0D               	btfsc	(___xxtofl@arg+2)^0,7,c
  4355  002332  EF9D  F011         	goto	u2841
  4356  002336  EF9F  F011         	goto	u2840
  4357  00233A                     u2841:
  4358  00233A  EFA7  F011         	goto	l816
  4359  00233E                     u2840:
  4360  00233E  0E02               	movlw	2
  4361  002340  600A               	cpfslt	___xxtofl@exp^0,c
  4362  002342  EFA5  F011         	goto	u2851
  4363  002346  EFA7  F011         	goto	u2850
  4364  00234A                     u2851:
  4365  00234A  EF92  F011         	goto	l2815
  4366  00234E                     u2850:
  4367  00234E                     l816:
  4368  00234E  B00A               	btfsc	___xxtofl@exp^0,0,c
  4369  002350  EFAC  F011         	goto	u2861
  4370  002354  EFAE  F011         	goto	u2860
  4371  002358                     u2861:
  4372  002358  EFAF  F011         	goto	l2823
  4373  00235C                     u2860:
  4374  00235C  9E0D               	bcf	(___xxtofl@arg+2)^0,7,c
  4375  00235E                     l2823:
  4376  00235E  90D8               	bcf	status,0,c
  4377  002360  320A               	rrcf	___xxtofl@exp^0,f,c
  4378  002362  C00A  F005         	movff	___xxtofl@exp,??___xxtofl
  4379  002366  6A06               	clrf	(??___xxtofl+1)^0,c
  4380  002368  6A07               	clrf	(??___xxtofl+2)^0,c
  4381  00236A  6A08               	clrf	(??___xxtofl+3)^0,c
  4382  00236C  C005  F008         	movff	??___xxtofl,??___xxtofl+3
  4383  002370  6A07               	clrf	(??___xxtofl+2)^0,c
  4384  002372  6A06               	clrf	(??___xxtofl+1)^0,c
  4385  002374  6A05               	clrf	??___xxtofl^0,c
  4386  002376  5005               	movf	??___xxtofl^0,w,c
  4387  002378  120B               	iorwf	___xxtofl@arg^0,f,c
  4388  00237A  5006               	movf	(??___xxtofl+1)^0,w,c
  4389  00237C  120C               	iorwf	(___xxtofl@arg+1)^0,f,c
  4390  00237E  5007               	movf	(??___xxtofl+2)^0,w,c
  4391  002380  120D               	iorwf	(___xxtofl@arg+2)^0,f,c
  4392  002382  5008               	movf	(??___xxtofl+3)^0,w,c
  4393  002384  120E               	iorwf	(___xxtofl@arg+3)^0,f,c
  4394  002386  5009               	movf	___xxtofl@sign^0,w,c
  4395  002388  B4D8               	btfsc	status,2,c
  4396  00238A  EFC9  F011         	goto	u2871
  4397  00238E  EFCB  F011         	goto	u2870
  4398  002392                     u2871:
  4399  002392  EFD3  F011         	goto	l2833
  4400  002396                     u2870:
  4401  002396  BE04               	btfsc	(___xxtofl@val+3)^0,7,c
  4402  002398  EFD2  F011         	goto	u2880
  4403  00239C  EFD0  F011         	goto	u2881
  4404  0023A0                     u2881:
  4405  0023A0  EFD3  F011         	goto	l2833
  4406  0023A4                     u2880:
  4407  0023A4  8E0E               	bsf	(___xxtofl@arg+3)^0,7,c
  4408  0023A6                     l2833:
  4409  0023A6  C00B  F001         	movff	___xxtofl@arg,?___xxtofl
  4410  0023AA  C00C  F002         	movff	___xxtofl@arg+1,?___xxtofl+1
  4411  0023AE  C00D  F003         	movff	___xxtofl@arg+2,?___xxtofl+2
  4412  0023B2  C00E  F004         	movff	___xxtofl@arg+3,?___xxtofl+3
  4413  0023B6                     l805:
  4414  0023B6  0012               	return		;funcret
  4415  0023B8                     __end_of___xxtofl:
  4416                           	callstack 0
  4417                           
  4418 ;; *************** function ___fltol *****************
  4419 ;; Defined at:
  4420 ;;		line 43 in file "C:\Program Files\Microchip\xc8\v2.32\pic\sources\c99\common\fltol.c"
  4421 ;; Parameters:    Size  Location     Type
  4422 ;;  f1              4   39[COMRAM] unsigned char 
  4423 ;; Auto vars:     Size  Location     Type
  4424 ;;  exp1            1   48[COMRAM] unsigned char 
  4425 ;;  sign1           1   47[COMRAM] unsigned char 
  4426 ;; Return value:  Size  Location     Type
  4427 ;;                  4   39[COMRAM] long 
  4428 ;; Registers used:
  4429 ;;		wreg, status,2, status,0
  4430 ;; Tracked objects:
  4431 ;;		On entry : 0/0
  4432 ;;		On exit  : 0/0
  4433 ;;		Unchanged: 0/0
  4434 ;; Data sizes:     COMRAM   BANK0   BANK1   BANK2   BANK3   BANK4   BANK5   BANK6   BANK7
  4435 ;;      Params:         4       0       0       0       0       0       0       0       0
  4436 ;;      Locals:         2       0       0       0       0       0       0       0       0
  4437 ;;      Temps:          4       0       0       0       0       0       0       0       0
  4438 ;;      Totals:        10       0       0       0       0       0       0       0       0
  4439 ;;Total ram usage:       10 bytes
  4440 ;; Hardware stack levels used: 1
  4441 ;; This function calls:
  4442 ;;		Nothing
  4443 ;; This function is called by:
  4444 ;;		_tocar_nota
  4445 ;;		_silencio
  4446 ;;		_cancion1
  4447 ;; This function uses a non-reentrant model
  4448 ;;
  4449                           
  4450                           	psect	text18
  4451  00298C                     __ptext18:
  4452                           	callstack 0
  4453  00298C                     ___fltol:
  4454                           	callstack 28
  4455  00298C  342A               	rlcf	(___fltol@f1+2)^0,w,c
  4456  00298E  342B               	rlcf	(___fltol@f1+3)^0,w,c
  4457  002990  6E31               	movwf	___fltol@exp1^0,c
  4458  002992  5031               	movf	___fltol@exp1^0,w,c
  4459  002994  A4D8               	btfss	status,2,c
  4460  002996  EFCF  F014         	goto	u2721
  4461  00299A  EFD1  F014         	goto	u2720
  4462  00299E                     u2721:
  4463  00299E  EFDB  F014         	goto	l2753
  4464  0029A2                     u2720:
  4465  0029A2                     l2749:
  4466  0029A2  0E00               	movlw	0
  4467  0029A4  6E28               	movwf	?___fltol^0,c
  4468  0029A6  0E00               	movlw	0
  4469  0029A8  6E29               	movwf	(?___fltol+1)^0,c
  4470  0029AA  0E00               	movlw	0
  4471  0029AC  6E2A               	movwf	(?___fltol+2)^0,c
  4472  0029AE  0E00               	movlw	0
  4473  0029B0  6E2B               	movwf	(?___fltol+3)^0,c
  4474  0029B2  EF48  F015         	goto	l444
  4475  0029B6                     l2753:
  4476  0029B6  C028  F02C         	movff	___fltol@f1,??___fltol
  4477  0029BA  C029  F02D         	movff	___fltol@f1+1,??___fltol+1
  4478  0029BE  C02A  F02E         	movff	___fltol@f1+2,??___fltol+2
  4479  0029C2  C02B  F02F         	movff	___fltol@f1+3,??___fltol+3
  4480  0029C6  0E20               	movlw	32
  4481  0029C8  EFEB  F014         	goto	u2730
  4482  0029CC                     u2735:
  4483  0029CC  90D8               	bcf	status,0,c
  4484  0029CE  322F               	rrcf	(??___fltol+3)^0,f,c
  4485  0029D0  322E               	rrcf	(??___fltol+2)^0,f,c
  4486  0029D2  322D               	rrcf	(??___fltol+1)^0,f,c
  4487  0029D4  322C               	rrcf	??___fltol^0,f,c
  4488  0029D6                     u2730:
  4489  0029D6  2EE8               	decfsz	wreg,f,c
  4490  0029D8  EFE6  F014         	goto	u2735
  4491  0029DC  502C               	movf	??___fltol^0,w,c
  4492  0029DE  6E30               	movwf	___fltol@sign1^0,c
  4493  0029E0  8E2A               	bsf	(___fltol@f1+2)^0,7,c
  4494  0029E2  0EFF               	movlw	255
  4495  0029E4  1628               	andwf	___fltol@f1^0,f,c
  4496  0029E6  0EFF               	movlw	255
  4497  0029E8  1629               	andwf	(___fltol@f1+1)^0,f,c
  4498  0029EA  0EFF               	movlw	255
  4499  0029EC  162A               	andwf	(___fltol@f1+2)^0,f,c
  4500  0029EE  0E00               	movlw	0
  4501  0029F0  162B               	andwf	(___fltol@f1+3)^0,f,c
  4502  0029F2  0E96               	movlw	150
  4503  0029F4  5E31               	subwf	___fltol@exp1^0,f,c
  4504  0029F6  BE31               	btfsc	___fltol@exp1^0,7,c
  4505  0029F8  EF02  F015         	goto	u2740
  4506  0029FC  EF00  F015         	goto	u2741
  4507  002A00                     u2741:
  4508  002A00  EF18  F015         	goto	l2773
  4509  002A04                     u2740:
  4510  002A04  5031               	movf	___fltol@exp1^0,w,c
  4511  002A06  0A80               	xorlw	128
  4512  002A08  0F97               	addlw	151
  4513  002A0A  B0D8               	btfsc	status,0,c
  4514  002A0C  EF0A  F015         	goto	u2751
  4515  002A10  EF0C  F015         	goto	u2750
  4516  002A14                     u2751:
  4517  002A14  EF0E  F015         	goto	l2769
  4518  002A18                     u2750:
  4519  002A18  EFD1  F014         	goto	l2749
  4520  002A1C                     l2769:
  4521  002A1C  90D8               	bcf	status,0,c
  4522  002A1E  322B               	rrcf	(___fltol@f1+3)^0,f,c
  4523  002A20  322A               	rrcf	(___fltol@f1+2)^0,f,c
  4524  002A22  3229               	rrcf	(___fltol@f1+1)^0,f,c
  4525  002A24  3228               	rrcf	___fltol@f1^0,f,c
  4526  002A26  3E31               	incfsz	___fltol@exp1^0,f,c
  4527  002A28  EF0E  F015         	goto	l2769
  4528  002A2C  EF30  F015         	goto	l2783
  4529  002A30                     l2773:
  4530  002A30  0E1F               	movlw	31
  4531  002A32  6431               	cpfsgt	___fltol@exp1^0,c
  4532  002A34  EF1E  F015         	goto	u2761
  4533  002A38  EF20  F015         	goto	u2760
  4534  002A3C                     u2761:
  4535  002A3C  EF28  F015         	goto	l2781
  4536  002A40                     u2760:
  4537  002A40  EFD1  F014         	goto	l2749
  4538  002A44                     l2779:
  4539  002A44  90D8               	bcf	status,0,c
  4540  002A46  3628               	rlcf	___fltol@f1^0,f,c
  4541  002A48  3629               	rlcf	(___fltol@f1+1)^0,f,c
  4542  002A4A  362A               	rlcf	(___fltol@f1+2)^0,f,c
  4543  002A4C  362B               	rlcf	(___fltol@f1+3)^0,f,c
  4544  002A4E  0631               	decf	___fltol@exp1^0,f,c
  4545  002A50                     l2781:
  4546  002A50  5031               	movf	___fltol@exp1^0,w,c
  4547  002A52  A4D8               	btfss	status,2,c
  4548  002A54  EF2E  F015         	goto	u2771
  4549  002A58  EF30  F015         	goto	u2770
  4550  002A5C                     u2771:
  4551  002A5C  EF22  F015         	goto	l2779
  4552  002A60                     u2770:
  4553  002A60                     l2783:
  4554  002A60  5030               	movf	___fltol@sign1^0,w,c
  4555  002A62  B4D8               	btfsc	status,2,c
  4556  002A64  EF36  F015         	goto	u2781
  4557  002A68  EF38  F015         	goto	u2780
  4558  002A6C                     u2781:
  4559  002A6C  EF40  F015         	goto	l2787
  4560  002A70                     u2780:
  4561  002A70  1E2B               	comf	(___fltol@f1+3)^0,f,c
  4562  002A72  1E2A               	comf	(___fltol@f1+2)^0,f,c
  4563  002A74  1E29               	comf	(___fltol@f1+1)^0,f,c
  4564  002A76  6C28               	negf	___fltol@f1^0,c
  4565  002A78  0E00               	movlw	0
  4566  002A7A  2229               	addwfc	(___fltol@f1+1)^0,f,c
  4567  002A7C  222A               	addwfc	(___fltol@f1+2)^0,f,c
  4568  002A7E  222B               	addwfc	(___fltol@f1+3)^0,f,c
  4569  002A80                     l2787:
  4570  002A80  C028  F028         	movff	___fltol@f1,?___fltol
  4571  002A84  C029  F029         	movff	___fltol@f1+1,?___fltol+1
  4572  002A88  C02A  F02A         	movff	___fltol@f1+2,?___fltol+2
  4573  002A8C  C02B  F02B         	movff	___fltol@f1+3,?___fltol+3
  4574  002A90                     l444:
  4575  002A90  0012               	return		;funcret
  4576  002A92                     __end_of___fltol:
  4577                           	callstack 0
  4578                           
  4579 ;; *************** function ___flsub *****************
  4580 ;; Defined at:
  4581 ;;		line 245 in file "C:\Program Files\Microchip\xc8\v2.32\pic\sources\c99\common\sprcadd.c"
  4582 ;; Parameters:    Size  Location     Type
  4583 ;;  b               4   39[COMRAM] long 
  4584 ;;  a               4   43[COMRAM] long 
  4585 ;; Auto vars:     Size  Location     Type
  4586 ;;		None
  4587 ;; Return value:  Size  Location     Type
  4588 ;;                  4   39[COMRAM] long 
  4589 ;; Registers used:
  4590 ;;		wreg, status,2, status,0, cstack
  4591 ;; Tracked objects:
  4592 ;;		On entry : 0/0
  4593 ;;		On exit  : 0/0
  4594 ;;		Unchanged: 0/0
  4595 ;; Data sizes:     COMRAM   BANK0   BANK1   BANK2   BANK3   BANK4   BANK5   BANK6   BANK7
  4596 ;;      Params:         8       0       0       0       0       0       0       0       0
  4597 ;;      Locals:         0       0       0       0       0       0       0       0       0
  4598 ;;      Temps:          0       0       0       0       0       0       0       0       0
  4599 ;;      Totals:         8       0       0       0       0       0       0       0       0
  4600 ;;Total ram usage:        8 bytes
  4601 ;; Hardware stack levels used: 1
  4602 ;; Hardware stack levels required when called: 1
  4603 ;; This function calls:
  4604 ;;		___fladd
  4605 ;; This function is called by:
  4606 ;;		_tocar_nota
  4607 ;;		_silencio
  4608 ;; This function uses a non-reentrant model
  4609 ;;
  4610                           
  4611                           	psect	text19
  4612  002FDE                     __ptext19:
  4613                           	callstack 0
  4614  002FDE                     ___flsub:
  4615                           	callstack 27
  4616  002FDE  0E00               	movlw	0
  4617  002FE0  1A2C               	xorwf	___flsub@a^0,f,c
  4618  002FE2  0E00               	movlw	0
  4619  002FE4  1A2D               	xorwf	(___flsub@a+1)^0,f,c
  4620  002FE6  0E00               	movlw	0
  4621  002FE8  1A2E               	xorwf	(___flsub@a+2)^0,f,c
  4622  002FEA  0E80               	movlw	128
  4623  002FEC  1A2F               	xorwf	(___flsub@a+3)^0,f,c
  4624  002FEE  C028  F001         	movff	___flsub@b,___fladd@b
  4625  002FF2  C029  F002         	movff	___flsub@b+1,___fladd@b+1
  4626  002FF6  C02A  F003         	movff	___flsub@b+2,___fladd@b+2
  4627  002FFA  C02B  F004         	movff	___flsub@b+3,___fladd@b+3
  4628  002FFE  C02C  F005         	movff	___flsub@a,___fladd@a
  4629  003002  C02D  F006         	movff	___flsub@a+1,___fladd@a+1
  4630  003006  C02E  F007         	movff	___flsub@a+2,___fladd@a+2
  4631  00300A  C02F  F008         	movff	___flsub@a+3,___fladd@a+3
  4632  00300E  EC6F  F007         	call	___fladd	;wreg free
  4633  003012  C001  F028         	movff	?___fladd,?___flsub
  4634  003016  C002  F029         	movff	?___fladd+1,?___flsub+1
  4635  00301A  C003  F02A         	movff	?___fladd+2,?___flsub+2
  4636  00301E  C004  F02B         	movff	?___fladd+3,?___flsub+3
  4637  003022  0012               	return		;funcret
  4638  003024                     __end_of___flsub:
  4639                           	callstack 0
  4640                           
  4641 ;; *************** function ___fladd *****************
  4642 ;; Defined at:
  4643 ;;		line 10 in file "C:\Program Files\Microchip\xc8\v2.32\pic\sources\c99\common\sprcadd.c"
  4644 ;; Parameters:    Size  Location     Type
  4645 ;;  b               4    0[COMRAM] long 
  4646 ;;  a               4    4[COMRAM] long 
  4647 ;; Auto vars:     Size  Location     Type
  4648 ;;  grs             1   15[COMRAM] unsigned char 
  4649 ;;  bexp            1   14[COMRAM] unsigned char 
  4650 ;;  aexp            1   13[COMRAM] unsigned char 
  4651 ;;  signs           1   12[COMRAM] unsigned char 
  4652 ;; Return value:  Size  Location     Type
  4653 ;;                  4    0[COMRAM] unsigned char 
  4654 ;; Registers used:
  4655 ;;		wreg, status,2, status,0
  4656 ;; Tracked objects:
  4657 ;;		On entry : 0/0
  4658 ;;		On exit  : 0/0
  4659 ;;		Unchanged: 0/0
  4660 ;; Data sizes:     COMRAM   BANK0   BANK1   BANK2   BANK3   BANK4   BANK5   BANK6   BANK7
  4661 ;;      Params:         8       0       0       0       0       0       0       0       0
  4662 ;;      Locals:         4       0       0       0       0       0       0       0       0
  4663 ;;      Temps:          4       0       0       0       0       0       0       0       0
  4664 ;;      Totals:        16       0       0       0       0       0       0       0       0
  4665 ;;Total ram usage:       16 bytes
  4666 ;; Hardware stack levels used: 1
  4667 ;; This function calls:
  4668 ;;		Nothing
  4669 ;; This function is called by:
  4670 ;;		___flsub
  4671 ;; This function uses a non-reentrant model
  4672 ;;
  4673                           
  4674                           	psect	text20
  4675  000EDE                     __ptext20:
  4676                           	callstack 0
  4677  000EDE                     ___fladd:
  4678                           	callstack 27
  4679  000EDE  5004               	movf	(___fladd@b+3)^0,w,c
  4680  000EE0  0B80               	andlw	128
  4681  000EE2  6E0D               	movwf	___fladd@signs^0,c
  4682  000EE4  5004               	movf	(___fladd@b+3)^0,w,c
  4683  000EE6  2404               	addwf	(___fladd@b+3)^0,w,c
  4684  000EE8  6E0F               	movwf	___fladd@bexp^0,c
  4685  000EEA  AE03               	btfss	(___fladd@b+2)^0,7,c
  4686  000EEC  EF7A  F007         	goto	u2061
  4687  000EF0  EF7C  F007         	goto	u2060
  4688  000EF4                     u2061:
  4689  000EF4  EF7D  F007         	goto	l2305
  4690  000EF8                     u2060:
  4691  000EF8  800F               	bsf	___fladd@bexp^0,0,c
  4692  000EFA                     l2305:
  4693  000EFA  500F               	movf	___fladd@bexp^0,w,c
  4694  000EFC  B4D8               	btfsc	status,2,c
  4695  000EFE  EF83  F007         	goto	u2071
  4696  000F02  EF85  F007         	goto	u2070
  4697  000F06                     u2071:
  4698  000F06  EF9A  F007         	goto	l2315
  4699  000F0A                     u2070:
  4700  000F0A  280F               	incf	___fladd@bexp^0,w,c
  4701  000F0C  A4D8               	btfss	status,2,c
  4702  000F0E  EF8B  F007         	goto	u2081
  4703  000F12  EF8D  F007         	goto	u2080
  4704  000F16                     u2081:
  4705  000F16  EF95  F007         	goto	l2311
  4706  000F1A                     u2080:
  4707  000F1A  0E00               	movlw	0
  4708  000F1C  6E01               	movwf	___fladd@b^0,c
  4709  000F1E  0E00               	movlw	0
  4710  000F20  6E02               	movwf	(___fladd@b+1)^0,c
  4711  000F22  0E00               	movlw	0
  4712  000F24  6E03               	movwf	(___fladd@b+2)^0,c
  4713  000F26  0E00               	movlw	0
  4714  000F28  6E04               	movwf	(___fladd@b+3)^0,c
  4715  000F2A                     l2311:
  4716  000F2A  8E03               	bsf	(___fladd@b+2)^0,7,c
  4717  000F2C  0E00               	movlw	0
  4718  000F2E  6E04               	movwf	(___fladd@b+3)^0,c
  4719  000F30  EFA2  F007         	goto	l2317
  4720  000F34                     l2315:
  4721  000F34  0E00               	movlw	0
  4722  000F36  6E01               	movwf	___fladd@b^0,c
  4723  000F38  0E00               	movlw	0
  4724  000F3A  6E02               	movwf	(___fladd@b+1)^0,c
  4725  000F3C  0E00               	movlw	0
  4726  000F3E  6E03               	movwf	(___fladd@b+2)^0,c
  4727  000F40  0E00               	movlw	0
  4728  000F42  6E04               	movwf	(___fladd@b+3)^0,c
  4729  000F44                     l2317:
  4730  000F44  5008               	movf	(___fladd@a+3)^0,w,c
  4731  000F46  0B80               	andlw	128
  4732  000F48  6E0E               	movwf	___fladd@aexp^0,c
  4733  000F4A  500D               	movf	___fladd@signs^0,w,c
  4734  000F4C  180E               	xorwf	___fladd@aexp^0,w,c
  4735  000F4E  B4D8               	btfsc	status,2,c
  4736  000F50  EFAC  F007         	goto	u2091
  4737  000F54  EFAE  F007         	goto	u2090
  4738  000F58                     u2091:
  4739  000F58  EFAF  F007         	goto	l2323
  4740  000F5C                     u2090:
  4741  000F5C  8C0D               	bsf	___fladd@signs^0,6,c
  4742  000F5E                     l2323:
  4743  000F5E  5008               	movf	(___fladd@a+3)^0,w,c
  4744  000F60  2408               	addwf	(___fladd@a+3)^0,w,c
  4745  000F62  6E0E               	movwf	___fladd@aexp^0,c
  4746  000F64  AE07               	btfss	(___fladd@a+2)^0,7,c
  4747  000F66  EFB7  F007         	goto	u2101
  4748  000F6A  EFB9  F007         	goto	u2100
  4749  000F6E                     u2101:
  4750  000F6E  EFBA  F007         	goto	l2329
  4751  000F72                     u2100:
  4752  000F72  800E               	bsf	___fladd@aexp^0,0,c
  4753  000F74                     l2329:
  4754  000F74  500E               	movf	___fladd@aexp^0,w,c
  4755  000F76  B4D8               	btfsc	status,2,c
  4756  000F78  EFC0  F007         	goto	u2111
  4757  000F7C  EFC2  F007         	goto	u2110
  4758  000F80                     u2111:
  4759  000F80  EFD7  F007         	goto	l2339
  4760  000F84                     u2110:
  4761  000F84  280E               	incf	___fladd@aexp^0,w,c
  4762  000F86  A4D8               	btfss	status,2,c
  4763  000F88  EFC8  F007         	goto	u2121
  4764  000F8C  EFCA  F007         	goto	u2120
  4765  000F90                     u2121:
  4766  000F90  EFD2  F007         	goto	l2335
  4767  000F94                     u2120:
  4768  000F94  0E00               	movlw	0
  4769  000F96  6E05               	movwf	___fladd@a^0,c
  4770  000F98  0E00               	movlw	0
  4771  000F9A  6E06               	movwf	(___fladd@a+1)^0,c
  4772  000F9C  0E00               	movlw	0
  4773  000F9E  6E07               	movwf	(___fladd@a+2)^0,c
  4774  000FA0  0E00               	movlw	0
  4775  000FA2  6E08               	movwf	(___fladd@a+3)^0,c
  4776  000FA4                     l2335:
  4777  000FA4  8E07               	bsf	(___fladd@a+2)^0,7,c
  4778  000FA6  0E00               	movlw	0
  4779  000FA8  6E08               	movwf	(___fladd@a+3)^0,c
  4780  000FAA  EFDF  F007         	goto	l2341
  4781  000FAE                     l2339:
  4782  000FAE  0E00               	movlw	0
  4783  000FB0  6E05               	movwf	___fladd@a^0,c
  4784  000FB2  0E00               	movlw	0
  4785  000FB4  6E06               	movwf	(___fladd@a+1)^0,c
  4786  000FB6  0E00               	movlw	0
  4787  000FB8  6E07               	movwf	(___fladd@a+2)^0,c
  4788  000FBA  0E00               	movlw	0
  4789  000FBC  6E08               	movwf	(___fladd@a+3)^0,c
  4790  000FBE                     l2341:
  4791  000FBE  500F               	movf	___fladd@bexp^0,w,c
  4792  000FC0  5C0E               	subwf	___fladd@aexp^0,w,c
  4793  000FC2  B0D8               	btfsc	status,0,c
  4794  000FC4  EFE6  F007         	goto	u2131
  4795  000FC8  EFE8  F007         	goto	u2130
  4796  000FCC                     u2131:
  4797  000FCC  EF0F  F008         	goto	l2377
  4798  000FD0                     u2130:
  4799  000FD0  AC0D               	btfss	___fladd@signs^0,6,c
  4800  000FD2  EFED  F007         	goto	u2141
  4801  000FD6  EFEF  F007         	goto	u2140
  4802  000FDA                     u2141:
  4803  000FDA  EFF1  F007         	goto	l2347
  4804  000FDE                     u2140:
  4805  000FDE  0E80               	movlw	128
  4806  000FE0  1A0D               	xorwf	___fladd@signs^0,f,c
  4807  000FE2                     l2347:
  4808  000FE2  C00F  F010         	movff	___fladd@bexp,___fladd@grs
  4809  000FE6  C00E  F00F         	movff	___fladd@aexp,___fladd@bexp
  4810  000FEA  C010  F00E         	movff	___fladd@grs,___fladd@aexp
  4811  000FEE  C001  F010         	movff	___fladd@b,___fladd@grs
  4812  000FF2  C005  F001         	movff	___fladd@a,___fladd@b
  4813  000FF6  C010  F005         	movff	___fladd@grs,___fladd@a
  4814  000FFA  C002  F010         	movff	___fladd@b+1,___fladd@grs
  4815  000FFE  C006  F002         	movff	___fladd@a+1,___fladd@b+1
  4816  001002  C010  F006         	movff	___fladd@grs,___fladd@a+1
  4817  001006  C003  F010         	movff	___fladd@b+2,___fladd@grs
  4818  00100A  C007  F003         	movff	___fladd@a+2,___fladd@b+2
  4819  00100E  C010  F007         	movff	___fladd@grs,___fladd@a+2
  4820  001012  C004  F010         	movff	___fladd@b+3,___fladd@grs
  4821  001016  C008  F004         	movff	___fladd@a+3,___fladd@b+3
  4822  00101A  C010  F008         	movff	___fladd@grs,___fladd@a+3
  4823  00101E                     l2377:
  4824  00101E  0E00               	movlw	0
  4825  001020  6E10               	movwf	___fladd@grs^0,c
  4826  001022  500F               	movf	___fladd@bexp^0,w,c
  4827  001024  C00E  F009         	movff	___fladd@aexp,??___fladd
  4828  001028  6A0A               	clrf	(??___fladd+1)^0,c
  4829  00102A  5E09               	subwf	??___fladd^0,f,c
  4830  00102C  0E00               	movlw	0
  4831  00102E  5A0A               	subwfb	(??___fladd+1)^0,f,c
  4832  001030  BE0A               	btfsc	(??___fladd+1)^0,7,c
  4833  001032  EF24  F008         	goto	u2151
  4834  001036  500A               	movf	(??___fladd+1)^0,w,c
  4835  001038  E109               	bnz	u2150
  4836  00103A  0E1A               	movlw	26
  4837  00103C  5C09               	subwf	??___fladd^0,w,c
  4838  00103E  A0D8               	btfss	status,0,c
  4839  001040  EF24  F008         	goto	u2151
  4840  001044  EF26  F008         	goto	u2150
  4841  001048                     u2151:
  4842  001048  EF5D  F008         	goto	l676
  4843  00104C                     u2150:
  4844  00104C  5001               	movf	___fladd@b^0,w,c
  4845  00104E  1002               	iorwf	(___fladd@b+1)^0,w,c
  4846  001050  1003               	iorwf	(___fladd@b+2)^0,w,c
  4847  001052  1004               	iorwf	(___fladd@b+3)^0,w,c
  4848  001054  A4D8               	btfss	status,2,c
  4849  001056  EF2F  F008         	goto	u2161
  4850  00105A  EF32  F008         	goto	u2160
  4851  00105E                     u2161:
  4852  00105E  0E01               	movlw	1
  4853  001060  EF33  F008         	goto	u2170
  4854  001064                     u2160:
  4855  001064  0E00               	movlw	0
  4856  001066                     u2170:
  4857  001066  6E10               	movwf	___fladd@grs^0,c
  4858  001068  0E00               	movlw	0
  4859  00106A  6E01               	movwf	___fladd@b^0,c
  4860  00106C  0E00               	movlw	0
  4861  00106E  6E02               	movwf	(___fladd@b+1)^0,c
  4862  001070  0E00               	movlw	0
  4863  001072  6E03               	movwf	(___fladd@b+2)^0,c
  4864  001074  0E00               	movlw	0
  4865  001076  6E04               	movwf	(___fladd@b+3)^0,c
  4866  001078  C00E  F00F         	movff	___fladd@aexp,___fladd@bexp
  4867  00107C  EF66  F008         	goto	l675
  4868  001080                     l677:
  4869  001080  A010               	btfss	___fladd@grs^0,0,c
  4870  001082  EF45  F008         	goto	u2181
  4871  001086  EF47  F008         	goto	u2180
  4872  00108A                     u2181:
  4873  00108A  EF4D  F008         	goto	l2389
  4874  00108E                     u2180:
  4875  00108E  90D8               	bcf	status,0,c
  4876  001090  3010               	rrcf	___fladd@grs^0,w,c
  4877  001092  0901               	iorlw	1
  4878  001094  6E10               	movwf	___fladd@grs^0,c
  4879  001096  EF4F  F008         	goto	l2391
  4880  00109A                     l2389:
  4881  00109A  90D8               	bcf	status,0,c
  4882  00109C  3210               	rrcf	___fladd@grs^0,f,c
  4883  00109E                     l2391:
  4884  00109E  A001               	btfss	___fladd@b^0,0,c
  4885  0010A0  EF54  F008         	goto	u2191
  4886  0010A4  EF56  F008         	goto	u2190
  4887  0010A8                     u2191:
  4888  0010A8  EF57  F008         	goto	l2395
  4889  0010AC                     u2190:
  4890  0010AC  8E10               	bsf	___fladd@grs^0,7,c
  4891  0010AE                     l2395:
  4892  0010AE  3404               	rlcf	(___fladd@b+3)^0,w,c
  4893  0010B0  3204               	rrcf	(___fladd@b+3)^0,f,c
  4894  0010B2  3203               	rrcf	(___fladd@b+2)^0,f,c
  4895  0010B4  3202               	rrcf	(___fladd@b+1)^0,f,c
  4896  0010B6  3201               	rrcf	___fladd@b^0,f,c
  4897  0010B8  2A0F               	incf	___fladd@bexp^0,f,c
  4898  0010BA                     l676:
  4899  0010BA  500E               	movf	___fladd@aexp^0,w,c
  4900  0010BC  5C0F               	subwf	___fladd@bexp^0,w,c
  4901  0010BE  A0D8               	btfss	status,0,c
  4902  0010C0  EF64  F008         	goto	u2201
  4903  0010C4  EF66  F008         	goto	u2200
  4904  0010C8                     u2201:
  4905  0010C8  EF40  F008         	goto	l677
  4906  0010CC                     u2200:
  4907  0010CC                     l675:
  4908  0010CC  BC0D               	btfsc	___fladd@signs^0,6,c
  4909  0010CE  EF6B  F008         	goto	u2211
  4910  0010D2  EF6D  F008         	goto	u2210
  4911  0010D6                     u2211:
  4912  0010D6  EFAD  F008         	goto	l2423
  4913  0010DA                     u2210:
  4914  0010DA  500F               	movf	___fladd@bexp^0,w,c
  4915  0010DC  A4D8               	btfss	status,2,c
  4916  0010DE  EF73  F008         	goto	u2221
  4917  0010E2  EF75  F008         	goto	u2220
  4918  0010E6                     u2221:
  4919  0010E6  EF7F  F008         	goto	l2405
  4920  0010EA                     u2220:
  4921  0010EA  0E00               	movlw	0
  4922  0010EC  6E01               	movwf	?___fladd^0,c
  4923  0010EE  0E00               	movlw	0
  4924  0010F0  6E02               	movwf	(?___fladd+1)^0,c
  4925  0010F2  0E00               	movlw	0
  4926  0010F4  6E03               	movwf	(?___fladd+2)^0,c
  4927  0010F6  0E00               	movlw	0
  4928  0010F8  6E04               	movwf	(?___fladd+3)^0,c
  4929  0010FA  EFCE  F009         	goto	l684
  4930  0010FE                     l2405:
  4931  0010FE  5005               	movf	___fladd@a^0,w,c
  4932  001100  2601               	addwf	___fladd@b^0,f,c
  4933  001102  5006               	movf	(___fladd@a+1)^0,w,c
  4934  001104  2202               	addwfc	(___fladd@b+1)^0,f,c
  4935  001106  5007               	movf	(___fladd@a+2)^0,w,c
  4936  001108  2203               	addwfc	(___fladd@b+2)^0,f,c
  4937  00110A  5008               	movf	(___fladd@a+3)^0,w,c
  4938  00110C  2204               	addwfc	(___fladd@b+3)^0,f,c
  4939  00110E  A004               	btfss	(___fladd@b+3)^0,0,c
  4940  001110  EF8C  F008         	goto	u2231
  4941  001114  EF8E  F008         	goto	u2230
  4942  001118                     u2231:
  4943  001118  EF3A  F009         	goto	l2459
  4944  00111C                     u2230:
  4945  00111C  A010               	btfss	___fladd@grs^0,0,c
  4946  00111E  EF93  F008         	goto	u2241
  4947  001122  EF95  F008         	goto	u2240
  4948  001126                     u2241:
  4949  001126  EF9B  F008         	goto	l2413
  4950  00112A                     u2240:
  4951  00112A  90D8               	bcf	status,0,c
  4952  00112C  3010               	rrcf	___fladd@grs^0,w,c
  4953  00112E  0901               	iorlw	1
  4954  001130  6E10               	movwf	___fladd@grs^0,c
  4955  001132  EF9D  F008         	goto	l2415
  4956  001136                     l2413:
  4957  001136  90D8               	bcf	status,0,c
  4958  001138  3210               	rrcf	___fladd@grs^0,f,c
  4959  00113A                     l2415:
  4960  00113A  A001               	btfss	___fladd@b^0,0,c
  4961  00113C  EFA2  F008         	goto	u2251
  4962  001140  EFA4  F008         	goto	u2250
  4963  001144                     u2251:
  4964  001144  EFA5  F008         	goto	l2419
  4965  001148                     u2250:
  4966  001148  8E10               	bsf	___fladd@grs^0,7,c
  4967  00114A                     l2419:
  4968  00114A  3404               	rlcf	(___fladd@b+3)^0,w,c
  4969  00114C  3204               	rrcf	(___fladd@b+3)^0,f,c
  4970  00114E  3203               	rrcf	(___fladd@b+2)^0,f,c
  4971  001150  3202               	rrcf	(___fladd@b+1)^0,f,c
  4972  001152  3201               	rrcf	___fladd@b^0,f,c
  4973  001154  2A0F               	incf	___fladd@bexp^0,f,c
  4974  001156  EF3A  F009         	goto	l2459
  4975  00115A                     l2423:
  4976  00115A  5005               	movf	___fladd@a^0,w,c
  4977  00115C  5C01               	subwf	___fladd@b^0,w,c
  4978  00115E  5006               	movf	(___fladd@a+1)^0,w,c
  4979  001160  5802               	subwfb	(___fladd@b+1)^0,w,c
  4980  001162  5007               	movf	(___fladd@a+2)^0,w,c
  4981  001164  5803               	subwfb	(___fladd@b+2)^0,w,c
  4982  001166  5004               	movf	(___fladd@b+3)^0,w,c
  4983  001168  0A80               	xorlw	128
  4984  00116A  6E09               	movwf	??___fladd^0,c
  4985  00116C  5008               	movf	(___fladd@a+3)^0,w,c
  4986  00116E  0A80               	xorlw	128
  4987  001170  5809               	subwfb	??___fladd^0,w,c
  4988  001172  B0D8               	btfsc	status,0,c
  4989  001174  EFBE  F008         	goto	u2261
  4990  001178  EFC0  F008         	goto	u2260
  4991  00117C                     u2261:
  4992  00117C  EFEB  F008         	goto	l2433
  4993  001180                     u2260:
  4994  001180  5001               	movf	___fladd@b^0,w,c
  4995  001182  5C05               	subwf	___fladd@a^0,w,c
  4996  001184  6E09               	movwf	??___fladd^0,c
  4997  001186  5002               	movf	(___fladd@b+1)^0,w,c
  4998  001188  5806               	subwfb	(___fladd@a+1)^0,w,c
  4999  00118A  6E0A               	movwf	(??___fladd+1)^0,c
  5000  00118C  5003               	movf	(___fladd@b+2)^0,w,c
  5001  00118E  5807               	subwfb	(___fladd@a+2)^0,w,c
  5002  001190  6E0B               	movwf	(??___fladd+2)^0,c
  5003  001192  5004               	movf	(___fladd@b+3)^0,w,c
  5004  001194  5808               	subwfb	(___fladd@a+3)^0,w,c
  5005  001196  6E0C               	movwf	(??___fladd+3)^0,c
  5006  001198  0EFF               	movlw	255
  5007  00119A  2409               	addwf	??___fladd^0,w,c
  5008  00119C  6E01               	movwf	___fladd@b^0,c
  5009  00119E  0EFF               	movlw	255
  5010  0011A0  200A               	addwfc	(??___fladd+1)^0,w,c
  5011  0011A2  6E02               	movwf	(___fladd@b+1)^0,c
  5012  0011A4  0EFF               	movlw	255
  5013  0011A6  200B               	addwfc	(??___fladd+2)^0,w,c
  5014  0011A8  6E03               	movwf	(___fladd@b+2)^0,c
  5015  0011AA  0EFF               	movlw	255
  5016  0011AC  200C               	addwfc	(??___fladd+3)^0,w,c
  5017  0011AE  6E04               	movwf	(___fladd@b+3)^0,c
  5018  0011B0  0E80               	movlw	128
  5019  0011B2  1A0D               	xorwf	___fladd@signs^0,f,c
  5020  0011B4  6C10               	negf	___fladd@grs^0,c
  5021  0011B6  5010               	movf	___fladd@grs^0,w,c
  5022  0011B8  A4D8               	btfss	status,2,c
  5023  0011BA  EFE1  F008         	goto	u2271
  5024  0011BE  EFE3  F008         	goto	u2270
  5025  0011C2                     u2271:
  5026  0011C2  EFF3  F008         	goto	l692
  5027  0011C6                     u2270:
  5028  0011C6  0E01               	movlw	1
  5029  0011C8  2601               	addwf	___fladd@b^0,f,c
  5030  0011CA  0E00               	movlw	0
  5031  0011CC  2202               	addwfc	(___fladd@b+1)^0,f,c
  5032  0011CE  2203               	addwfc	(___fladd@b+2)^0,f,c
  5033  0011D0  2204               	addwfc	(___fladd@b+3)^0,f,c
  5034  0011D2  EFF3  F008         	goto	l692
  5035  0011D6                     l2433:
  5036  0011D6  5005               	movf	___fladd@a^0,w,c
  5037  0011D8  5E01               	subwf	___fladd@b^0,f,c
  5038  0011DA  5006               	movf	(___fladd@a+1)^0,w,c
  5039  0011DC  5A02               	subwfb	(___fladd@b+1)^0,f,c
  5040  0011DE  5007               	movf	(___fladd@a+2)^0,w,c
  5041  0011E0  5A03               	subwfb	(___fladd@b+2)^0,f,c
  5042  0011E2  5008               	movf	(___fladd@a+3)^0,w,c
  5043  0011E4  5A04               	subwfb	(___fladd@b+3)^0,f,c
  5044  0011E6                     l692:
  5045  0011E6  5001               	movf	___fladd@b^0,w,c
  5046  0011E8  1002               	iorwf	(___fladd@b+1)^0,w,c
  5047  0011EA  1003               	iorwf	(___fladd@b+2)^0,w,c
  5048  0011EC  1004               	iorwf	(___fladd@b+3)^0,w,c
  5049  0011EE  A4D8               	btfss	status,2,c
  5050  0011F0  EFFC  F008         	goto	u2281
  5051  0011F4  EFFE  F008         	goto	u2280
  5052  0011F8                     u2281:
  5053  0011F8  EF33  F009         	goto	l2457
  5054  0011FC                     u2280:
  5055  0011FC  5010               	movf	___fladd@grs^0,w,c
  5056  0011FE  A4D8               	btfss	status,2,c
  5057  001200  EF04  F009         	goto	u2291
  5058  001204  EF06  F009         	goto	u2290
  5059  001208                     u2291:
  5060  001208  EF33  F009         	goto	l2457
  5061  00120C                     u2290:
  5062  00120C  0E00               	movlw	0
  5063  00120E  6E01               	movwf	?___fladd^0,c
  5064  001210  0E00               	movlw	0
  5065  001212  6E02               	movwf	(?___fladd+1)^0,c
  5066  001214  0E00               	movlw	0
  5067  001216  6E03               	movwf	(?___fladd+2)^0,c
  5068  001218  0E00               	movlw	0
  5069  00121A  6E04               	movwf	(?___fladd+3)^0,c
  5070  00121C  EFCE  F009         	goto	l684
  5071  001220                     l2441:
  5072  001220  90D8               	bcf	status,0,c
  5073  001222  3601               	rlcf	___fladd@b^0,f,c
  5074  001224  3602               	rlcf	(___fladd@b+1)^0,f,c
  5075  001226  3603               	rlcf	(___fladd@b+2)^0,f,c
  5076  001228  3604               	rlcf	(___fladd@b+3)^0,f,c
  5077  00122A  AE10               	btfss	___fladd@grs^0,7,c
  5078  00122C  EF1A  F009         	goto	u2301
  5079  001230  EF1C  F009         	goto	u2300
  5080  001234                     u2301:
  5081  001234  EF1D  F009         	goto	l2447
  5082  001238                     u2300:
  5083  001238  8001               	bsf	___fladd@b^0,0,c
  5084  00123A                     l2447:
  5085  00123A  A010               	btfss	___fladd@grs^0,0,c
  5086  00123C  EF22  F009         	goto	u2311
  5087  001240  EF24  F009         	goto	u2310
  5088  001244                     u2311:
  5089  001244  EF28  F009         	goto	l2451
  5090  001248                     u2310:
  5091  001248  80D8               	bsf	status,0,c
  5092  00124A  3610               	rlcf	___fladd@grs^0,f,c
  5093  00124C  EF2A  F009         	goto	l2453
  5094  001250                     l2451:
  5095  001250  90D8               	bcf	status,0,c
  5096  001252  3610               	rlcf	___fladd@grs^0,f,c
  5097  001254                     l2453:
  5098  001254  500F               	movf	___fladd@bexp^0,w,c
  5099  001256  B4D8               	btfsc	status,2,c
  5100  001258  EF30  F009         	goto	u2321
  5101  00125C  EF32  F009         	goto	u2320
  5102  001260                     u2321:
  5103  001260  EF33  F009         	goto	l2457
  5104  001264                     u2320:
  5105  001264  060F               	decf	___fladd@bexp^0,f,c
  5106  001266                     l2457:
  5107  001266  AE03               	btfss	(___fladd@b+2)^0,7,c
  5108  001268  EF38  F009         	goto	u2331
  5109  00126C  EF3A  F009         	goto	u2330
  5110  001270                     u2331:
  5111  001270  EF10  F009         	goto	l2441
  5112  001274                     u2330:
  5113  001274                     l2459:
  5114  001274  0E00               	movlw	0
  5115  001276  6E0E               	movwf	___fladd@aexp^0,c
  5116  001278  AE10               	btfss	___fladd@grs^0,7,c
  5117  00127A  EF41  F009         	goto	u2341
  5118  00127E  EF43  F009         	goto	u2340
  5119  001282                     u2341:
  5120  001282  EF5B  F009         	goto	l701
  5121  001286                     u2340:
  5122  001286  C010  F009         	movff	___fladd@grs,??___fladd
  5123  00128A  0E7F               	movlw	127
  5124  00128C  1609               	andwf	??___fladd^0,f,c
  5125  00128E  B4D8               	btfsc	status,2,c
  5126  001290  EF4C  F009         	goto	u2351
  5127  001294  EF4E  F009         	goto	u2350
  5128  001298                     u2351:
  5129  001298  EF52  F009         	goto	l702
  5130  00129C                     u2350:
  5131  00129C                     l2465:
  5132  00129C  0E01               	movlw	1
  5133  00129E  6E0E               	movwf	___fladd@aexp^0,c
  5134  0012A0  EF5B  F009         	goto	l701
  5135  0012A4                     l702:
  5136  0012A4  A001               	btfss	___fladd@b^0,0,c
  5137  0012A6  EF57  F009         	goto	u2361
  5138  0012AA  EF59  F009         	goto	u2360
  5139  0012AE                     u2361:
  5140  0012AE  EF5B  F009         	goto	l701
  5141  0012B2                     u2360:
  5142  0012B2  EF4E  F009         	goto	l2465
  5143  0012B6                     l701:
  5144  0012B6  500E               	movf	___fladd@aexp^0,w,c
  5145  0012B8  B4D8               	btfsc	status,2,c
  5146  0012BA  EF61  F009         	goto	u2371
  5147  0012BE  EF63  F009         	goto	u2370
  5148  0012C2                     u2371:
  5149  0012C2  EF8E  F009         	goto	l2477
  5150  0012C6                     u2370:
  5151  0012C6  0E01               	movlw	1
  5152  0012C8  2601               	addwf	___fladd@b^0,f,c
  5153  0012CA  0E00               	movlw	0
  5154  0012CC  2202               	addwfc	(___fladd@b+1)^0,f,c
  5155  0012CE  2203               	addwfc	(___fladd@b+2)^0,f,c
  5156  0012D0  2204               	addwfc	(___fladd@b+3)^0,f,c
  5157  0012D2  A004               	btfss	(___fladd@b+3)^0,0,c
  5158  0012D4  EF6E  F009         	goto	u2381
  5159  0012D8  EF70  F009         	goto	u2380
  5160  0012DC                     u2381:
  5161  0012DC  EF8E  F009         	goto	l2477
  5162  0012E0                     u2380:
  5163  0012E0  C001  F009         	movff	___fladd@b,??___fladd
  5164  0012E4  C002  F00A         	movff	___fladd@b+1,??___fladd+1
  5165  0012E8  C003  F00B         	movff	___fladd@b+2,??___fladd+2
  5166  0012EC  C004  F00C         	movff	___fladd@b+3,??___fladd+3
  5167  0012F0  340C               	rlcf	(??___fladd+3)^0,w,c
  5168  0012F2  320C               	rrcf	(??___fladd+3)^0,f,c
  5169  0012F4  320B               	rrcf	(??___fladd+2)^0,f,c
  5170  0012F6  320A               	rrcf	(??___fladd+1)^0,f,c
  5171  0012F8  3209               	rrcf	??___fladd^0,f,c
  5172  0012FA  C009  F001         	movff	??___fladd,___fladd@b
  5173  0012FE  C00A  F002         	movff	??___fladd+1,___fladd@b+1
  5174  001302  C00B  F003         	movff	??___fladd+2,___fladd@b+2
  5175  001306  C00C  F004         	movff	??___fladd+3,___fladd@b+3
  5176  00130A  280F               	incf	___fladd@bexp^0,w,c
  5177  00130C  B4D8               	btfsc	status,2,c
  5178  00130E  EF8B  F009         	goto	u2391
  5179  001312  EF8D  F009         	goto	u2390
  5180  001316                     u2391:
  5181  001316  EF8E  F009         	goto	l2477
  5182  00131A                     u2390:
  5183  00131A  2A0F               	incf	___fladd@bexp^0,f,c
  5184  00131C                     l2477:
  5185  00131C  280F               	incf	___fladd@bexp^0,w,c
  5186  00131E  B4D8               	btfsc	status,2,c
  5187  001320  EF94  F009         	goto	u2401
  5188  001324  EF96  F009         	goto	u2400
  5189  001328                     u2401:
  5190  001328  EF9E  F009         	goto	l2481
  5191  00132C                     u2400:
  5192  00132C  500F               	movf	___fladd@bexp^0,w,c
  5193  00132E  A4D8               	btfss	status,2,c
  5194  001330  EF9C  F009         	goto	u2411
  5195  001334  EF9E  F009         	goto	u2410
  5196  001338                     u2411:
  5197  001338  EFB0  F009         	goto	l2485
  5198  00133C                     u2410:
  5199  00133C                     l2481:
  5200  00133C  0E00               	movlw	0
  5201  00133E  6E01               	movwf	___fladd@b^0,c
  5202  001340  0E00               	movlw	0
  5203  001342  6E02               	movwf	(___fladd@b+1)^0,c
  5204  001344  0E00               	movlw	0
  5205  001346  6E03               	movwf	(___fladd@b+2)^0,c
  5206  001348  0E00               	movlw	0
  5207  00134A  6E04               	movwf	(___fladd@b+3)^0,c
  5208  00134C  500F               	movf	___fladd@bexp^0,w,c
  5209  00134E  A4D8               	btfss	status,2,c
  5210  001350  EFAC  F009         	goto	u2421
  5211  001354  EFAE  F009         	goto	u2420
  5212  001358                     u2421:
  5213  001358  EFB0  F009         	goto	l2485
  5214  00135C                     u2420:
  5215  00135C  0E00               	movlw	0
  5216  00135E  6E0D               	movwf	___fladd@signs^0,c
  5217  001360                     l2485:
  5218  001360  A00F               	btfss	___fladd@bexp^0,0,c
  5219  001362  EFB5  F009         	goto	u2431
  5220  001366  EFB7  F009         	goto	u2430
  5221  00136A                     u2431:
  5222  00136A  EFBA  F009         	goto	l2489
  5223  00136E                     u2430:
  5224  00136E  8E03               	bsf	(___fladd@b+2)^0,7,c
  5225  001370  EFBB  F009         	goto	l2491
  5226  001374                     l2489:
  5227  001374  9E03               	bcf	(___fladd@b+2)^0,7,c
  5228  001376                     l2491:
  5229  001376  90D8               	bcf	status,0,c
  5230  001378  300F               	rrcf	___fladd@bexp^0,w,c
  5231  00137A  6E04               	movwf	(___fladd@b+3)^0,c
  5232  00137C  AE0D               	btfss	___fladd@signs^0,7,c
  5233  00137E  EFC3  F009         	goto	u2441
  5234  001382  EFC5  F009         	goto	u2440
  5235  001386                     u2441:
  5236  001386  EFC6  F009         	goto	l2497
  5237  00138A                     u2440:
  5238  00138A  8E04               	bsf	(___fladd@b+3)^0,7,c
  5239  00138C                     l2497:
  5240  00138C  C001  F001         	movff	___fladd@b,?___fladd
  5241  001390  C002  F002         	movff	___fladd@b+1,?___fladd+1
  5242  001394  C003  F003         	movff	___fladd@b+2,?___fladd+2
  5243  001398  C004  F004         	movff	___fladd@b+3,?___fladd+3
  5244  00139C                     l684:
  5245  00139C  0012               	return		;funcret
  5246  00139E                     __end_of___fladd:
  5247                           	callstack 0
  5248                           
  5249 ;; *************** function ___fldiv *****************
  5250 ;; Defined at:
  5251 ;;		line 11 in file "C:\Program Files\Microchip\xc8\v2.32\pic\sources\c99\common\sprcdiv.c"
  5252 ;; Parameters:    Size  Location     Type
  5253 ;;  b               4   14[COMRAM] unsigned char 
  5254 ;;  a               4   18[COMRAM] unsigned char 
  5255 ;; Auto vars:     Size  Location     Type
  5256 ;;  grs             4   33[COMRAM] unsigned long 
  5257 ;;  rem             4   26[COMRAM] unsigned long 
  5258 ;;  new_exp         2   31[COMRAM] short 
  5259 ;;  aexp            1   38[COMRAM] unsigned char 
  5260 ;;  bexp            1   37[COMRAM] unsigned char 
  5261 ;;  sign            1   30[COMRAM] unsigned char 
  5262 ;; Return value:  Size  Location     Type
  5263 ;;                  4   14[COMRAM] unsigned char 
  5264 ;; Registers used:
  5265 ;;		wreg, status,2, status,0
  5266 ;; Tracked objects:
  5267 ;;		On entry : 0/0
  5268 ;;		On exit  : 0/0
  5269 ;;		Unchanged: 0/0
  5270 ;; Data sizes:     COMRAM   BANK0   BANK1   BANK2   BANK3   BANK4   BANK5   BANK6   BANK7
  5271 ;;      Params:         8       0       0       0       0       0       0       0       0
  5272 ;;      Locals:        13       0       0       0       0       0       0       0       0
  5273 ;;      Temps:          4       0       0       0       0       0       0       0       0
  5274 ;;      Totals:        25       0       0       0       0       0       0       0       0
  5275 ;;Total ram usage:       25 bytes
  5276 ;; Hardware stack levels used: 1
  5277 ;; This function calls:
  5278 ;;		Nothing
  5279 ;; This function is called by:
  5280 ;;		_tocar_nota
  5281 ;;		_silencio
  5282 ;; This function uses a non-reentrant model
  5283 ;;
  5284                           
  5285                           	psect	text21
  5286  0017C8                     __ptext21:
  5287                           	callstack 0
  5288  0017C8                     ___fldiv:
  5289                           	callstack 28
  5290  0017C8  5012               	movf	(___fldiv@b+3)^0,w,c
  5291  0017CA  0B80               	andlw	128
  5292  0017CC  6E1F               	movwf	___fldiv@sign^0,c
  5293  0017CE  5012               	movf	(___fldiv@b+3)^0,w,c
  5294  0017D0  2412               	addwf	(___fldiv@b+3)^0,w,c
  5295  0017D2  6E26               	movwf	___fldiv@bexp^0,c
  5296  0017D4  AE11               	btfss	(___fldiv@b+2)^0,7,c
  5297  0017D6  EFEF  F00B         	goto	u2491
  5298  0017DA  EFF1  F00B         	goto	u2490
  5299  0017DE                     u2491:
  5300  0017DE  EFF2  F00B         	goto	l2609
  5301  0017E2                     u2490:
  5302  0017E2  8026               	bsf	___fldiv@bexp^0,0,c
  5303  0017E4                     l2609:
  5304  0017E4  5026               	movf	___fldiv@bexp^0,w,c
  5305  0017E6  B4D8               	btfsc	status,2,c
  5306  0017E8  EFF8  F00B         	goto	u2501
  5307  0017EC  EFFA  F00B         	goto	u2500
  5308  0017F0                     u2501:
  5309  0017F0  EF0F  F00C         	goto	l2619
  5310  0017F4                     u2500:
  5311  0017F4  2826               	incf	___fldiv@bexp^0,w,c
  5312  0017F6  A4D8               	btfss	status,2,c
  5313  0017F8  EF00  F00C         	goto	u2511
  5314  0017FC  EF02  F00C         	goto	u2510
  5315  001800                     u2511:
  5316  001800  EF0A  F00C         	goto	l2615
  5317  001804                     u2510:
  5318  001804  0E00               	movlw	0
  5319  001806  6E0F               	movwf	___fldiv@b^0,c
  5320  001808  0E00               	movlw	0
  5321  00180A  6E10               	movwf	(___fldiv@b+1)^0,c
  5322  00180C  0E00               	movlw	0
  5323  00180E  6E11               	movwf	(___fldiv@b+2)^0,c
  5324  001810  0E00               	movlw	0
  5325  001812  6E12               	movwf	(___fldiv@b+3)^0,c
  5326  001814                     l2615:
  5327  001814  8E11               	bsf	(___fldiv@b+2)^0,7,c
  5328  001816  0E00               	movlw	0
  5329  001818  6E12               	movwf	(___fldiv@b+3)^0,c
  5330  00181A  EF17  F00C         	goto	l2621
  5331  00181E                     l2619:
  5332  00181E  0E00               	movlw	0
  5333  001820  6E0F               	movwf	___fldiv@b^0,c
  5334  001822  0E00               	movlw	0
  5335  001824  6E10               	movwf	(___fldiv@b+1)^0,c
  5336  001826  0E00               	movlw	0
  5337  001828  6E11               	movwf	(___fldiv@b+2)^0,c
  5338  00182A  0E00               	movlw	0
  5339  00182C  6E12               	movwf	(___fldiv@b+3)^0,c
  5340  00182E                     l2621:
  5341  00182E  5016               	movf	(___fldiv@a+3)^0,w,c
  5342  001830  0B80               	andlw	128
  5343  001832  1A1F               	xorwf	___fldiv@sign^0,f,c
  5344  001834  5016               	movf	(___fldiv@a+3)^0,w,c
  5345  001836  2416               	addwf	(___fldiv@a+3)^0,w,c
  5346  001838  6E27               	movwf	___fldiv@aexp^0,c
  5347  00183A  AE15               	btfss	(___fldiv@a+2)^0,7,c
  5348  00183C  EF22  F00C         	goto	u2521
  5349  001840  EF24  F00C         	goto	u2520
  5350  001844                     u2521:
  5351  001844  EF25  F00C         	goto	l2629
  5352  001848                     u2520:
  5353  001848  8027               	bsf	___fldiv@aexp^0,0,c
  5354  00184A                     l2629:
  5355  00184A  5027               	movf	___fldiv@aexp^0,w,c
  5356  00184C  B4D8               	btfsc	status,2,c
  5357  00184E  EF2B  F00C         	goto	u2531
  5358  001852  EF2D  F00C         	goto	u2530
  5359  001856                     u2531:
  5360  001856  EF42  F00C         	goto	l2639
  5361  00185A                     u2530:
  5362  00185A  2827               	incf	___fldiv@aexp^0,w,c
  5363  00185C  A4D8               	btfss	status,2,c
  5364  00185E  EF33  F00C         	goto	u2541
  5365  001862  EF35  F00C         	goto	u2540
  5366  001866                     u2541:
  5367  001866  EF3D  F00C         	goto	l2635
  5368  00186A                     u2540:
  5369  00186A  0E00               	movlw	0
  5370  00186C  6E13               	movwf	___fldiv@a^0,c
  5371  00186E  0E00               	movlw	0
  5372  001870  6E14               	movwf	(___fldiv@a+1)^0,c
  5373  001872  0E00               	movlw	0
  5374  001874  6E15               	movwf	(___fldiv@a+2)^0,c
  5375  001876  0E00               	movlw	0
  5376  001878  6E16               	movwf	(___fldiv@a+3)^0,c
  5377  00187A                     l2635:
  5378  00187A  8E15               	bsf	(___fldiv@a+2)^0,7,c
  5379  00187C  0E00               	movlw	0
  5380  00187E  6E16               	movwf	(___fldiv@a+3)^0,c
  5381  001880  EF4A  F00C         	goto	l2641
  5382  001884                     l2639:
  5383  001884  0E00               	movlw	0
  5384  001886  6E13               	movwf	___fldiv@a^0,c
  5385  001888  0E00               	movlw	0
  5386  00188A  6E14               	movwf	(___fldiv@a+1)^0,c
  5387  00188C  0E00               	movlw	0
  5388  00188E  6E15               	movwf	(___fldiv@a+2)^0,c
  5389  001890  0E00               	movlw	0
  5390  001892  6E16               	movwf	(___fldiv@a+3)^0,c
  5391  001894                     l2641:
  5392  001894  5013               	movf	___fldiv@a^0,w,c
  5393  001896  1014               	iorwf	(___fldiv@a+1)^0,w,c
  5394  001898  1015               	iorwf	(___fldiv@a+2)^0,w,c
  5395  00189A  1016               	iorwf	(___fldiv@a+3)^0,w,c
  5396  00189C  A4D8               	btfss	status,2,c
  5397  00189E  EF53  F00C         	goto	u2551
  5398  0018A2  EF55  F00C         	goto	u2550
  5399  0018A6                     u2551:
  5400  0018A6  EF6D  F00C         	goto	l2653
  5401  0018AA                     u2550:
  5402  0018AA  0E00               	movlw	0
  5403  0018AC  6E0F               	movwf	___fldiv@b^0,c
  5404  0018AE  0E00               	movlw	0
  5405  0018B0  6E10               	movwf	(___fldiv@b+1)^0,c
  5406  0018B2  0E00               	movlw	0
  5407  0018B4  6E11               	movwf	(___fldiv@b+2)^0,c
  5408  0018B6  0E00               	movlw	0
  5409  0018B8  6E12               	movwf	(___fldiv@b+3)^0,c
  5410  0018BA  0E80               	movlw	128
  5411  0018BC  1211               	iorwf	(___fldiv@b+2)^0,f,c
  5412  0018BE  0E7F               	movlw	127
  5413  0018C0  1212               	iorwf	(___fldiv@b+3)^0,f,c
  5414  0018C2                     l2647:
  5415  0018C2  501F               	movf	___fldiv@sign^0,w,c
  5416  0018C4  1212               	iorwf	(___fldiv@b+3)^0,f,c
  5417  0018C6  C00F  F00F         	movff	___fldiv@b,?___fldiv
  5418  0018CA  C010  F010         	movff	___fldiv@b+1,?___fldiv+1
  5419  0018CE  C011  F011         	movff	___fldiv@b+2,?___fldiv+2
  5420  0018D2  C012  F012         	movff	___fldiv@b+3,?___fldiv+3
  5421  0018D6  EFB0  F00D         	goto	l729
  5422  0018DA                     l2653:
  5423  0018DA  5026               	movf	___fldiv@bexp^0,w,c
  5424  0018DC  A4D8               	btfss	status,2,c
  5425  0018DE  EF73  F00C         	goto	u2561
  5426  0018E2  EF75  F00C         	goto	u2560
  5427  0018E6                     u2561:
  5428  0018E6  EF7F  F00C         	goto	l2661
  5429  0018EA                     u2560:
  5430  0018EA  0E00               	movlw	0
  5431  0018EC  6E0F               	movwf	?___fldiv^0,c
  5432  0018EE  0E00               	movlw	0
  5433  0018F0  6E10               	movwf	(?___fldiv+1)^0,c
  5434  0018F2  0E00               	movlw	0
  5435  0018F4  6E11               	movwf	(?___fldiv+2)^0,c
  5436  0018F6  0E00               	movlw	0
  5437  0018F8  6E12               	movwf	(?___fldiv+3)^0,c
  5438  0018FA  EFB0  F00D         	goto	l729
  5439  0018FE                     l2661:
  5440  0018FE  5027               	movf	___fldiv@aexp^0,w,c
  5441  001900  C026  F017         	movff	___fldiv@bexp,??___fldiv
  5442  001904  6A18               	clrf	(??___fldiv+1)^0,c
  5443  001906  5E17               	subwf	??___fldiv^0,f,c
  5444  001908  0E00               	movlw	0
  5445  00190A  5A18               	subwfb	(??___fldiv+1)^0,f,c
  5446  00190C  0E7F               	movlw	127
  5447  00190E  2417               	addwf	??___fldiv^0,w,c
  5448  001910  6E20               	movwf	___fldiv@new_exp^0,c
  5449  001912  0E00               	movlw	0
  5450  001914  2018               	addwfc	(??___fldiv+1)^0,w,c
  5451  001916  6E21               	movwf	(___fldiv@new_exp+1)^0,c
  5452  001918  C00F  F01B         	movff	___fldiv@b,___fldiv@rem
  5453  00191C  C010  F01C         	movff	___fldiv@b+1,___fldiv@rem+1
  5454  001920  C011  F01D         	movff	___fldiv@b+2,___fldiv@rem+2
  5455  001924  C012  F01E         	movff	___fldiv@b+3,___fldiv@rem+3
  5456  001928  0E00               	movlw	0
  5457  00192A  6E0F               	movwf	___fldiv@b^0,c
  5458  00192C  0E00               	movlw	0
  5459  00192E  6E10               	movwf	(___fldiv@b+1)^0,c
  5460  001930  0E00               	movlw	0
  5461  001932  6E11               	movwf	(___fldiv@b+2)^0,c
  5462  001934  0E00               	movlw	0
  5463  001936  6E12               	movwf	(___fldiv@b+3)^0,c
  5464  001938  0E00               	movlw	0
  5465  00193A  6E22               	movwf	___fldiv@grs^0,c
  5466  00193C  0E00               	movlw	0
  5467  00193E  6E23               	movwf	(___fldiv@grs+1)^0,c
  5468  001940  0E00               	movlw	0
  5469  001942  6E24               	movwf	(___fldiv@grs+2)^0,c
  5470  001944  0E00               	movlw	0
  5471  001946  6E25               	movwf	(___fldiv@grs+3)^0,c
  5472  001948  0E00               	movlw	0
  5473  00194A  6E27               	movwf	___fldiv@aexp^0,c
  5474  00194C  EFE0  F00C         	goto	l731
  5475  001950                     l2671:
  5476  001950  5027               	movf	___fldiv@aexp^0,w,c
  5477  001952  B4D8               	btfsc	status,2,c
  5478  001954  EFAE  F00C         	goto	u2571
  5479  001958  EFB0  F00C         	goto	u2570
  5480  00195C                     u2571:
  5481  00195C  EFC7  F00C         	goto	l2679
  5482  001960                     u2570:
  5483  001960  90D8               	bcf	status,0,c
  5484  001962  361B               	rlcf	___fldiv@rem^0,f,c
  5485  001964  361C               	rlcf	(___fldiv@rem+1)^0,f,c
  5486  001966  361D               	rlcf	(___fldiv@rem+2)^0,f,c
  5487  001968  361E               	rlcf	(___fldiv@rem+3)^0,f,c
  5488  00196A  90D8               	bcf	status,0,c
  5489  00196C  360F               	rlcf	___fldiv@b^0,f,c
  5490  00196E  3610               	rlcf	(___fldiv@b+1)^0,f,c
  5491  001970  3611               	rlcf	(___fldiv@b+2)^0,f,c
  5492  001972  3612               	rlcf	(___fldiv@b+3)^0,f,c
  5493  001974  AE25               	btfss	(___fldiv@grs+3)^0,7,c
  5494  001976  EFBF  F00C         	goto	u2581
  5495  00197A  EFC1  F00C         	goto	u2580
  5496  00197E                     u2581:
  5497  00197E  EFC2  F00C         	goto	l734
  5498  001982                     u2580:
  5499  001982  800F               	bsf	___fldiv@b^0,0,c
  5500  001984                     l734:
  5501  001984  90D8               	bcf	status,0,c
  5502  001986  3622               	rlcf	___fldiv@grs^0,f,c
  5503  001988  3623               	rlcf	(___fldiv@grs+1)^0,f,c
  5504  00198A  3624               	rlcf	(___fldiv@grs+2)^0,f,c
  5505  00198C  3625               	rlcf	(___fldiv@grs+3)^0,f,c
  5506  00198E                     l2679:
  5507  00198E  5013               	movf	___fldiv@a^0,w,c
  5508  001990  5C1B               	subwf	___fldiv@rem^0,w,c
  5509  001992  5014               	movf	(___fldiv@a+1)^0,w,c
  5510  001994  581C               	subwfb	(___fldiv@rem+1)^0,w,c
  5511  001996  5015               	movf	(___fldiv@a+2)^0,w,c
  5512  001998  581D               	subwfb	(___fldiv@rem+2)^0,w,c
  5513  00199A  5016               	movf	(___fldiv@a+3)^0,w,c
  5514  00199C  581E               	subwfb	(___fldiv@rem+3)^0,w,c
  5515  00199E  A0D8               	btfss	status,0,c
  5516  0019A0  EFD4  F00C         	goto	u2591
  5517  0019A4  EFD6  F00C         	goto	u2590
  5518  0019A8                     u2591:
  5519  0019A8  EFDF  F00C         	goto	l2685
  5520  0019AC                     u2590:
  5521  0019AC  8C25               	bsf	(___fldiv@grs+3)^0,6,c
  5522  0019AE  5013               	movf	___fldiv@a^0,w,c
  5523  0019B0  5E1B               	subwf	___fldiv@rem^0,f,c
  5524  0019B2  5014               	movf	(___fldiv@a+1)^0,w,c
  5525  0019B4  5A1C               	subwfb	(___fldiv@rem+1)^0,f,c
  5526  0019B6  5015               	movf	(___fldiv@a+2)^0,w,c
  5527  0019B8  5A1D               	subwfb	(___fldiv@rem+2)^0,f,c
  5528  0019BA  5016               	movf	(___fldiv@a+3)^0,w,c
  5529  0019BC  5A1E               	subwfb	(___fldiv@rem+3)^0,f,c
  5530  0019BE                     l2685:
  5531  0019BE  2A27               	incf	___fldiv@aexp^0,f,c
  5532  0019C0                     l731:
  5533  0019C0  0E19               	movlw	25
  5534  0019C2  6427               	cpfsgt	___fldiv@aexp^0,c
  5535  0019C4  EFE6  F00C         	goto	u2601
  5536  0019C8  EFE8  F00C         	goto	u2600
  5537  0019CC                     u2601:
  5538  0019CC  EFA8  F00C         	goto	l2671
  5539  0019D0                     u2600:
  5540  0019D0  501B               	movf	___fldiv@rem^0,w,c
  5541  0019D2  101C               	iorwf	(___fldiv@rem+1)^0,w,c
  5542  0019D4  101D               	iorwf	(___fldiv@rem+2)^0,w,c
  5543  0019D6  101E               	iorwf	(___fldiv@rem+3)^0,w,c
  5544  0019D8  B4D8               	btfsc	status,2,c
  5545  0019DA  EFF1  F00C         	goto	u2611
  5546  0019DE  EFF3  F00C         	goto	u2610
  5547  0019E2                     u2611:
  5548  0019E2  EF0B  F00D         	goto	l2697
  5549  0019E6                     u2610:
  5550  0019E6  8022               	bsf	___fldiv@grs^0,0,c
  5551  0019E8  EF0B  F00D         	goto	l2697
  5552  0019EC                     l2691:
  5553  0019EC  90D8               	bcf	status,0,c
  5554  0019EE  360F               	rlcf	___fldiv@b^0,f,c
  5555  0019F0  3610               	rlcf	(___fldiv@b+1)^0,f,c
  5556  0019F2  3611               	rlcf	(___fldiv@b+2)^0,f,c
  5557  0019F4  3612               	rlcf	(___fldiv@b+3)^0,f,c
  5558  0019F6  AE25               	btfss	(___fldiv@grs+3)^0,7,c
  5559  0019F8  EF00  F00D         	goto	u2621
  5560  0019FC  EF02  F00D         	goto	u2620
  5561  001A00                     u2621:
  5562  001A00  EF03  F00D         	goto	l740
  5563  001A04                     u2620:
  5564  001A04  800F               	bsf	___fldiv@b^0,0,c
  5565  001A06                     l740:
  5566  001A06  90D8               	bcf	status,0,c
  5567  001A08  3622               	rlcf	___fldiv@grs^0,f,c
  5568  001A0A  3623               	rlcf	(___fldiv@grs+1)^0,f,c
  5569  001A0C  3624               	rlcf	(___fldiv@grs+2)^0,f,c
  5570  001A0E  3625               	rlcf	(___fldiv@grs+3)^0,f,c
  5571  001A10  0620               	decf	___fldiv@new_exp^0,f,c
  5572  001A12  A0D8               	btfss	status,0,c
  5573  001A14  0621               	decf	(___fldiv@new_exp+1)^0,f,c
  5574  001A16                     l2697:
  5575  001A16  AE11               	btfss	(___fldiv@b+2)^0,7,c
  5576  001A18  EF10  F00D         	goto	u2631
  5577  001A1C  EF12  F00D         	goto	u2630
  5578  001A20                     u2631:
  5579  001A20  EFF6  F00C         	goto	l2691
  5580  001A24                     u2630:
  5581  001A24  0E00               	movlw	0
  5582  001A26  6E27               	movwf	___fldiv@aexp^0,c
  5583  001A28  AE25               	btfss	(___fldiv@grs+3)^0,7,c
  5584  001A2A  EF19  F00D         	goto	u2641
  5585  001A2E  EF1B  F00D         	goto	u2640
  5586  001A32                     u2641:
  5587  001A32  EF3F  F00D         	goto	l742
  5588  001A36                     u2640:
  5589  001A36  0EFF               	movlw	255
  5590  001A38  1422               	andwf	___fldiv@grs^0,w,c
  5591  001A3A  6E17               	movwf	??___fldiv^0,c
  5592  001A3C  0EFF               	movlw	255
  5593  001A3E  1423               	andwf	(___fldiv@grs+1)^0,w,c
  5594  001A40  6E18               	movwf	(??___fldiv+1)^0,c
  5595  001A42  0EFF               	movlw	255
  5596  001A44  1424               	andwf	(___fldiv@grs+2)^0,w,c
  5597  001A46  6E19               	movwf	(??___fldiv+2)^0,c
  5598  001A48  0E7F               	movlw	127
  5599  001A4A  1425               	andwf	(___fldiv@grs+3)^0,w,c
  5600  001A4C  6E1A               	movwf	(??___fldiv+3)^0,c
  5601  001A4E  5017               	movf	??___fldiv^0,w,c
  5602  001A50  1018               	iorwf	(??___fldiv+1)^0,w,c
  5603  001A52  1019               	iorwf	(??___fldiv+2)^0,w,c
  5604  001A54  101A               	iorwf	(??___fldiv+3)^0,w,c
  5605  001A56  B4D8               	btfsc	status,2,c
  5606  001A58  EF30  F00D         	goto	u2651
  5607  001A5C  EF32  F00D         	goto	u2650
  5608  001A60                     u2651:
  5609  001A60  EF36  F00D         	goto	l743
  5610  001A64                     u2650:
  5611  001A64                     l2705:
  5612  001A64  0E01               	movlw	1
  5613  001A66  6E27               	movwf	___fldiv@aexp^0,c
  5614  001A68  EF3F  F00D         	goto	l742
  5615  001A6C                     l743:
  5616  001A6C  A00F               	btfss	___fldiv@b^0,0,c
  5617  001A6E  EF3B  F00D         	goto	u2661
  5618  001A72  EF3D  F00D         	goto	u2660
  5619  001A76                     u2661:
  5620  001A76  EF3F  F00D         	goto	l742
  5621  001A7A                     u2660:
  5622  001A7A  EF32  F00D         	goto	l2705
  5623  001A7E                     l742:
  5624  001A7E  5027               	movf	___fldiv@aexp^0,w,c
  5625  001A80  B4D8               	btfsc	status,2,c
  5626  001A82  EF45  F00D         	goto	u2671
  5627  001A86  EF47  F00D         	goto	u2670
  5628  001A8A                     u2671:
  5629  001A8A  EF6B  F00D         	goto	l2717
  5630  001A8E                     u2670:
  5631  001A8E  0E01               	movlw	1
  5632  001A90  260F               	addwf	___fldiv@b^0,f,c
  5633  001A92  0E00               	movlw	0
  5634  001A94  2210               	addwfc	(___fldiv@b+1)^0,f,c
  5635  001A96  2211               	addwfc	(___fldiv@b+2)^0,f,c
  5636  001A98  2212               	addwfc	(___fldiv@b+3)^0,f,c
  5637  001A9A  A012               	btfss	(___fldiv@b+3)^0,0,c
  5638  001A9C  EF52  F00D         	goto	u2681
  5639  001AA0  EF54  F00D         	goto	u2680
  5640  001AA4                     u2681:
  5641  001AA4  EF6B  F00D         	goto	l2717
  5642  001AA8                     u2680:
  5643  001AA8  C00F  F017         	movff	___fldiv@b,??___fldiv
  5644  001AAC  C010  F018         	movff	___fldiv@b+1,??___fldiv+1
  5645  001AB0  C011  F019         	movff	___fldiv@b+2,??___fldiv+2
  5646  001AB4  C012  F01A         	movff	___fldiv@b+3,??___fldiv+3
  5647  001AB8  341A               	rlcf	(??___fldiv+3)^0,w,c
  5648  001ABA  321A               	rrcf	(??___fldiv+3)^0,f,c
  5649  001ABC  3219               	rrcf	(??___fldiv+2)^0,f,c
  5650  001ABE  3218               	rrcf	(??___fldiv+1)^0,f,c
  5651  001AC0  3217               	rrcf	??___fldiv^0,f,c
  5652  001AC2  C017  F00F         	movff	??___fldiv,___fldiv@b
  5653  001AC6  C018  F010         	movff	??___fldiv+1,___fldiv@b+1
  5654  001ACA  C019  F011         	movff	??___fldiv+2,___fldiv@b+2
  5655  001ACE  C01A  F012         	movff	??___fldiv+3,___fldiv@b+3
  5656  001AD2  4A20               	infsnz	___fldiv@new_exp^0,f,c
  5657  001AD4  2A21               	incf	(___fldiv@new_exp+1)^0,f,c
  5658  001AD6                     l2717:
  5659  001AD6  BE21               	btfsc	(___fldiv@new_exp+1)^0,7,c
  5660  001AD8  EF76  F00D         	goto	u2691
  5661  001ADC  5021               	movf	(___fldiv@new_exp+1)^0,w,c
  5662  001ADE  E108               	bnz	u2690
  5663  001AE0  2820               	incf	___fldiv@new_exp^0,w,c
  5664  001AE2  A0D8               	btfss	status,0,c
  5665  001AE4  EF76  F00D         	goto	u2691
  5666  001AE8  EF78  F00D         	goto	u2690
  5667  001AEC                     u2691:
  5668  001AEC  EF83  F00D         	goto	l2721
  5669  001AF0                     u2690:
  5670  001AF0  0E00               	movlw	0
  5671  001AF2  6E21               	movwf	(___fldiv@new_exp+1)^0,c
  5672  001AF4  6820               	setf	___fldiv@new_exp^0,c
  5673  001AF6  0E00               	movlw	0
  5674  001AF8  6E0F               	movwf	___fldiv@b^0,c
  5675  001AFA  0E00               	movlw	0
  5676  001AFC  6E10               	movwf	(___fldiv@b+1)^0,c
  5677  001AFE  0E00               	movlw	0
  5678  001B00  6E11               	movwf	(___fldiv@b+2)^0,c
  5679  001B02  0E00               	movlw	0
  5680  001B04  6E12               	movwf	(___fldiv@b+3)^0,c
  5681  001B06                     l2721:
  5682  001B06  BE21               	btfsc	(___fldiv@new_exp+1)^0,7,c
  5683  001B08  EF90  F00D         	goto	u2700
  5684  001B0C  5021               	movf	(___fldiv@new_exp+1)^0,w,c
  5685  001B0E  E106               	bnz	u2701
  5686  001B10  0420               	decf	___fldiv@new_exp^0,w,c
  5687  001B12  B0D8               	btfsc	status,0,c
  5688  001B14  EF8E  F00D         	goto	u2701
  5689  001B18  EF90  F00D         	goto	u2700
  5690  001B1C                     u2701:
  5691  001B1C  EF9E  F00D         	goto	l2725
  5692  001B20                     u2700:
  5693  001B20  0E00               	movlw	0
  5694  001B22  6E21               	movwf	(___fldiv@new_exp+1)^0,c
  5695  001B24  0E00               	movlw	0
  5696  001B26  6E20               	movwf	___fldiv@new_exp^0,c
  5697  001B28  0E00               	movlw	0
  5698  001B2A  6E0F               	movwf	___fldiv@b^0,c
  5699  001B2C  0E00               	movlw	0
  5700  001B2E  6E10               	movwf	(___fldiv@b+1)^0,c
  5701  001B30  0E00               	movlw	0
  5702  001B32  6E11               	movwf	(___fldiv@b+2)^0,c
  5703  001B34  0E00               	movlw	0
  5704  001B36  6E12               	movwf	(___fldiv@b+3)^0,c
  5705  001B38  0E00               	movlw	0
  5706  001B3A  6E1F               	movwf	___fldiv@sign^0,c
  5707  001B3C                     l2725:
  5708  001B3C  C020  F026         	movff	___fldiv@new_exp,___fldiv@bexp
  5709  001B40  A026               	btfss	___fldiv@bexp^0,0,c
  5710  001B42  EFA5  F00D         	goto	u2711
  5711  001B46  EFA7  F00D         	goto	u2710
  5712  001B4A                     u2711:
  5713  001B4A  EFAA  F00D         	goto	l2731
  5714  001B4E                     u2710:
  5715  001B4E  8E11               	bsf	(___fldiv@b+2)^0,7,c
  5716  001B50  EFAB  F00D         	goto	l2733
  5717  001B54                     l2731:
  5718  001B54  9E11               	bcf	(___fldiv@b+2)^0,7,c
  5719  001B56                     l2733:
  5720  001B56  90D8               	bcf	status,0,c
  5721  001B58  3026               	rrcf	___fldiv@bexp^0,w,c
  5722  001B5A  6E12               	movwf	(___fldiv@b+3)^0,c
  5723  001B5C  EF61  F00C         	goto	l2647
  5724  001B60                     l729:
  5725  001B60  0012               	return		;funcret
  5726  001B62                     __end_of___fldiv:
  5727                           	callstack 0
  5728                           
  5729 ;; *************** function ___wmul *****************
  5730 ;; Defined at:
  5731 ;;		line 15 in file "C:\Program Files\Microchip\xc8\v2.32\pic\sources\c99\common\Umul16.c"
  5732 ;; Parameters:    Size  Location     Type
  5733 ;;  multiplier      2    0[COMRAM] unsigned int 
  5734 ;;  multiplicand    2    2[COMRAM] unsigned int 
  5735 ;; Auto vars:     Size  Location     Type
  5736 ;;  product         2    4[COMRAM] unsigned int 
  5737 ;; Return value:  Size  Location     Type
  5738 ;;                  2    0[COMRAM] unsigned int 
  5739 ;; Registers used:
  5740 ;;		wreg, status,2, status,0, prodl, prodh
  5741 ;; Tracked objects:
  5742 ;;		On entry : 0/0
  5743 ;;		On exit  : 0/0
  5744 ;;		Unchanged: 0/0
  5745 ;; Data sizes:     COMRAM   BANK0   BANK1   BANK2   BANK3   BANK4   BANK5   BANK6   BANK7
  5746 ;;      Params:         4       0       0       0       0       0       0       0       0
  5747 ;;      Locals:         2       0       0       0       0       0       0       0       0
  5748 ;;      Temps:          0       0       0       0       0       0       0       0       0
  5749 ;;      Totals:         6       0       0       0       0       0       0       0       0
  5750 ;;Total ram usage:        6 bytes
  5751 ;; Hardware stack levels used: 1
  5752 ;; This function calls:
  5753 ;;		Nothing
  5754 ;; This function is called by:
  5755 ;;		_cancion1
  5756 ;; This function uses a non-reentrant model
  5757 ;;
  5758                           
  5759                           	psect	text22
  5760  003146                     __ptext22:
  5761                           	callstack 0
  5762  003146                     ___wmul:
  5763                           	callstack 29
  5764  003146  5001               	movf	___wmul@multiplier^0,w,c
  5765  003148  0203               	mulwf	___wmul@multiplicand^0,c
  5766  00314A  CFF3 F005          	movff	prodl,___wmul@product
  5767  00314E  CFF4 F006          	movff	prodh,___wmul@product+1
  5768  003152  5001               	movf	___wmul@multiplier^0,w,c
  5769  003154  0204               	mulwf	(___wmul@multiplicand+1)^0,c
  5770  003156  50F3               	movf	243,w,c
  5771  003158  2606               	addwf	(___wmul@product+1)^0,f,c
  5772  00315A  5002               	movf	(___wmul@multiplier+1)^0,w,c
  5773  00315C  0203               	mulwf	___wmul@multiplicand^0,c
  5774  00315E  50F3               	movf	243,w,c
  5775  003160  2606               	addwf	(___wmul@product+1)^0,f,c
  5776  003162  C005  F001         	movff	___wmul@product,?___wmul
  5777  003166  C006  F002         	movff	___wmul@product+1,?___wmul+1
  5778  00316A  0012               	return		;funcret
  5779  00316C                     __end_of___wmul:
  5780                           	callstack 0
  5781                           
  5782 ;; *************** function ___flmul *****************
  5783 ;; Defined at:
  5784 ;;		line 8 in file "C:\Program Files\Microchip\xc8\v2.32\pic\sources\c99\common\sprcmul.c"
  5785 ;; Parameters:    Size  Location     Type
  5786 ;;  b               4    6[COMRAM] unsigned int 
  5787 ;;  a               4   10[COMRAM] unsigned int 
  5788 ;; Auto vars:     Size  Location     Type
  5789 ;;  prod            4   25[COMRAM] struct .
  5790 ;;  grs             4   19[COMRAM] unsigned long 
  5791 ;;  temp            2   29[COMRAM] struct .
  5792 ;;  bexp            1   24[COMRAM] unsigned char 
  5793 ;;  aexp            1   23[COMRAM] unsigned char 
  5794 ;;  sign            1   18[COMRAM] unsigned char 
  5795 ;; Return value:  Size  Location     Type
  5796 ;;                  4    6[COMRAM] unsigned char 
  5797 ;; Registers used:
  5798 ;;		wreg, status,2, status,0, prodl, prodh
  5799 ;; Tracked objects:
  5800 ;;		On entry : 0/0
  5801 ;;		On exit  : 0/0
  5802 ;;		Unchanged: 0/0
  5803 ;; Data sizes:     COMRAM   BANK0   BANK1   BANK2   BANK3   BANK4   BANK5   BANK6   BANK7
  5804 ;;      Params:         8       0       0       0       0       0       0       0       0
  5805 ;;      Locals:        13       0       0       0       0       0       0       0       0
  5806 ;;      Temps:          4       0       0       0       0       0       0       0       0
  5807 ;;      Totals:        25       0       0       0       0       0       0       0       0
  5808 ;;Total ram usage:       25 bytes
  5809 ;; Hardware stack levels used: 1
  5810 ;; This function calls:
  5811 ;;		Nothing
  5812 ;; This function is called by:
  5813 ;;		_cancion1
  5814 ;; This function uses a non-reentrant model
  5815 ;;
  5816                           
  5817                           	psect	text23
  5818  00139E                     __ptext23:
  5819                           	callstack 0
  5820  00139E                     ___flmul:
  5821                           	callstack 29
  5822  00139E  500A               	movf	(___flmul@b+3)^0,w,c
  5823  0013A0  0B80               	andlw	128
  5824  0013A2  6E13               	movwf	___flmul@sign^0,c
  5825  0013A4  500A               	movf	(___flmul@b+3)^0,w,c
  5826  0013A6  240A               	addwf	(___flmul@b+3)^0,w,c
  5827  0013A8  6E19               	movwf	___flmul@bexp^0,c
  5828  0013AA  AE09               	btfss	(___flmul@b+2)^0,7,c
  5829  0013AC  EFDA  F009         	goto	u2981
  5830  0013B0  EFDC  F009         	goto	u2980
  5831  0013B4                     u2981:
  5832  0013B4  EFDD  F009         	goto	l2909
  5833  0013B8                     u2980:
  5834  0013B8  8019               	bsf	___flmul@bexp^0,0,c
  5835  0013BA                     l2909:
  5836  0013BA  5019               	movf	___flmul@bexp^0,w,c
  5837  0013BC  B4D8               	btfsc	status,2,c
  5838  0013BE  EFE3  F009         	goto	u2991
  5839  0013C2  EFE5  F009         	goto	u2990
  5840  0013C6                     u2991:
  5841  0013C6  EFF8  F009         	goto	l2917
  5842  0013CA                     u2990:
  5843  0013CA  2819               	incf	___flmul@bexp^0,w,c
  5844  0013CC  A4D8               	btfss	status,2,c
  5845  0013CE  EFEB  F009         	goto	u3001
  5846  0013D2  EFED  F009         	goto	u3000
  5847  0013D6                     u3001:
  5848  0013D6  EFF5  F009         	goto	l2915
  5849  0013DA                     u3000:
  5850  0013DA  0E00               	movlw	0
  5851  0013DC  6E07               	movwf	___flmul@b^0,c
  5852  0013DE  0E00               	movlw	0
  5853  0013E0  6E08               	movwf	(___flmul@b+1)^0,c
  5854  0013E2  0E00               	movlw	0
  5855  0013E4  6E09               	movwf	(___flmul@b+2)^0,c
  5856  0013E6  0E00               	movlw	0
  5857  0013E8  6E0A               	movwf	(___flmul@b+3)^0,c
  5858  0013EA                     l2915:
  5859  0013EA  8E09               	bsf	(___flmul@b+2)^0,7,c
  5860  0013EC  EF00  F00A         	goto	l2919
  5861  0013F0                     l2917:
  5862  0013F0  0E00               	movlw	0
  5863  0013F2  6E07               	movwf	___flmul@b^0,c
  5864  0013F4  0E00               	movlw	0
  5865  0013F6  6E08               	movwf	(___flmul@b+1)^0,c
  5866  0013F8  0E00               	movlw	0
  5867  0013FA  6E09               	movwf	(___flmul@b+2)^0,c
  5868  0013FC  0E00               	movlw	0
  5869  0013FE  6E0A               	movwf	(___flmul@b+3)^0,c
  5870  001400                     l2919:
  5871  001400  500E               	movf	(___flmul@a+3)^0,w,c
  5872  001402  0B80               	andlw	128
  5873  001404  1A13               	xorwf	___flmul@sign^0,f,c
  5874  001406  500E               	movf	(___flmul@a+3)^0,w,c
  5875  001408  240E               	addwf	(___flmul@a+3)^0,w,c
  5876  00140A  6E18               	movwf	___flmul@aexp^0,c
  5877  00140C  AE0D               	btfss	(___flmul@a+2)^0,7,c
  5878  00140E  EF0B  F00A         	goto	u3011
  5879  001412  EF0D  F00A         	goto	u3010
  5880  001416                     u3011:
  5881  001416  EF0E  F00A         	goto	l2927
  5882  00141A                     u3010:
  5883  00141A  8018               	bsf	___flmul@aexp^0,0,c
  5884  00141C                     l2927:
  5885  00141C  5018               	movf	___flmul@aexp^0,w,c
  5886  00141E  B4D8               	btfsc	status,2,c
  5887  001420  EF14  F00A         	goto	u3021
  5888  001424  EF16  F00A         	goto	u3020
  5889  001428                     u3021:
  5890  001428  EF29  F00A         	goto	l2935
  5891  00142C                     u3020:
  5892  00142C  2818               	incf	___flmul@aexp^0,w,c
  5893  00142E  A4D8               	btfss	status,2,c
  5894  001430  EF1C  F00A         	goto	u3031
  5895  001434  EF1E  F00A         	goto	u3030
  5896  001438                     u3031:
  5897  001438  EF26  F00A         	goto	l2933
  5898  00143C                     u3030:
  5899  00143C  0E00               	movlw	0
  5900  00143E  6E0B               	movwf	___flmul@a^0,c
  5901  001440  0E00               	movlw	0
  5902  001442  6E0C               	movwf	(___flmul@a+1)^0,c
  5903  001444  0E00               	movlw	0
  5904  001446  6E0D               	movwf	(___flmul@a+2)^0,c
  5905  001448  0E00               	movlw	0
  5906  00144A  6E0E               	movwf	(___flmul@a+3)^0,c
  5907  00144C                     l2933:
  5908  00144C  8E0D               	bsf	(___flmul@a+2)^0,7,c
  5909  00144E  EF31  F00A         	goto	l761
  5910  001452                     l2935:
  5911  001452  0E00               	movlw	0
  5912  001454  6E0B               	movwf	___flmul@a^0,c
  5913  001456  0E00               	movlw	0
  5914  001458  6E0C               	movwf	(___flmul@a+1)^0,c
  5915  00145A  0E00               	movlw	0
  5916  00145C  6E0D               	movwf	(___flmul@a+2)^0,c
  5917  00145E  0E00               	movlw	0
  5918  001460  6E0E               	movwf	(___flmul@a+3)^0,c
  5919  001462                     l761:
  5920  001462  5018               	movf	___flmul@aexp^0,w,c
  5921  001464  B4D8               	btfsc	status,2,c
  5922  001466  EF37  F00A         	goto	u3041
  5923  00146A  EF39  F00A         	goto	u3040
  5924  00146E                     u3041:
  5925  00146E  EF41  F00A         	goto	l2939
  5926  001472                     u3040:
  5927  001472  5019               	movf	___flmul@bexp^0,w,c
  5928  001474  A4D8               	btfss	status,2,c
  5929  001476  EF3F  F00A         	goto	u3051
  5930  00147A  EF41  F00A         	goto	u3050
  5931  00147E                     u3051:
  5932  00147E  EF4B  F00A         	goto	l2943
  5933  001482                     u3050:
  5934  001482                     l2939:
  5935  001482  0E00               	movlw	0
  5936  001484  6E07               	movwf	?___flmul^0,c
  5937  001486  0E00               	movlw	0
  5938  001488  6E08               	movwf	(?___flmul+1)^0,c
  5939  00148A  0E00               	movlw	0
  5940  00148C  6E09               	movwf	(?___flmul+2)^0,c
  5941  00148E  0E00               	movlw	0
  5942  001490  6E0A               	movwf	(?___flmul+3)^0,c
  5943  001492  EFE3  F00B         	goto	l765
  5944  001496                     l2943:
  5945  001496  500D               	movf	(___flmul@a+2)^0,w,c
  5946  001498  0207               	mulwf	___flmul@b^0,c
  5947  00149A  CFF3 F01E          	movff	prodl,___flmul@temp
  5948  00149E  CFF4 F01F          	movff	prodh,___flmul@temp+1
  5949  0014A2  501E               	movf	___flmul@temp^0,w,c
  5950  0014A4  6E14               	movwf	___flmul@grs^0,c
  5951  0014A6  6A15               	clrf	(___flmul@grs+1)^0,c
  5952  0014A8  6A16               	clrf	(___flmul@grs+2)^0,c
  5953  0014AA  6A17               	clrf	(___flmul@grs+3)^0,c
  5954  0014AC  501F               	movf	(___flmul@temp+1)^0,w,c
  5955  0014AE  6E1A               	movwf	___flmul@prod^0,c
  5956  0014B0  6A1B               	clrf	(___flmul@prod+1)^0,c
  5957  0014B2  6A1C               	clrf	(___flmul@prod+2)^0,c
  5958  0014B4  6A1D               	clrf	(___flmul@prod+3)^0,c
  5959  0014B6  500C               	movf	(___flmul@a+1)^0,w,c
  5960  0014B8  0208               	mulwf	(___flmul@b+1)^0,c
  5961  0014BA  CFF3 F01E          	movff	prodl,___flmul@temp
  5962  0014BE  CFF4 F01F          	movff	prodh,___flmul@temp+1
  5963  0014C2  501E               	movf	___flmul@temp^0,w,c
  5964  0014C4  2614               	addwf	___flmul@grs^0,f,c
  5965  0014C6  0E00               	movlw	0
  5966  0014C8  2215               	addwfc	(___flmul@grs+1)^0,f,c
  5967  0014CA  2216               	addwfc	(___flmul@grs+2)^0,f,c
  5968  0014CC  2217               	addwfc	(___flmul@grs+3)^0,f,c
  5969  0014CE  501F               	movf	(___flmul@temp+1)^0,w,c
  5970  0014D0  261A               	addwf	___flmul@prod^0,f,c
  5971  0014D2  0E00               	movlw	0
  5972  0014D4  221B               	addwfc	(___flmul@prod+1)^0,f,c
  5973  0014D6  221C               	addwfc	(___flmul@prod+2)^0,f,c
  5974  0014D8  221D               	addwfc	(___flmul@prod+3)^0,f,c
  5975  0014DA  500B               	movf	___flmul@a^0,w,c
  5976  0014DC  0209               	mulwf	(___flmul@b+2)^0,c
  5977  0014DE  CFF3 F01E          	movff	prodl,___flmul@temp
  5978  0014E2  CFF4 F01F          	movff	prodh,___flmul@temp+1
  5979  0014E6  501E               	movf	___flmul@temp^0,w,c
  5980  0014E8  2614               	addwf	___flmul@grs^0,f,c
  5981  0014EA  0E00               	movlw	0
  5982  0014EC  2215               	addwfc	(___flmul@grs+1)^0,f,c
  5983  0014EE  2216               	addwfc	(___flmul@grs+2)^0,f,c
  5984  0014F0  2217               	addwfc	(___flmul@grs+3)^0,f,c
  5985  0014F2  501F               	movf	(___flmul@temp+1)^0,w,c
  5986  0014F4  261A               	addwf	___flmul@prod^0,f,c
  5987  0014F6  0E00               	movlw	0
  5988  0014F8  221B               	addwfc	(___flmul@prod+1)^0,f,c
  5989  0014FA  221C               	addwfc	(___flmul@prod+2)^0,f,c
  5990  0014FC  221D               	addwfc	(___flmul@prod+3)^0,f,c
  5991  0014FE  C016  F017         	movff	___flmul@grs+2,___flmul@grs+3
  5992  001502  C015  F016         	movff	___flmul@grs+1,___flmul@grs+2
  5993  001506  C014  F015         	movff	___flmul@grs,___flmul@grs+1
  5994  00150A  6A14               	clrf	___flmul@grs^0,c
  5995  00150C  500B               	movf	___flmul@a^0,w,c
  5996  00150E  0208               	mulwf	(___flmul@b+1)^0,c
  5997  001510  CFF3 F01E          	movff	prodl,___flmul@temp
  5998  001514  CFF4 F01F          	movff	prodh,___flmul@temp+1
  5999  001518  501E               	movf	___flmul@temp^0,w,c
  6000  00151A  2614               	addwf	___flmul@grs^0,f,c
  6001  00151C  501F               	movf	(___flmul@temp+1)^0,w,c
  6002  00151E  2215               	addwfc	(___flmul@grs+1)^0,f,c
  6003  001520  0E00               	movlw	0
  6004  001522  2216               	addwfc	(___flmul@grs+2)^0,f,c
  6005  001524  0E00               	movlw	0
  6006  001526  2217               	addwfc	(___flmul@grs+3)^0,f,c
  6007  001528  500C               	movf	(___flmul@a+1)^0,w,c
  6008  00152A  0207               	mulwf	___flmul@b^0,c
  6009  00152C  CFF3 F01E          	movff	prodl,___flmul@temp
  6010  001530  CFF4 F01F          	movff	prodh,___flmul@temp+1
  6011  001534  501E               	movf	___flmul@temp^0,w,c
  6012  001536  2614               	addwf	___flmul@grs^0,f,c
  6013  001538  501F               	movf	(___flmul@temp+1)^0,w,c
  6014  00153A  2215               	addwfc	(___flmul@grs+1)^0,f,c
  6015  00153C  0E00               	movlw	0
  6016  00153E  2216               	addwfc	(___flmul@grs+2)^0,f,c
  6017  001540  0E00               	movlw	0
  6018  001542  2217               	addwfc	(___flmul@grs+3)^0,f,c
  6019  001544  C016  F017         	movff	___flmul@grs+2,___flmul@grs+3
  6020  001548  C015  F016         	movff	___flmul@grs+1,___flmul@grs+2
  6021  00154C  C014  F015         	movff	___flmul@grs,___flmul@grs+1
  6022  001550  6A14               	clrf	___flmul@grs^0,c
  6023  001552  500B               	movf	___flmul@a^0,w,c
  6024  001554  0207               	mulwf	___flmul@b^0,c
  6025  001556  CFF3 F01E          	movff	prodl,___flmul@temp
  6026  00155A  CFF4 F01F          	movff	prodh,___flmul@temp+1
  6027  00155E  501E               	movf	___flmul@temp^0,w,c
  6028  001560  2614               	addwf	___flmul@grs^0,f,c
  6029  001562  501F               	movf	(___flmul@temp+1)^0,w,c
  6030  001564  2215               	addwfc	(___flmul@grs+1)^0,f,c
  6031  001566  0E00               	movlw	0
  6032  001568  2216               	addwfc	(___flmul@grs+2)^0,f,c
  6033  00156A  0E00               	movlw	0
  6034  00156C  2217               	addwfc	(___flmul@grs+3)^0,f,c
  6035  00156E  500D               	movf	(___flmul@a+2)^0,w,c
  6036  001570  0208               	mulwf	(___flmul@b+1)^0,c
  6037  001572  CFF3 F01E          	movff	prodl,___flmul@temp
  6038  001576  CFF4 F01F          	movff	prodh,___flmul@temp+1
  6039  00157A  501E               	movf	___flmul@temp^0,w,c
  6040  00157C  261A               	addwf	___flmul@prod^0,f,c
  6041  00157E  501F               	movf	(___flmul@temp+1)^0,w,c
  6042  001580  221B               	addwfc	(___flmul@prod+1)^0,f,c
  6043  001582  0E00               	movlw	0
  6044  001584  221C               	addwfc	(___flmul@prod+2)^0,f,c
  6045  001586  0E00               	movlw	0
  6046  001588  221D               	addwfc	(___flmul@prod+3)^0,f,c
  6047  00158A  500C               	movf	(___flmul@a+1)^0,w,c
  6048  00158C  0209               	mulwf	(___flmul@b+2)^0,c
  6049  00158E  CFF3 F01E          	movff	prodl,___flmul@temp
  6050  001592  CFF4 F01F          	movff	prodh,___flmul@temp+1
  6051  001596  501E               	movf	___flmul@temp^0,w,c
  6052  001598  261A               	addwf	___flmul@prod^0,f,c
  6053  00159A  501F               	movf	(___flmul@temp+1)^0,w,c
  6054  00159C  221B               	addwfc	(___flmul@prod+1)^0,f,c
  6055  00159E  0E00               	movlw	0
  6056  0015A0  221C               	addwfc	(___flmul@prod+2)^0,f,c
  6057  0015A2  0E00               	movlw	0
  6058  0015A4  221D               	addwfc	(___flmul@prod+3)^0,f,c
  6059  0015A6  500D               	movf	(___flmul@a+2)^0,w,c
  6060  0015A8  0209               	mulwf	(___flmul@b+2)^0,c
  6061  0015AA  CFF3 F01E          	movff	prodl,___flmul@temp
  6062  0015AE  CFF4 F01F          	movff	prodh,___flmul@temp+1
  6063  0015B2  501E               	movf	___flmul@temp^0,w,c
  6064  0015B4  6E0F               	movwf	??___flmul^0,c
  6065  0015B6  501F               	movf	(___flmul@temp+1)^0,w,c
  6066  0015B8  6E10               	movwf	(??___flmul+1)^0,c
  6067  0015BA  6A11               	clrf	(??___flmul+2)^0,c
  6068  0015BC  6A12               	clrf	(??___flmul+3)^0,c
  6069  0015BE  C011  F012         	movff	??___flmul+2,??___flmul+3
  6070  0015C2  C010  F011         	movff	??___flmul+1,??___flmul+2
  6071  0015C6  C00F  F010         	movff	??___flmul,??___flmul+1
  6072  0015CA  6A0F               	clrf	??___flmul^0,c
  6073  0015CC  500F               	movf	??___flmul^0,w,c
  6074  0015CE  261A               	addwf	___flmul@prod^0,f,c
  6075  0015D0  5010               	movf	(??___flmul+1)^0,w,c
  6076  0015D2  221B               	addwfc	(___flmul@prod+1)^0,f,c
  6077  0015D4  5011               	movf	(??___flmul+2)^0,w,c
  6078  0015D6  221C               	addwfc	(___flmul@prod+2)^0,f,c
  6079  0015D8  5012               	movf	(??___flmul+3)^0,w,c
  6080  0015DA  221D               	addwfc	(___flmul@prod+3)^0,f,c
  6081  0015DC  C014  F00F         	movff	___flmul@grs,??___flmul
  6082  0015E0  C015  F010         	movff	___flmul@grs+1,??___flmul+1
  6083  0015E4  C016  F011         	movff	___flmul@grs+2,??___flmul+2
  6084  0015E8  C017  F012         	movff	___flmul@grs+3,??___flmul+3
  6085  0015EC  0E19               	movlw	25
  6086  0015EE  EFFE  F00A         	goto	u3060
  6087  0015F2                     u3065:
  6088  0015F2  90D8               	bcf	status,0,c
  6089  0015F4  3212               	rrcf	(??___flmul+3)^0,f,c
  6090  0015F6  3211               	rrcf	(??___flmul+2)^0,f,c
  6091  0015F8  3210               	rrcf	(??___flmul+1)^0,f,c
  6092  0015FA  320F               	rrcf	??___flmul^0,f,c
  6093  0015FC                     u3060:
  6094  0015FC  2EE8               	decfsz	wreg,f,c
  6095  0015FE  EFF9  F00A         	goto	u3065
  6096  001602  500F               	movf	??___flmul^0,w,c
  6097  001604  261A               	addwf	___flmul@prod^0,f,c
  6098  001606  5010               	movf	(??___flmul+1)^0,w,c
  6099  001608  221B               	addwfc	(___flmul@prod+1)^0,f,c
  6100  00160A  5011               	movf	(??___flmul+2)^0,w,c
  6101  00160C  221C               	addwfc	(___flmul@prod+2)^0,f,c
  6102  00160E  5012               	movf	(??___flmul+3)^0,w,c
  6103  001610  221D               	addwfc	(___flmul@prod+3)^0,f,c
  6104  001612  C016  F017         	movff	___flmul@grs+2,___flmul@grs+3
  6105  001616  C015  F016         	movff	___flmul@grs+1,___flmul@grs+2
  6106  00161A  C014  F015         	movff	___flmul@grs,___flmul@grs+1
  6107  00161E  6A14               	clrf	___flmul@grs^0,c
  6108  001620  5018               	movf	___flmul@aexp^0,w,c
  6109  001622  C019  F00F         	movff	___flmul@bexp,??___flmul
  6110  001626  6A10               	clrf	(??___flmul+1)^0,c
  6111  001628  260F               	addwf	??___flmul^0,f,c
  6112  00162A  0E00               	movlw	0
  6113  00162C  2210               	addwfc	(??___flmul+1)^0,f,c
  6114  00162E  0E82               	movlw	130
  6115  001630  240F               	addwf	??___flmul^0,w,c
  6116  001632  6E1E               	movwf	___flmul@temp^0,c
  6117  001634  0EFF               	movlw	255
  6118  001636  2010               	addwfc	(??___flmul+1)^0,w,c
  6119  001638  6E1F               	movwf	(___flmul@temp+1)^0,c
  6120  00163A  EF34  F00B         	goto	l2991
  6121  00163E                     l2985:
  6122  00163E  90D8               	bcf	status,0,c
  6123  001640  361A               	rlcf	___flmul@prod^0,f,c
  6124  001642  361B               	rlcf	(___flmul@prod+1)^0,f,c
  6125  001644  361C               	rlcf	(___flmul@prod+2)^0,f,c
  6126  001646  361D               	rlcf	(___flmul@prod+3)^0,f,c
  6127  001648  AE17               	btfss	(___flmul@grs+3)^0,7,c
  6128  00164A  EF29  F00B         	goto	u3071
  6129  00164E  EF2B  F00B         	goto	u3070
  6130  001652                     u3071:
  6131  001652  EF2C  F00B         	goto	l768
  6132  001656                     u3070:
  6133  001656  801A               	bsf	___flmul@prod^0,0,c
  6134  001658                     l768:
  6135  001658  90D8               	bcf	status,0,c
  6136  00165A  3614               	rlcf	___flmul@grs^0,f,c
  6137  00165C  3615               	rlcf	(___flmul@grs+1)^0,f,c
  6138  00165E  3616               	rlcf	(___flmul@grs+2)^0,f,c
  6139  001660  3617               	rlcf	(___flmul@grs+3)^0,f,c
  6140  001662  061E               	decf	___flmul@temp^0,f,c
  6141  001664  A0D8               	btfss	status,0,c
  6142  001666  061F               	decf	(___flmul@temp+1)^0,f,c
  6143  001668                     l2991:
  6144  001668  AE1C               	btfss	(___flmul@prod+2)^0,7,c
  6145  00166A  EF39  F00B         	goto	u3081
  6146  00166E  EF3B  F00B         	goto	u3080
  6147  001672                     u3081:
  6148  001672  EF1F  F00B         	goto	l2985
  6149  001676                     u3080:
  6150  001676  0E00               	movlw	0
  6151  001678  6E18               	movwf	___flmul@aexp^0,c
  6152  00167A  AE17               	btfss	(___flmul@grs+3)^0,7,c
  6153  00167C  EF42  F00B         	goto	u3091
  6154  001680  EF44  F00B         	goto	u3090
  6155  001684                     u3091:
  6156  001684  EF68  F00B         	goto	l770
  6157  001688                     u3090:
  6158  001688  0EFF               	movlw	255
  6159  00168A  1414               	andwf	___flmul@grs^0,w,c
  6160  00168C  6E0F               	movwf	??___flmul^0,c
  6161  00168E  0EFF               	movlw	255
  6162  001690  1415               	andwf	(___flmul@grs+1)^0,w,c
  6163  001692  6E10               	movwf	(??___flmul+1)^0,c
  6164  001694  0EFF               	movlw	255
  6165  001696  1416               	andwf	(___flmul@grs+2)^0,w,c
  6166  001698  6E11               	movwf	(??___flmul+2)^0,c
  6167  00169A  0E7F               	movlw	127
  6168  00169C  1417               	andwf	(___flmul@grs+3)^0,w,c
  6169  00169E  6E12               	movwf	(??___flmul+3)^0,c
  6170  0016A0  500F               	movf	??___flmul^0,w,c
  6171  0016A2  1010               	iorwf	(??___flmul+1)^0,w,c
  6172  0016A4  1011               	iorwf	(??___flmul+2)^0,w,c
  6173  0016A6  1012               	iorwf	(??___flmul+3)^0,w,c
  6174  0016A8  B4D8               	btfsc	status,2,c
  6175  0016AA  EF59  F00B         	goto	u3101
  6176  0016AE  EF5B  F00B         	goto	u3100
  6177  0016B2                     u3101:
  6178  0016B2  EF5F  F00B         	goto	l771
  6179  0016B6                     u3100:
  6180  0016B6                     l2999:
  6181  0016B6  0E01               	movlw	1
  6182  0016B8  6E18               	movwf	___flmul@aexp^0,c
  6183  0016BA  EF68  F00B         	goto	l770
  6184  0016BE                     l771:
  6185  0016BE  A01A               	btfss	___flmul@prod^0,0,c
  6186  0016C0  EF64  F00B         	goto	u3111
  6187  0016C4  EF66  F00B         	goto	u3110
  6188  0016C8                     u3111:
  6189  0016C8  EF68  F00B         	goto	l770
  6190  0016CC                     u3110:
  6191  0016CC  EF5B  F00B         	goto	l2999
  6192  0016D0                     l770:
  6193  0016D0  5018               	movf	___flmul@aexp^0,w,c
  6194  0016D2  B4D8               	btfsc	status,2,c
  6195  0016D4  EF6E  F00B         	goto	u3121
  6196  0016D8  EF70  F00B         	goto	u3120
  6197  0016DC                     u3121:
  6198  0016DC  EF94  F00B         	goto	l3011
  6199  0016E0                     u3120:
  6200  0016E0  0E01               	movlw	1
  6201  0016E2  261A               	addwf	___flmul@prod^0,f,c
  6202  0016E4  0E00               	movlw	0
  6203  0016E6  221B               	addwfc	(___flmul@prod+1)^0,f,c
  6204  0016E8  221C               	addwfc	(___flmul@prod+2)^0,f,c
  6205  0016EA  221D               	addwfc	(___flmul@prod+3)^0,f,c
  6206  0016EC  A01D               	btfss	(___flmul@prod+3)^0,0,c
  6207  0016EE  EF7B  F00B         	goto	u3131
  6208  0016F2  EF7D  F00B         	goto	u3130
  6209  0016F6                     u3131:
  6210  0016F6  EF94  F00B         	goto	l3011
  6211  0016FA                     u3130:
  6212  0016FA  C01A  F00F         	movff	___flmul@prod,??___flmul
  6213  0016FE  C01B  F010         	movff	___flmul@prod+1,??___flmul+1
  6214  001702  C01C  F011         	movff	___flmul@prod+2,??___flmul+2
  6215  001706  C01D  F012         	movff	___flmul@prod+3,??___flmul+3
  6216  00170A  3412               	rlcf	(??___flmul+3)^0,w,c
  6217  00170C  3212               	rrcf	(??___flmul+3)^0,f,c
  6218  00170E  3211               	rrcf	(??___flmul+2)^0,f,c
  6219  001710  3210               	rrcf	(??___flmul+1)^0,f,c
  6220  001712  320F               	rrcf	??___flmul^0,f,c
  6221  001714  C00F  F01A         	movff	??___flmul,___flmul@prod
  6222  001718  C010  F01B         	movff	??___flmul+1,___flmul@prod+1
  6223  00171C  C011  F01C         	movff	??___flmul+2,___flmul@prod+2
  6224  001720  C012  F01D         	movff	??___flmul+3,___flmul@prod+3
  6225  001724  4A1E               	infsnz	___flmul@temp^0,f,c
  6226  001726  2A1F               	incf	(___flmul@temp+1)^0,f,c
  6227  001728                     l3011:
  6228  001728  BE1F               	btfsc	(___flmul@temp+1)^0,7,c
  6229  00172A  EF9F  F00B         	goto	u3141
  6230  00172E  501F               	movf	(___flmul@temp+1)^0,w,c
  6231  001730  E108               	bnz	u3140
  6232  001732  281E               	incf	___flmul@temp^0,w,c
  6233  001734  A0D8               	btfss	status,0,c
  6234  001736  EF9F  F00B         	goto	u3141
  6235  00173A  EFA1  F00B         	goto	u3140
  6236  00173E                     u3141:
  6237  00173E  EFAB  F00B         	goto	l3015
  6238  001742                     u3140:
  6239  001742  0E00               	movlw	0
  6240  001744  6E1A               	movwf	___flmul@prod^0,c
  6241  001746  0E00               	movlw	0
  6242  001748  6E1B               	movwf	(___flmul@prod+1)^0,c
  6243  00174A  0E80               	movlw	128
  6244  00174C  6E1C               	movwf	(___flmul@prod+2)^0,c
  6245  00174E  0E7F               	movlw	127
  6246  001750  6E1D               	movwf	(___flmul@prod+3)^0,c
  6247  001752  EFD9  F00B         	goto	l3027
  6248  001756                     l3015:
  6249  001756  BE1F               	btfsc	(___flmul@temp+1)^0,7,c
  6250  001758  EFB8  F00B         	goto	u3150
  6251  00175C  501F               	movf	(___flmul@temp+1)^0,w,c
  6252  00175E  E106               	bnz	u3151
  6253  001760  041E               	decf	___flmul@temp^0,w,c
  6254  001762  B0D8               	btfsc	status,0,c
  6255  001764  EFB6  F00B         	goto	u3151
  6256  001768  EFB8  F00B         	goto	u3150
  6257  00176C                     u3151:
  6258  00176C  EFC4  F00B         	goto	l778
  6259  001770                     u3150:
  6260  001770  0E00               	movlw	0
  6261  001772  6E1A               	movwf	___flmul@prod^0,c
  6262  001774  0E00               	movlw	0
  6263  001776  6E1B               	movwf	(___flmul@prod+1)^0,c
  6264  001778  0E00               	movlw	0
  6265  00177A  6E1C               	movwf	(___flmul@prod+2)^0,c
  6266  00177C  0E00               	movlw	0
  6267  00177E  6E1D               	movwf	(___flmul@prod+3)^0,c
  6268  001780  0E00               	movlw	0
  6269  001782  6E13               	movwf	___flmul@sign^0,c
  6270  001784  EFD9  F00B         	goto	l3027
  6271  001788                     l778:
  6272  001788  C01E  F019         	movff	___flmul@temp,___flmul@bexp
  6273  00178C  0EFF               	movlw	255
  6274  00178E  161A               	andwf	___flmul@prod^0,f,c
  6275  001790  0EFF               	movlw	255
  6276  001792  161B               	andwf	(___flmul@prod+1)^0,f,c
  6277  001794  0E7F               	movlw	127
  6278  001796  161C               	andwf	(___flmul@prod+2)^0,f,c
  6279  001798  0E00               	movlw	0
  6280  00179A  161D               	andwf	(___flmul@prod+3)^0,f,c
  6281  00179C  A019               	btfss	___flmul@bexp^0,0,c
  6282  00179E  EFD3  F00B         	goto	u3161
  6283  0017A2  EFD5  F00B         	goto	u3160
  6284  0017A6                     u3161:
  6285  0017A6  EFD6  F00B         	goto	l3025
  6286  0017AA                     u3160:
  6287  0017AA  8E1C               	bsf	(___flmul@prod+2)^0,7,c
  6288  0017AC                     l3025:
  6289  0017AC  90D8               	bcf	status,0,c
  6290  0017AE  3019               	rrcf	___flmul@bexp^0,w,c
  6291  0017B0  6E1D               	movwf	(___flmul@prod+3)^0,c
  6292  0017B2                     l3027:
  6293  0017B2  5013               	movf	___flmul@sign^0,w,c
  6294  0017B4  121D               	iorwf	(___flmul@prod+3)^0,f,c
  6295  0017B6  C01A  F007         	movff	___flmul@prod,?___flmul
  6296  0017BA  C01B  F008         	movff	___flmul@prod+1,?___flmul+1
  6297  0017BE  C01C  F009         	movff	___flmul@prod+2,?___flmul+2
  6298  0017C2  C01D  F00A         	movff	___flmul@prod+3,?___flmul+3
  6299  0017C6                     l765:
  6300  0017C6  0012               	return		;funcret
  6301  0017C8                     __end_of___flmul:
  6302                           	callstack 0
  6303                           
  6304 ;; *************** function ___fleq *****************
  6305 ;; Defined at:
  6306 ;;		line 4 in file "C:\Program Files\Microchip\xc8\v2.32\pic\sources\c99\common\fleq.c"
  6307 ;; Parameters:    Size  Location     Type
  6308 ;;  ff1             4    6[COMRAM] unsigned char 
  6309 ;;  ff2             4   10[COMRAM] unsigned char 
  6310 ;; Auto vars:     Size  Location     Type
  6311 ;;		None
  6312 ;; Return value:  Size  Location     Type
  6313 ;;		None               void
  6314 ;; Registers used:
  6315 ;;		wreg, status,2, status,0
  6316 ;; Tracked objects:
  6317 ;;		On entry : 0/0
  6318 ;;		On exit  : 0/0
  6319 ;;		Unchanged: 0/0
  6320 ;; Data sizes:     COMRAM   BANK0   BANK1   BANK2   BANK3   BANK4   BANK5   BANK6   BANK7
  6321 ;;      Params:         8       0       0       0       0       0       0       0       0
  6322 ;;      Locals:         0       0       0       0       0       0       0       0       0
  6323 ;;      Temps:          4       0       0       0       0       0       0       0       0
  6324 ;;      Totals:        12       0       0       0       0       0       0       0       0
  6325 ;;Total ram usage:       12 bytes
  6326 ;; Hardware stack levels used: 1
  6327 ;; This function calls:
  6328 ;;		Nothing
  6329 ;; This function is called by:
  6330 ;;		_cancion1
  6331 ;; This function uses a non-reentrant model
  6332 ;;
  6333                           
  6334                           	psect	text24
  6335  002CD8                     __ptext24:
  6336                           	callstack 0
  6337  002CD8                     ___fleq:
  6338                           	callstack 29
  6339  002CD8  0E00               	movlw	0
  6340  002CDA  1407               	andwf	___fleq@ff1^0,w,c
  6341  002CDC  6E0F               	movwf	??___fleq^0,c
  6342  002CDE  0E00               	movlw	0
  6343  002CE0  1408               	andwf	(___fleq@ff1+1)^0,w,c
  6344  002CE2  6E10               	movwf	(??___fleq+1)^0,c
  6345  002CE4  0E80               	movlw	128
  6346  002CE6  1409               	andwf	(___fleq@ff1+2)^0,w,c
  6347  002CE8  6E11               	movwf	(??___fleq+2)^0,c
  6348  002CEA  0E7F               	movlw	127
  6349  002CEC  140A               	andwf	(___fleq@ff1+3)^0,w,c
  6350  002CEE  6E12               	movwf	(??___fleq+3)^0,c
  6351  002CF0  500F               	movf	??___fleq^0,w,c
  6352  002CF2  1010               	iorwf	(??___fleq+1)^0,w,c
  6353  002CF4  1011               	iorwf	(??___fleq+2)^0,w,c
  6354  002CF6  1012               	iorwf	(??___fleq+3)^0,w,c
  6355  002CF8  A4D8               	btfss	status,2,c
  6356  002CFA  EF81  F016         	goto	u3171
  6357  002CFE  EF83  F016         	goto	u3170
  6358  002D02                     u3171:
  6359  002D02  EF8B  F016         	goto	l3037
  6360  002D06                     u3170:
  6361  002D06  0E00               	movlw	0
  6362  002D08  6E07               	movwf	___fleq@ff1^0,c
  6363  002D0A  0E00               	movlw	0
  6364  002D0C  6E08               	movwf	(___fleq@ff1+1)^0,c
  6365  002D0E  0E00               	movlw	0
  6366  002D10  6E09               	movwf	(___fleq@ff1+2)^0,c
  6367  002D12  0E00               	movlw	0
  6368  002D14  6E0A               	movwf	(___fleq@ff1+3)^0,c
  6369  002D16                     l3037:
  6370  002D16  0E00               	movlw	0
  6371  002D18  140B               	andwf	___fleq@ff2^0,w,c
  6372  002D1A  6E0F               	movwf	??___fleq^0,c
  6373  002D1C  0E00               	movlw	0
  6374  002D1E  140C               	andwf	(___fleq@ff2+1)^0,w,c
  6375  002D20  6E10               	movwf	(??___fleq+1)^0,c
  6376  002D22  0E80               	movlw	128
  6377  002D24  140D               	andwf	(___fleq@ff2+2)^0,w,c
  6378  002D26  6E11               	movwf	(??___fleq+2)^0,c
  6379  002D28  0E7F               	movlw	127
  6380  002D2A  140E               	andwf	(___fleq@ff2+3)^0,w,c
  6381  002D2C  6E12               	movwf	(??___fleq+3)^0,c
  6382  002D2E  500F               	movf	??___fleq^0,w,c
  6383  002D30  1010               	iorwf	(??___fleq+1)^0,w,c
  6384  002D32  1011               	iorwf	(??___fleq+2)^0,w,c
  6385  002D34  1012               	iorwf	(??___fleq+3)^0,w,c
  6386  002D36  A4D8               	btfss	status,2,c
  6387  002D38  EFA0  F016         	goto	u3181
  6388  002D3C  EFA2  F016         	goto	u3180
  6389  002D40                     u3181:
  6390  002D40  EFAA  F016         	goto	l3041
  6391  002D44                     u3180:
  6392  002D44  0E00               	movlw	0
  6393  002D46  6E0B               	movwf	___fleq@ff2^0,c
  6394  002D48  0E00               	movlw	0
  6395  002D4A  6E0C               	movwf	(___fleq@ff2+1)^0,c
  6396  002D4C  0E00               	movlw	0
  6397  002D4E  6E0D               	movwf	(___fleq@ff2+2)^0,c
  6398  002D50  0E00               	movlw	0
  6399  002D52  6E0E               	movwf	(___fleq@ff2+3)^0,c
  6400  002D54                     l3041:
  6401  002D54  500B               	movf	___fleq@ff2^0,w,c
  6402  002D56  1807               	xorwf	___fleq@ff1^0,w,c
  6403  002D58  E10F               	bnz	u3190
  6404  002D5A  500C               	movf	(___fleq@ff2+1)^0,w,c
  6405  002D5C  1808               	xorwf	(___fleq@ff1+1)^0,w,c
  6406  002D5E  E10C               	bnz	u3190
  6407  002D60  500D               	movf	(___fleq@ff2+2)^0,w,c
  6408  002D62  1809               	xorwf	(___fleq@ff1+2)^0,w,c
  6409  002D64  E109               	bnz	u3190
  6410  002D66  500E               	movf	(___fleq@ff2+3)^0,w,c
  6411  002D68  180A               	xorwf	(___fleq@ff1+3)^0,w,c
  6412  002D6A  B4D8               	btfsc	status,2,c
  6413  002D6C  EFBA  F016         	goto	u3191
  6414  002D70  EFBC  F016         	goto	u3190
  6415  002D74                     u3191:
  6416  002D74  EFBF  F016         	goto	l3045
  6417  002D78                     u3190:
  6418  002D78  90D8               	bcf	status,0,c
  6419  002D7A  EFC0  F016         	goto	l406
  6420  002D7E                     l3045:
  6421  002D7E  80D8               	bsf	status,0,c
  6422  002D80                     l406:
  6423  002D80  0012               	return		;funcret
  6424  002D82                     __end_of___fleq:
  6425                           	callstack 0
  6426                           
  6427 ;; *************** function _LCD_XY *****************
  6428 ;; Defined at:
  6429 ;;		line 85 in file "LCD_lib.c"
  6430 ;; Parameters:    Size  Location     Type
  6431 ;;  x               2    1[COMRAM] int 
  6432 ;;  y               2    3[COMRAM] int 
  6433 ;; Auto vars:     Size  Location     Type
  6434 ;;		None
  6435 ;; Return value:  Size  Location     Type
  6436 ;;                  1    wreg      void 
  6437 ;; Registers used:
  6438 ;;		wreg, status,2, status,0, cstack
  6439 ;; Tracked objects:
  6440 ;;		On entry : 0/0
  6441 ;;		On exit  : 0/0
  6442 ;;		Unchanged: 0/0
  6443 ;; Data sizes:     COMRAM   BANK0   BANK1   BANK2   BANK3   BANK4   BANK5   BANK6   BANK7
  6444 ;;      Params:         4       0       0       0       0       0       0       0       0
  6445 ;;      Locals:         0       0       0       0       0       0       0       0       0
  6446 ;;      Temps:          0       0       0       0       0       0       0       0       0
  6447 ;;      Totals:         4       0       0       0       0       0       0       0       0
  6448 ;;Total ram usage:        4 bytes
  6449 ;; Hardware stack levels used: 1
  6450 ;; Hardware stack levels required when called: 1
  6451 ;; This function calls:
  6452 ;;		_LCD_Comando
  6453 ;; This function is called by:
  6454 ;;		_cancion1
  6455 ;; This function uses a non-reentrant model
  6456 ;;
  6457                           
  6458                           	psect	text25
  6459  003116                     __ptext25:
  6460                           	callstack 0
  6461  003116                     _LCD_XY:
  6462                           	callstack 28
  6463  003116                     
  6464                           ;LCD_lib.c: 86:     if(x>0){
  6465  003116  BE03               	btfsc	(LCD_XY@x+1)^0,7,c
  6466  003118  EF96  F018         	goto	u2961
  6467  00311C  5003               	movf	(LCD_XY@x+1)^0,w,c
  6468  00311E  E108               	bnz	u2960
  6469  003120  0402               	decf	LCD_XY@x^0,w,c
  6470  003122  A0D8               	btfss	status,0,c
  6471  003124  EF96  F018         	goto	u2961
  6472  003128  EF98  F018         	goto	u2960
  6473  00312C                     u2961:
  6474  00312C  EF9E  F018         	goto	l2873
  6475  003130                     u2960:
  6476  003130                     
  6477                           ;LCD_lib.c: 87:         LCD_Comando(0xC0+y);
  6478  003130  5004               	movf	LCD_XY@y^0,w,c
  6479  003132  0FC0               	addlw	192
  6480  003134  ECC7  F017         	call	_LCD_Comando
  6481                           
  6482                           ;LCD_lib.c: 88:     }
  6483  003138  EFA2  F018         	goto	l135
  6484  00313C                     l2873:
  6485                           
  6486                           ;LCD_lib.c: 90:         LCD_Comando(0x80+y);
  6487  00313C  5004               	movf	LCD_XY@y^0,w,c
  6488  00313E  0F80               	addlw	128
  6489  003140  ECC7  F017         	call	_LCD_Comando
  6490  003144                     l135:
  6491  003144  0012               	return		;funcret
  6492  003146                     __end_of_LCD_XY:
  6493                           	callstack 0
  6494                           
  6495 ;; *************** function _LCD_Cadena *****************
  6496 ;; Defined at:
  6497 ;;		line 94 in file "LCD_lib.c"
  6498 ;; Parameters:    Size  Location     Type
  6499 ;;  dato            2    1[COMRAM] PTR const unsigned char 
  6500 ;;		 -> buffer1(23), 
  6501 ;; Auto vars:     Size  Location     Type
  6502 ;;		None
  6503 ;; Return value:  Size  Location     Type
  6504 ;;                  1    wreg      void 
  6505 ;; Registers used:
  6506 ;;		wreg, fsr2l, fsr2h, status,2, status,0, cstack
  6507 ;; Tracked objects:
  6508 ;;		On entry : 0/0
  6509 ;;		On exit  : 0/0
  6510 ;;		Unchanged: 0/0
  6511 ;; Data sizes:     COMRAM   BANK0   BANK1   BANK2   BANK3   BANK4   BANK5   BANK6   BANK7
  6512 ;;      Params:         2       0       0       0       0       0       0       0       0
  6513 ;;      Locals:         0       0       0       0       0       0       0       0       0
  6514 ;;      Temps:          0       0       0       0       0       0       0       0       0
  6515 ;;      Totals:         2       0       0       0       0       0       0       0       0
  6516 ;;Total ram usage:        2 bytes
  6517 ;; Hardware stack levels used: 1
  6518 ;; Hardware stack levels required when called: 1
  6519 ;; This function calls:
  6520 ;;		_LCD_Data
  6521 ;; This function is called by:
  6522 ;;		_cancion1
  6523 ;; This function uses a non-reentrant model
  6524 ;;
  6525                           
  6526                           	psect	text26
  6527  0030A8                     __ptext26:
  6528                           	callstack 0
  6529  0030A8                     _LCD_Cadena:
  6530                           	callstack 28
  6531  0030A8                     
  6532                           ;LCD_lib.c: 95:     while(*dato){
  6533  0030A8  EF63  F018         	goto	l2895
  6534  0030AC                     l2889:
  6535                           
  6536                           ;LCD_lib.c: 96:         _delay((unsigned long)((100)*(20000000/4000000.0)));
  6537  0030AC  0EA6               	movlw	166
  6538  0030AE                     u3337:
  6539  0030AE  2EE8               	decfsz	wreg,f,c
  6540  0030B0  D7FE               	bra	u3337
  6541  0030B2  D000               	nop2	
  6542  0030B4                     
  6543                           ;LCD_lib.c: 97:         LCD_Data(*dato);
  6544  0030B4  C002  FFD9         	movff	LCD_Cadena@dato,fsr2l
  6545  0030B8  C003  FFDA         	movff	LCD_Cadena@dato+1,fsr2h
  6546  0030BC  50DF               	movf	indf2,w,c
  6547  0030BE  EC72  F017         	call	_LCD_Data
  6548  0030C2                     
  6549                           ;LCD_lib.c: 98:         dato++;
  6550  0030C2  4A02               	infsnz	LCD_Cadena@dato^0,f,c
  6551  0030C4  2A03               	incf	(LCD_Cadena@dato+1)^0,f,c
  6552  0030C6                     l2895:
  6553                           
  6554                           ;LCD_lib.c: 95:     while(*dato){
  6555  0030C6  C002  FFD9         	movff	LCD_Cadena@dato,fsr2l
  6556  0030CA  C003  FFDA         	movff	LCD_Cadena@dato+1,fsr2h
  6557  0030CE  50DF               	movf	indf2,w,c
  6558  0030D0  A4D8               	btfss	status,2,c
  6559  0030D2  EF6D  F018         	goto	u2971
  6560  0030D6  EF6F  F018         	goto	u2970
  6561  0030DA                     u2971:
  6562  0030DA  EF56  F018         	goto	l2889
  6563  0030DE                     u2970:
  6564  0030DE  0012               	return		;funcret
  6565  0030E0                     __end_of_LCD_Cadena:
  6566                           	callstack 0
  6567                           
  6568 ;; *************** function _P1 *****************
  6569 ;; Defined at:
  6570 ;;		line 23 in file "main.c"
  6571 ;; Parameters:    Size  Location     Type
  6572 ;;		None
  6573 ;; Auto vars:     Size  Location     Type
  6574 ;;		None
  6575 ;; Return value:  Size  Location     Type
  6576 ;;                  1    wreg      void 
  6577 ;; Registers used:
  6578 ;;		wreg, status,2, status,0, cstack
  6579 ;; Tracked objects:
  6580 ;;		On entry : 0/0
  6581 ;;		On exit  : 0/0
  6582 ;;		Unchanged: 0/0
  6583 ;; Data sizes:     COMRAM   BANK0   BANK1   BANK2   BANK3   BANK4   BANK5   BANK6   BANK7
  6584 ;;      Params:         0       0       0       0       0       0       0       0       0
  6585 ;;      Locals:         0       0       0       0       0       0       0       0       0
  6586 ;;      Temps:          0       0       0       0       0       0       0       0       0
  6587 ;;      Totals:         0       0       0       0       0       0       0       0       0
  6588 ;;Total ram usage:        0 bytes
  6589 ;; Hardware stack levels used: 1
  6590 ;; Hardware stack levels required when called: 1
  6591 ;; This function calls:
  6592 ;;		_LCD_Comando
  6593 ;;		_LCD_Data
  6594 ;; This function is called by:
  6595 ;;		_main
  6596 ;; This function uses a non-reentrant model
  6597 ;;
  6598                           
  6599                           	psect	text27
  6600  002D82                     __ptext27:
  6601                           	callstack 0
  6602  002D82                     _P1:
  6603                           	callstack 29
  6604  002D82                     
  6605                           ;main.c: 24:     LCD_Comando(1);
  6606  002D82  0E01               	movlw	1
  6607  002D84  ECC7  F017         	call	_LCD_Comando
  6608                           
  6609                           ;main.c: 25:     LCD_Comando(0b01000000);
  6610  002D88  0E40               	movlw	64
  6611  002D8A  ECC7  F017         	call	_LCD_Comando
  6612                           
  6613                           ;main.c: 26:     LCD_Data(0b00011111);
  6614  002D8E  0E1F               	movlw	31
  6615  002D90  EC72  F017         	call	_LCD_Data
  6616                           
  6617                           ;main.c: 27:     LCD_Data(0b00010101);
  6618  002D94  0E15               	movlw	21
  6619  002D96  EC72  F017         	call	_LCD_Data
  6620                           
  6621                           ;main.c: 28:     LCD_Data(0b00011111);
  6622  002D9A  0E1F               	movlw	31
  6623  002D9C  EC72  F017         	call	_LCD_Data
  6624                           
  6625                           ;main.c: 29:     LCD_Data(0b00001110);
  6626  002DA0  0E0E               	movlw	14
  6627  002DA2  EC72  F017         	call	_LCD_Data
  6628                           
  6629                           ;main.c: 30:     LCD_Data(0b00010101);
  6630  002DA6  0E15               	movlw	21
  6631  002DA8  EC72  F017         	call	_LCD_Data
  6632                           
  6633                           ;main.c: 31:     LCD_Data(0b00001110);
  6634  002DAC  0E0E               	movlw	14
  6635  002DAE  EC72  F017         	call	_LCD_Data
  6636                           
  6637                           ;main.c: 32:     LCD_Data(0b00011011);
  6638  002DB2  0E1B               	movlw	27
  6639  002DB4  EC72  F017         	call	_LCD_Data
  6640                           
  6641                           ;main.c: 33:     LCD_Data(0b00000000);
  6642  002DB8  0E00               	movlw	0
  6643  002DBA  EC72  F017         	call	_LCD_Data
  6644                           
  6645                           ;main.c: 34:     LCD_Data(0b00000111);
  6646  002DBE  0E07               	movlw	7
  6647  002DC0  EC72  F017         	call	_LCD_Data
  6648                           
  6649                           ;main.c: 35:     LCD_Data(0b00000010);
  6650  002DC4  0E02               	movlw	2
  6651  002DC6  EC72  F017         	call	_LCD_Data
  6652                           
  6653                           ;main.c: 36:     LCD_Data(0b00011111);
  6654  002DCA  0E1F               	movlw	31
  6655  002DCC  EC72  F017         	call	_LCD_Data
  6656                           
  6657                           ;main.c: 37:     LCD_Data(0b00000111);
  6658  002DD0  0E07               	movlw	7
  6659  002DD2  EC72  F017         	call	_LCD_Data
  6660                           
  6661                           ;main.c: 38:     LCD_Data(0b00000111);
  6662  002DD6  0E07               	movlw	7
  6663  002DD8  EC72  F017         	call	_LCD_Data
  6664                           
  6665                           ;main.c: 39:     LCD_Data(0b00000101);
  6666  002DDC  0E05               	movlw	5
  6667  002DDE  EC72  F017         	call	_LCD_Data
  6668                           
  6669                           ;main.c: 40:     LCD_Data(0b00011011);
  6670  002DE2  0E1B               	movlw	27
  6671  002DE4  EC72  F017         	call	_LCD_Data
  6672                           
  6673                           ;main.c: 41:     LCD_Data(0b00000000);
  6674  002DE8  0E00               	movlw	0
  6675  002DEA  EC72  F017         	call	_LCD_Data
  6676                           
  6677                           ;main.c: 42:     LCD_Data(0b00011100);
  6678  002DEE  0E1C               	movlw	28
  6679  002DF0  EC72  F017         	call	_LCD_Data
  6680                           
  6681                           ;main.c: 43:     LCD_Data(0b00001000);
  6682  002DF4  0E08               	movlw	8
  6683  002DF6  EC72  F017         	call	_LCD_Data
  6684                           
  6685                           ;main.c: 44:     LCD_Data(0b00011111);
  6686  002DFA  0E1F               	movlw	31
  6687  002DFC  EC72  F017         	call	_LCD_Data
  6688                           
  6689                           ;main.c: 45:     LCD_Data(0b00011100);
  6690  002E00  0E1C               	movlw	28
  6691  002E02  EC72  F017         	call	_LCD_Data
  6692                           
  6693                           ;main.c: 46:     LCD_Data(0b00011100);
  6694  002E06  0E1C               	movlw	28
  6695  002E08  EC72  F017         	call	_LCD_Data
  6696                           
  6697                           ;main.c: 47:     LCD_Data(0b00010100);
  6698  002E0C  0E14               	movlw	20
  6699  002E0E  EC72  F017         	call	_LCD_Data
  6700                           
  6701                           ;main.c: 48:     LCD_Data(0b00011011);
  6702  002E12  0E1B               	movlw	27
  6703  002E14  EC72  F017         	call	_LCD_Data
  6704                           
  6705                           ;main.c: 49:     LCD_Data(0b00000000);
  6706  002E18  0E00               	movlw	0
  6707  002E1A  EC72  F017         	call	_LCD_Data
  6708  002E1E  0012               	return		;funcret
  6709  002E20                     __end_of_P1:
  6710                           	callstack 0
  6711                           
  6712 ;; *************** function _LCD_Data *****************
  6713 ;; Defined at:
  6714 ;;		line 102 in file "LCD_lib.c"
  6715 ;; Parameters:    Size  Location     Type
  6716 ;;  data            1    wreg     unsigned char 
  6717 ;; Auto vars:     Size  Location     Type
  6718 ;;  data            1    0[COMRAM] unsigned char 
  6719 ;; Return value:  Size  Location     Type
  6720 ;;                  1    wreg      void 
  6721 ;; Registers used:
  6722 ;;		wreg, status,2, status,0
  6723 ;; Tracked objects:
  6724 ;;		On entry : 0/0
  6725 ;;		On exit  : 0/0
  6726 ;;		Unchanged: 0/0
  6727 ;; Data sizes:     COMRAM   BANK0   BANK1   BANK2   BANK3   BANK4   BANK5   BANK6   BANK7
  6728 ;;      Params:         0       0       0       0       0       0       0       0       0
  6729 ;;      Locals:         1       0       0       0       0       0       0       0       0
  6730 ;;      Temps:          0       0       0       0       0       0       0       0       0
  6731 ;;      Totals:         1       0       0       0       0       0       0       0       0
  6732 ;;Total ram usage:        1 bytes
  6733 ;; Hardware stack levels used: 1
  6734 ;; This function calls:
  6735 ;;		Nothing
  6736 ;; This function is called by:
  6737 ;;		_P1
  6738 ;;		_cancion1
  6739 ;;		_LCD_Cadena
  6740 ;; This function uses a non-reentrant model
  6741 ;;
  6742                           
  6743                           	psect	text28
  6744  002EE4                     __ptext28:
  6745                           	callstack 0
  6746  002EE4                     _LCD_Data:
  6747                           	callstack 29
  6748                           
  6749                           ;incstack = 0
  6750                           ;LCD_Data@data stored from wreg
  6751  002EE4  6E01               	movwf	LCD_Data@data^0,c
  6752  002EE6                     
  6753                           ;LCD_lib.c: 103:     _delay((unsigned long)((100)*(20000000/4000000.0)));
  6754  002EE6  0EA6               	movlw	166
  6755  002EE8                     u3347:
  6756  002EE8  2EE8               	decfsz	wreg,f,c
  6757  002EEA  D7FE               	bra	u3347
  6758  002EEC  D000               	nop2	
  6759  002EEE                     
  6760                           ;LCD_lib.c: 104:     PORTD &= 0xf0;
  6761  002EEE  0EF0               	movlw	240
  6762  002EF0  1683               	andwf	131,f,c	;volatile
  6763  002EF2                     
  6764                           ;LCD_lib.c: 105:     TRISD &= 0xf0;
  6765  002EF2  0EF0               	movlw	240
  6766  002EF4  1695               	andwf	149,f,c	;volatile
  6767  002EF6                     
  6768                           ;LCD_lib.c: 107:     PORTD = PORTD | ((data>>4)&0x0f);
  6769  002EF6  3801               	swapf	LCD_Data@data^0,w,c
  6770  002EF8  0B0F               	andlw	15
  6771  002EFA  0B0F               	andlw	15
  6772  002EFC  1083               	iorwf	131,w,c	;volatile
  6773  002EFE  6E83               	movwf	131,c	;volatile
  6774  002F00                     
  6775                           ;LCD_lib.c: 109:     LATDbits.LATD6 = 0;
  6776  002F00  9C8C               	bcf	140,6,c	;volatile
  6777  002F02                     
  6778                           ;LCD_lib.c: 110:     LATDbits.LATD5 = 1;
  6779  002F02  8A8C               	bsf	140,5,c	;volatile
  6780  002F04                     
  6781                           ;LCD_lib.c: 111:     _delay((unsigned long)((5)*(20000000/4000000.0)));
  6782  002F04  0E08               	movlw	8
  6783  002F06                     u3357:
  6784  002F06  2EE8               	decfsz	wreg,f,c
  6785  002F08  D7FE               	bra	u3357
  6786  002F0A  F000               	nop	
  6787  002F0C                     
  6788                           ;LCD_lib.c: 112:     LATDbits.LATD4 = 1;
  6789  002F0C  888C               	bsf	140,4,c	;volatile
  6790  002F0E                     
  6791                           ;LCD_lib.c: 113:     _delay((unsigned long)((5)*(20000000/4000000.0)));
  6792  002F0E  0E08               	movlw	8
  6793  002F10                     u3367:
  6794  002F10  2EE8               	decfsz	wreg,f,c
  6795  002F12  D7FE               	bra	u3367
  6796  002F14  F000               	nop	
  6797  002F16                     
  6798                           ;LCD_lib.c: 114:     LATDbits.LATD4 = 0;
  6799  002F16  988C               	bcf	140,4,c	;volatile
  6800  002F18                     
  6801                           ;LCD_lib.c: 116:     PORTD &= 0xf0;
  6802  002F18  0EF0               	movlw	240
  6803  002F1A  1683               	andwf	131,f,c	;volatile
  6804  002F1C                     
  6805                           ;LCD_lib.c: 117:     PORTD |= data&0x0f;
  6806  002F1C  5001               	movf	LCD_Data@data^0,w,c
  6807  002F1E  0B0F               	andlw	15
  6808  002F20  1283               	iorwf	131,f,c	;volatile
  6809  002F22                     
  6810                           ;LCD_lib.c: 119:     _delay((unsigned long)((5)*(20000000/4000000.0)));
  6811  002F22  0E08               	movlw	8
  6812  002F24                     u3377:
  6813  002F24  2EE8               	decfsz	wreg,f,c
  6814  002F26  D7FE               	bra	u3377
  6815  002F28  F000               	nop	
  6816  002F2A                     
  6817                           ;LCD_lib.c: 120:     LATDbits.LATD4 = 1;
  6818  002F2A  888C               	bsf	140,4,c	;volatile
  6819  002F2C                     
  6820                           ;LCD_lib.c: 121:     _delay((unsigned long)((5)*(20000000/4000000.0)));
  6821  002F2C  0E08               	movlw	8
  6822  002F2E                     u3387:
  6823  002F2E  2EE8               	decfsz	wreg,f,c
  6824  002F30  D7FE               	bra	u3387
  6825  002F32  F000               	nop	
  6826  002F34                     
  6827                           ;LCD_lib.c: 122:     LATDbits.LATD4 = 0;
  6828  002F34  988C               	bcf	140,4,c	;volatile
  6829  002F36                     
  6830                           ;LCD_lib.c: 124:     TRISD |= 0x0f;
  6831  002F36  0E0F               	movlw	15
  6832  002F38  1295               	iorwf	149,f,c	;volatile
  6833  002F3A  0012               	return		;funcret
  6834  002F3C                     __end_of_LCD_Data:
  6835                           	callstack 0
  6836                           
  6837 ;; *************** function _LCD_Init *****************
  6838 ;; Defined at:
  6839 ;;		line 5 in file "LCD_lib.c"
  6840 ;; Parameters:    Size  Location     Type
  6841 ;;		None
  6842 ;; Auto vars:     Size  Location     Type
  6843 ;;		None
  6844 ;; Return value:  Size  Location     Type
  6845 ;;                  1    wreg      void 
  6846 ;; Registers used:
  6847 ;;		wreg, status,2, status,0, cstack
  6848 ;; Tracked objects:
  6849 ;;		On entry : 0/0
  6850 ;;		On exit  : 0/0
  6851 ;;		Unchanged: 0/0
  6852 ;; Data sizes:     COMRAM   BANK0   BANK1   BANK2   BANK3   BANK4   BANK5   BANK6   BANK7
  6853 ;;      Params:         0       0       0       0       0       0       0       0       0
  6854 ;;      Locals:         0       0       0       0       0       0       0       0       0
  6855 ;;      Temps:          1       0       0       0       0       0       0       0       0
  6856 ;;      Totals:         1       0       0       0       0       0       0       0       0
  6857 ;;Total ram usage:        1 bytes
  6858 ;; Hardware stack levels used: 1
  6859 ;; Hardware stack levels required when called: 1
  6860 ;; This function calls:
  6861 ;;		_LCD_Comando
  6862 ;; This function is called by:
  6863 ;;		_main
  6864 ;; This function uses a non-reentrant model
  6865 ;;
  6866                           
  6867                           	psect	text29
  6868  002C1E                     __ptext29:
  6869                           	callstack 0
  6870  002C1E                     _LCD_Init:
  6871                           	callstack 29
  6872  002C1E                     
  6873                           ;LCD_lib.c: 7:     PORTD = PORTD & 0xf0;
  6874  002C1E  5083               	movf	131,w,c	;volatile
  6875  002C20  0BF0               	andlw	240
  6876  002C22  6E83               	movwf	131,c	;volatile
  6877                           
  6878                           ;LCD_lib.c: 12:     TRISD &= 0xf0;
  6879  002C24  0EF0               	movlw	240
  6880  002C26  1695               	andwf	149,f,c	;volatile
  6881  002C28                     
  6882                           ;LCD_lib.c: 14:     TRISDbits.RD6 = 0;
  6883  002C28  9C95               	bcf	149,6,c	;volatile
  6884  002C2A                     
  6885                           ;LCD_lib.c: 15:     TRISDbits.RD5 = 0;
  6886  002C2A  9A95               	bcf	149,5,c	;volatile
  6887  002C2C                     
  6888                           ;LCD_lib.c: 16:     TRISDbits.RD4 = 0;
  6889  002C2C  9895               	bcf	149,4,c	;volatile
  6890  002C2E                     
  6891                           ;LCD_lib.c: 18:     LATDbits.LATD6 = 0;
  6892  002C2E  9C8C               	bcf	140,6,c	;volatile
  6893  002C30                     
  6894                           ;LCD_lib.c: 19:     LATDbits.LATD5 = 0;
  6895  002C30  9A8C               	bcf	140,5,c	;volatile
  6896  002C32                     
  6897                           ;LCD_lib.c: 20:     LATDbits.LATD4 = 0;
  6898  002C32  988C               	bcf	140,4,c	;volatile
  6899  002C34                     
  6900                           ;LCD_lib.c: 22:     _delay((unsigned long)((15)*(20000000/4000.0)));
  6901  002C34  0E62               	movlw	98
  6902  002C36  6E02               	movwf	??_LCD_Init^0,c
  6903  002C38  0E66               	movlw	102
  6904  002C3A                     u3397:
  6905  002C3A  2EE8               	decfsz	wreg,f,c
  6906  002C3C  D7FE               	bra	u3397
  6907  002C3E  2E02               	decfsz	??_LCD_Init^0,f,c
  6908  002C40  D7FC               	bra	u3397
  6909  002C42                     
  6910                           ;LCD_lib.c: 24:     LCD_Comando(0x30);
  6911  002C42  0E30               	movlw	48
  6912  002C44  ECC7  F017         	call	_LCD_Comando
  6913  002C48                     
  6914                           ;LCD_lib.c: 25:     _delay((unsigned long)((5)*(20000000/4000.0)));
  6915  002C48  0E21               	movlw	33
  6916  002C4A  6E02               	movwf	??_LCD_Init^0,c
  6917  002C4C  0E76               	movlw	118
  6918  002C4E                     u3407:
  6919  002C4E  2EE8               	decfsz	wreg,f,c
  6920  002C50  D7FE               	bra	u3407
  6921  002C52  2E02               	decfsz	??_LCD_Init^0,f,c
  6922  002C54  D7FC               	bra	u3407
  6923  002C56  D000               	nop2	
  6924  002C58                     
  6925                           ;LCD_lib.c: 26:     LCD_Comando(0x30);
  6926  002C58  0E30               	movlw	48
  6927  002C5A  ECC7  F017         	call	_LCD_Comando
  6928  002C5E                     
  6929                           ;LCD_lib.c: 27:     _delay((unsigned long)((100)*(20000000/4000000.0)));
  6930  002C5E  0EA6               	movlw	166
  6931  002C60                     u3417:
  6932  002C60  2EE8               	decfsz	wreg,f,c
  6933  002C62  D7FE               	bra	u3417
  6934  002C64  D000               	nop2	
  6935  002C66                     
  6936                           ;LCD_lib.c: 28:     LCD_Comando(0x32);
  6937  002C66  0E32               	movlw	50
  6938  002C68  ECC7  F017         	call	_LCD_Comando
  6939  002C6C                     
  6940                           ;LCD_lib.c: 29:     _delay((unsigned long)((100)*(20000000/4000000.0)));
  6941  002C6C  0EA6               	movlw	166
  6942  002C6E                     u3427:
  6943  002C6E  2EE8               	decfsz	wreg,f,c
  6944  002C70  D7FE               	bra	u3427
  6945  002C72  D000               	nop2	
  6946  002C74                     
  6947                           ;LCD_lib.c: 32:     _delay((unsigned long)((100)*(20000000/4000000.0)));
  6948  002C74  0EA6               	movlw	166
  6949  002C76                     u3437:
  6950  002C76  2EE8               	decfsz	wreg,f,c
  6951  002C78  D7FE               	bra	u3437
  6952  002C7A  D000               	nop2	
  6953  002C7C                     
  6954                           ;LCD_lib.c: 33:     LCD_Comando(0x28);
  6955  002C7C  0E28               	movlw	40
  6956  002C7E  ECC7  F017         	call	_LCD_Comando
  6957  002C82                     
  6958                           ;LCD_lib.c: 34:     _delay((unsigned long)((100)*(20000000/4000000.0)));
  6959  002C82  0EA6               	movlw	166
  6960  002C84                     u3447:
  6961  002C84  2EE8               	decfsz	wreg,f,c
  6962  002C86  D7FE               	bra	u3447
  6963  002C88  D000               	nop2	
  6964  002C8A                     
  6965                           ;LCD_lib.c: 35:     LCD_Comando(0x08);
  6966  002C8A  0E08               	movlw	8
  6967  002C8C  ECC7  F017         	call	_LCD_Comando
  6968  002C90                     
  6969                           ;LCD_lib.c: 36:     _delay((unsigned long)((100)*(20000000/4000000.0)));
  6970  002C90  0EA6               	movlw	166
  6971  002C92                     u3457:
  6972  002C92  2EE8               	decfsz	wreg,f,c
  6973  002C94  D7FE               	bra	u3457
  6974  002C96  D000               	nop2	
  6975  002C98                     
  6976                           ;LCD_lib.c: 37:     LCD_Comando(0x0f);
  6977  002C98  0E0F               	movlw	15
  6978  002C9A  ECC7  F017         	call	_LCD_Comando
  6979  002C9E                     
  6980                           ;LCD_lib.c: 38:     _delay((unsigned long)((100)*(20000000/4000000.0)));
  6981  002C9E  0EA6               	movlw	166
  6982  002CA0                     u3467:
  6983  002CA0  2EE8               	decfsz	wreg,f,c
  6984  002CA2  D7FE               	bra	u3467
  6985  002CA4  D000               	nop2	
  6986  002CA6                     
  6987                           ;LCD_lib.c: 39:     LCD_Comando(0x01);
  6988  002CA6  0E01               	movlw	1
  6989  002CA8  ECC7  F017         	call	_LCD_Comando
  6990  002CAC                     
  6991                           ;LCD_lib.c: 40:     _delay((unsigned long)((100)*(20000000/4000000.0)));
  6992  002CAC  0EA6               	movlw	166
  6993  002CAE                     u3477:
  6994  002CAE  2EE8               	decfsz	wreg,f,c
  6995  002CB0  D7FE               	bra	u3477
  6996  002CB2  D000               	nop2	
  6997  002CB4                     
  6998                           ;LCD_lib.c: 41:     LCD_Comando(0x04);
  6999  002CB4  0E04               	movlw	4
  7000  002CB6  ECC7  F017         	call	_LCD_Comando
  7001  002CBA                     
  7002                           ;LCD_lib.c: 42:     _delay((unsigned long)((100)*(20000000/4000000.0)));
  7003  002CBA  0EA6               	movlw	166
  7004  002CBC                     u3487:
  7005  002CBC  2EE8               	decfsz	wreg,f,c
  7006  002CBE  D7FE               	bra	u3487
  7007  002CC0  D000               	nop2	
  7008  002CC2                     
  7009                           ;LCD_lib.c: 44:     _delay((unsigned long)((100)*(20000000/4000000.0)));
  7010  002CC2  0EA6               	movlw	166
  7011  002CC4                     u3497:
  7012  002CC4  2EE8               	decfsz	wreg,f,c
  7013  002CC6  D7FE               	bra	u3497
  7014  002CC8  D000               	nop2	
  7015  002CCA                     
  7016                           ;LCD_lib.c: 45:     LCD_Comando(0x06);
  7017  002CCA  0E06               	movlw	6
  7018  002CCC  ECC7  F017         	call	_LCD_Comando
  7019  002CD0                     
  7020                           ;LCD_lib.c: 46:     LCD_Comando(0x0C);
  7021  002CD0  0E0C               	movlw	12
  7022  002CD2  ECC7  F017         	call	_LCD_Comando
  7023  002CD6  0012               	return		;funcret
  7024  002CD8                     __end_of_LCD_Init:
  7025                           	callstack 0
  7026                           
  7027 ;; *************** function _LCD_Comando *****************
  7028 ;; Defined at:
  7029 ;;		line 51 in file "LCD_lib.c"
  7030 ;; Parameters:    Size  Location     Type
  7031 ;;  cmd             1    wreg     unsigned char 
  7032 ;; Auto vars:     Size  Location     Type
  7033 ;;  cmd             1    0[COMRAM] unsigned char 
  7034 ;; Return value:  Size  Location     Type
  7035 ;;                  1    wreg      void 
  7036 ;; Registers used:
  7037 ;;		wreg, status,2, status,0
  7038 ;; Tracked objects:
  7039 ;;		On entry : 0/0
  7040 ;;		On exit  : 0/0
  7041 ;;		Unchanged: 0/0
  7042 ;; Data sizes:     COMRAM   BANK0   BANK1   BANK2   BANK3   BANK4   BANK5   BANK6   BANK7
  7043 ;;      Params:         0       0       0       0       0       0       0       0       0
  7044 ;;      Locals:         1       0       0       0       0       0       0       0       0
  7045 ;;      Temps:          0       0       0       0       0       0       0       0       0
  7046 ;;      Totals:         1       0       0       0       0       0       0       0       0
  7047 ;;Total ram usage:        1 bytes
  7048 ;; Hardware stack levels used: 1
  7049 ;; This function calls:
  7050 ;;		Nothing
  7051 ;; This function is called by:
  7052 ;;		_P1
  7053 ;;		_cancion1
  7054 ;;		_LCD_Init
  7055 ;;		_LCD_XY
  7056 ;; This function uses a non-reentrant model
  7057 ;;
  7058                           
  7059                           	psect	text30
  7060  002F8E                     __ptext30:
  7061                           	callstack 0
  7062  002F8E                     _LCD_Comando:
  7063                           	callstack 28
  7064                           
  7065                           ;incstack = 0
  7066                           ;LCD_Comando@cmd stored from wreg
  7067  002F8E  6E01               	movwf	LCD_Comando@cmd^0,c
  7068  002F90                     
  7069                           ;LCD_lib.c: 53:     PORTD &= 0xf0;
  7070  002F90  0EF0               	movlw	240
  7071  002F92  1683               	andwf	131,f,c	;volatile
  7072                           
  7073                           ;LCD_lib.c: 54:     TRISD &= 0xf0;
  7074  002F94  0EF0               	movlw	240
  7075  002F96  1695               	andwf	149,f,c	;volatile
  7076                           
  7077                           ;LCD_lib.c: 57:     PORTD = PORTD | ((cmd>>4)&0x0f);
  7078  002F98  3801               	swapf	LCD_Comando@cmd^0,w,c
  7079  002F9A  0B0F               	andlw	15
  7080  002F9C  0B0F               	andlw	15
  7081  002F9E  1083               	iorwf	131,w,c	;volatile
  7082  002FA0  6E83               	movwf	131,c	;volatile
  7083  002FA2                     
  7084                           ;LCD_lib.c: 65:     LATDbits.LATD6 = 0;
  7085  002FA2  9C8C               	bcf	140,6,c	;volatile
  7086  002FA4                     
  7087                           ;LCD_lib.c: 66:     LATDbits.LATD5 = 0;
  7088  002FA4  9A8C               	bcf	140,5,c	;volatile
  7089  002FA6                     
  7090                           ;LCD_lib.c: 67:     _delay((unsigned long)((5)*(20000000/4000000.0)));
  7091  002FA6  0E08               	movlw	8
  7092  002FA8                     u3507:
  7093  002FA8  2EE8               	decfsz	wreg,f,c
  7094  002FAA  D7FE               	bra	u3507
  7095  002FAC  F000               	nop	
  7096  002FAE                     
  7097                           ;LCD_lib.c: 68:     LATDbits.LATD4 = 1;
  7098  002FAE  888C               	bsf	140,4,c	;volatile
  7099  002FB0                     
  7100                           ;LCD_lib.c: 69:     _delay((unsigned long)((5)*(20000000/4000000.0)));
  7101  002FB0  0E08               	movlw	8
  7102  002FB2                     u3517:
  7103  002FB2  2EE8               	decfsz	wreg,f,c
  7104  002FB4  D7FE               	bra	u3517
  7105  002FB6  F000               	nop	
  7106  002FB8                     
  7107                           ;LCD_lib.c: 70:     LATDbits.LATD4 = 0;
  7108  002FB8  988C               	bcf	140,4,c	;volatile
  7109                           
  7110                           ;LCD_lib.c: 73:     PORTD &= 0xf0;
  7111  002FBA  0EF0               	movlw	240
  7112  002FBC  1683               	andwf	131,f,c	;volatile
  7113                           
  7114                           ;LCD_lib.c: 74:     PORTD |= cmd&0x0f;
  7115  002FBE  5001               	movf	LCD_Comando@cmd^0,w,c
  7116  002FC0  0B0F               	andlw	15
  7117  002FC2  1283               	iorwf	131,f,c	;volatile
  7118  002FC4                     
  7119                           ;LCD_lib.c: 75:     _delay((unsigned long)((5)*(20000000/4000000.0)));
  7120  002FC4  0E08               	movlw	8
  7121  002FC6                     u3527:
  7122  002FC6  2EE8               	decfsz	wreg,f,c
  7123  002FC8  D7FE               	bra	u3527
  7124  002FCA  F000               	nop	
  7125  002FCC                     
  7126                           ;LCD_lib.c: 76:     LATDbits.LATD4 = 1;
  7127  002FCC  888C               	bsf	140,4,c	;volatile
  7128  002FCE                     
  7129                           ;LCD_lib.c: 77:     _delay((unsigned long)((5)*(20000000/4000000.0)));
  7130  002FCE  0E08               	movlw	8
  7131  002FD0                     u3537:
  7132  002FD0  2EE8               	decfsz	wreg,f,c
  7133  002FD2  D7FE               	bra	u3537
  7134  002FD4  F000               	nop	
  7135  002FD6                     
  7136                           ;LCD_lib.c: 78:     LATDbits.LATD4 = 0;
  7137  002FD6  988C               	bcf	140,4,c	;volatile
  7138                           
  7139                           ;LCD_lib.c: 80:     TRISD |= 0x0f;
  7140  002FD8  0E0F               	movlw	15
  7141  002FDA  1295               	iorwf	149,f,c	;volatile
  7142  002FDC  0012               	return		;funcret
  7143  002FDE                     __end_of_LCD_Comando:
  7144                           	callstack 0
  7145                           
  7146                           	psect	rparam
  7147  0000                     
  7148                           	psect	idloc
  7149                           
  7150                           ;Config register IDLOC0 @ 0x200000
  7151                           ;	unspecified, using default values
  7152  200000                     	org	2097152
  7153  200000  FF                 	db	255
  7154                           
  7155                           ;Config register IDLOC1 @ 0x200001
  7156                           ;	unspecified, using default values
  7157  200001                     	org	2097153
  7158  200001  FF                 	db	255
  7159                           
  7160                           ;Config register IDLOC2 @ 0x200002
  7161                           ;	unspecified, using default values
  7162  200002                     	org	2097154
  7163  200002  FF                 	db	255
  7164                           
  7165                           ;Config register IDLOC3 @ 0x200003
  7166                           ;	unspecified, using default values
  7167  200003                     	org	2097155
  7168  200003  FF                 	db	255
  7169                           
  7170                           ;Config register IDLOC4 @ 0x200004
  7171                           ;	unspecified, using default values
  7172  200004                     	org	2097156
  7173  200004  FF                 	db	255
  7174                           
  7175                           ;Config register IDLOC5 @ 0x200005
  7176                           ;	unspecified, using default values
  7177  200005                     	org	2097157
  7178  200005  FF                 	db	255
  7179                           
  7180                           ;Config register IDLOC6 @ 0x200006
  7181                           ;	unspecified, using default values
  7182  200006                     	org	2097158
  7183  200006  FF                 	db	255
  7184                           
  7185                           ;Config register IDLOC7 @ 0x200007
  7186                           ;	unspecified, using default values
  7187  200007                     	org	2097159
  7188  200007  FF                 	db	255
  7189                           
  7190                           	psect	config
  7191                           
  7192                           ;Config register CONFIG1L @ 0x300000
  7193                           ;	PLL Prescaler Selection bits
  7194                           ;	PLLDIV = 5, Divide by 5 (20 MHz oscillator input)
  7195                           ;	System Clock Postscaler Selection bits
  7196                           ;	CPUDIV = OSC1_PLL2, [Primary Oscillator Src: /1][96 MHz PLL Src: /2]
  7197                           ;	USB Clock Selection bit (used in Full-Speed USB mode only; UCFG:FSEN = 1)
  7198                           ;	USBDIV = 2, USB clock source comes from the 96 MHz PLL divided by 2
  7199  300000                     	org	3145728
  7200  300000  24                 	db	36
  7201                           
  7202                           ;Config register CONFIG1H @ 0x300001
  7203                           ;	Oscillator Selection bits
  7204                           ;	FOSC = HS, HS oscillator (HS)
  7205                           ;	Fail-Safe Clock Monitor Enable bit
  7206                           ;	FCMEN = OFF, Fail-Safe Clock Monitor disabled
  7207                           ;	Internal/External Oscillator Switchover bit
  7208                           ;	IESO = OFF, Oscillator Switchover mode disabled
  7209  300001                     	org	3145729
  7210  300001  0C                 	db	12
  7211                           
  7212                           ;Config register CONFIG2L @ 0x300002
  7213                           ;	Power-up Timer Enable bit
  7214                           ;	PWRT = OFF, PWRT disabled
  7215                           ;	Brown-out Reset Enable bits
  7216                           ;	BOR = ON, Brown-out Reset enabled in hardware only (SBOREN is disabled)
  7217                           ;	Brown-out Reset Voltage bits
  7218                           ;	BORV = 3, Minimum setting 2.05V
  7219                           ;	USB Voltage Regulator Enable bit
  7220                           ;	VREGEN = OFF, USB voltage regulator disabled
  7221  300002                     	org	3145730
  7222  300002  1F                 	db	31
  7223                           
  7224                           ;Config register CONFIG2H @ 0x300003
  7225                           ;	Watchdog Timer Enable bit
  7226                           ;	WDT = ON, WDT enabled
  7227                           ;	Watchdog Timer Postscale Select bits
  7228                           ;	WDTPS = 32768, 1:32768
  7229  300003                     	org	3145731
  7230  300003  1F                 	db	31
  7231                           
  7232                           ; Padding undefined space
  7233  300004                     	org	3145732
  7234  300004  FF                 	db	255
  7235                           
  7236                           ;Config register CONFIG3H @ 0x300005
  7237                           ;	CCP2 MUX bit
  7238                           ;	CCP2MX = ON, CCP2 input/output is multiplexed with RC1
  7239                           ;	PORTB A/D Enable bit
  7240                           ;	PBADEN = ON, PORTB<4:0> pins are configured as analog input channels on Reset
  7241                           ;	Low-Power Timer 1 Oscillator Enable bit
  7242                           ;	LPT1OSC = OFF, Timer1 configured for higher power operation
  7243                           ;	MCLR Pin Enable bit
  7244                           ;	MCLRE = ON, MCLR pin enabled; RE3 input pin disabled
  7245  300005                     	org	3145733
  7246  300005  83                 	db	131
  7247                           
  7248                           ;Config register CONFIG4L @ 0x300006
  7249                           ;	Stack Full/Underflow Reset Enable bit
  7250                           ;	STVREN = ON, Stack full/underflow will cause Reset
  7251                           ;	Single-Supply ICSP Enable bit
  7252                           ;	LVP = ON, Single-Supply ICSP enabled
  7253                           ;	Dedicated In-Circuit Debug/Programming Port (ICPORT) Enable bit
  7254                           ;	ICPRT = OFF, ICPORT disabled
  7255                           ;	Extended Instruction Set Enable bit
  7256                           ;	XINST = OFF, Instruction set extension and Indexed Addressing mode disabled (Legacy mo
      +                          de)
  7257                           ;	Background Debugger Enable bit
  7258                           ;	DEBUG = 0x1, unprogrammed default
  7259  300006                     	org	3145734
  7260  300006  85                 	db	133
  7261                           
  7262                           ; Padding undefined space
  7263  300007                     	org	3145735
  7264  300007  FF                 	db	255
  7265                           
  7266                           ;Config register CONFIG5L @ 0x300008
  7267                           ;	Code Protection bit
  7268                           ;	CP0 = OFF, Block 0 (000800-001FFFh) is not code-protected
  7269                           ;	Code Protection bit
  7270                           ;	CP1 = OFF, Block 1 (002000-003FFFh) is not code-protected
  7271                           ;	Code Protection bit
  7272                           ;	CP2 = OFF, Block 2 (004000-005FFFh) is not code-protected
  7273                           ;	Code Protection bit
  7274                           ;	CP3 = OFF, Block 3 (006000-007FFFh) is not code-protected
  7275  300008                     	org	3145736
  7276  300008  0F                 	db	15
  7277                           
  7278                           ;Config register CONFIG5H @ 0x300009
  7279                           ;	Boot Block Code Protection bit
  7280                           ;	CPB = OFF, Boot block (000000-0007FFh) is not code-protected
  7281                           ;	Data EEPROM Code Protection bit
  7282                           ;	CPD = OFF, Data EEPROM is not code-protected
  7283  300009                     	org	3145737
  7284  300009  C0                 	db	192
  7285                           
  7286                           ;Config register CONFIG6L @ 0x30000A
  7287                           ;	Write Protection bit
  7288                           ;	WRT0 = OFF, Block 0 (000800-001FFFh) is not write-protected
  7289                           ;	Write Protection bit
  7290                           ;	WRT1 = OFF, Block 1 (002000-003FFFh) is not write-protected
  7291                           ;	Write Protection bit
  7292                           ;	WRT2 = OFF, Block 2 (004000-005FFFh) is not write-protected
  7293                           ;	Write Protection bit
  7294                           ;	WRT3 = OFF, Block 3 (006000-007FFFh) is not write-protected
  7295  30000A                     	org	3145738
  7296  30000A  0F                 	db	15
  7297                           
  7298                           ;Config register CONFIG6H @ 0x30000B
  7299                           ;	Configuration Register Write Protection bit
  7300                           ;	WRTC = OFF, Configuration registers (300000-3000FFh) are not write-protected
  7301                           ;	Boot Block Write Protection bit
  7302                           ;	WRTB = OFF, Boot block (000000-0007FFh) is not write-protected
  7303                           ;	Data EEPROM Write Protection bit
  7304                           ;	WRTD = OFF, Data EEPROM is not write-protected
  7305  30000B                     	org	3145739
  7306  30000B  E0                 	db	224
  7307                           
  7308                           ;Config register CONFIG7L @ 0x30000C
  7309                           ;	Table Read Protection bit
  7310                           ;	EBTR0 = OFF, Block 0 (000800-001FFFh) is not protected from table reads executed in ot
      +                          her blocks
  7311                           ;	Table Read Protection bit
  7312                           ;	EBTR1 = OFF, Block 1 (002000-003FFFh) is not protected from table reads executed in ot
      +                          her blocks
  7313                           ;	Table Read Protection bit
  7314                           ;	EBTR2 = OFF, Block 2 (004000-005FFFh) is not protected from table reads executed in ot
      +                          her blocks
  7315                           ;	Table Read Protection bit
  7316                           ;	EBTR3 = OFF, Block 3 (006000-007FFFh) is not protected from table reads executed in ot
      +                          her blocks
  7317  30000C                     	org	3145740
  7318  30000C  0F                 	db	15
  7319                           
  7320                           ;Config register CONFIG7H @ 0x30000D
  7321                           ;	Boot Block Table Read Protection bit
  7322                           ;	EBTRB = OFF, Boot block (000000-0007FFh) is not protected from table reads executed in
      +                           other blocks
  7323  30000D                     	org	3145741
  7324  30000D  40                 	db	64
  7325                           tosu	equ	0xFFF
  7326                           tosh	equ	0xFFE
  7327                           tosl	equ	0xFFD
  7328                           stkptr	equ	0xFFC
  7329                           pclatu	equ	0xFFB
  7330                           pclath	equ	0xFFA
  7331                           pcl	equ	0xFF9
  7332                           tblptru	equ	0xFF8
  7333                           tblptrh	equ	0xFF7
  7334                           tblptrl	equ	0xFF6
  7335                           tablat	equ	0xFF5
  7336                           prodh	equ	0xFF4
  7337                           prodl	equ	0xFF3
  7338                           indf0	equ	0xFEF
  7339                           postinc0	equ	0xFEE
  7340                           postdec0	equ	0xFED
  7341                           preinc0	equ	0xFEC
  7342                           plusw0	equ	0xFEB
  7343                           fsr0h	equ	0xFEA
  7344                           fsr0l	equ	0xFE9
  7345                           wreg	equ	0xFE8
  7346                           indf1	equ	0xFE7
  7347                           postinc1	equ	0xFE6
  7348                           postdec1	equ	0xFE5
  7349                           preinc1	equ	0xFE4
  7350                           plusw1	equ	0xFE3
  7351                           fsr1h	equ	0xFE2
  7352                           fsr1l	equ	0xFE1
  7353                           bsr	equ	0xFE0
  7354                           indf2	equ	0xFDF
  7355                           postinc2	equ	0xFDE
  7356                           postdec2	equ	0xFDD
  7357                           preinc2	equ	0xFDC
  7358                           plusw2	equ	0xFDB
  7359                           fsr2h	equ	0xFDA
  7360                           fsr2l	equ	0xFD9
  7361                           status	equ	0xFD8

Data Sizes:
    Strings     3
    Constant    0
    Data        534
    BSS         92
    Persistent  0
    Stack       0

Auto Spaces:
    Space          Size  Autos    Used
    COMRAM           95     93      95
    BANK0           160     19     115
    BANK1           256      0       0
    BANK2           256      0       0
    BANK3           256      0       0
    BANK4           256      0       0
    BANK5           256      0       0
    BANK6           256      0       0
    BANK7           256      0       0

Pointer List with Targets:

    strlen@s	PTR const unsigned char  size(2) Largest target is 32
		 -> dbuf(BANK0[32]), 

    strlen@a	PTR const unsigned char  size(2) Largest target is 32
		 -> dbuf(BANK0[32]), 

    fputs@s	PTR const unsigned char  size(2) Largest target is 32
		 -> dbuf(BANK0[32]), 

    fputs@fp	PTR struct _IO_FILE size(2) Largest target is 7
		 -> sprintf@f(BANK0[6]), 

    fputc@fp.buffer	PTR unsigned char  size(2) Largest target is 23
		 -> buffer1(BANK0[23]), 

    fputc@fp	PTR struct _IO_FILE size(2) Largest target is 7
		 -> sprintf@f(BANK0[6]), 

    vfprintf@ap	PTR PTR void  size(2) Largest target is 2
		 -> sprintf@ap(BANK0[2]), 

    vfprintf@fp	PTR struct _IO_FILE size(2) Largest target is 7
		 -> sprintf@f(BANK0[6]), 

    vfprintf@fmt	PTR const unsigned char  size(2) Largest target is 3
		 -> STR_4(CODE[3]), STR_3(CODE[3]), STR_2(CODE[3]), STR_1(CODE[3]), 

    vfprintf@cfmt	PTR unsigned char  size(2) Largest target is 3
		 -> STR_4(CODE[3]), STR_3(CODE[3]), STR_2(CODE[3]), STR_1(CODE[3]), 

    vfpfcnvrt@fp	PTR struct _IO_FILE size(2) Largest target is 7
		 -> sprintf@f(BANK0[6]), 

    vfpfcnvrt@ap	PTR PTR void  size(2) Largest target is 2
		 -> sprintf@ap(BANK0[2]), 

    vfpfcnvrt@fmt	PTR PTR unsigned char  size(2) Largest target is 2
		 -> vfprintf@cfmt(COMRAM[2]), 

    dtoa@fp	PTR struct _IO_FILE size(2) Largest target is 7
		 -> sprintf@f(BANK0[6]), 

    pad@fp	PTR struct _IO_FILE size(2) Largest target is 7
		 -> sprintf@f(BANK0[6]), 

    pad@buf	PTR unsigned char  size(2) Largest target is 32
		 -> dbuf(BANK0[32]), 

    sprintf@fmt	PTR const unsigned char  size(2) Largest target is 3
		 -> STR_4(CODE[3]), STR_3(CODE[3]), STR_2(CODE[3]), STR_1(CODE[3]), 

    sprintf@s	PTR unsigned char  size(2) Largest target is 23
		 -> buffer1(BANK0[23]), 

    sprintf@ap	PTR void [1] size(2) Largest target is 2
		 -> ?_sprintf(COMRAM[2]), 

    S861_IO_FILE$buffer	PTR unsigned char  size(2) Largest target is 23
		 -> buffer1(BANK0[23]), 

    f.buffer	PTR unsigned char  size(2) Largest target is 23
		 -> buffer1(BANK0[23]), 

    LCD_Cadena@dato	PTR const unsigned char  size(2) Largest target is 23
		 -> buffer1(BANK0[23]), 


Critical Paths under _main in COMRAM

    _cancion1->_sprintf
    _tocar_nota->___fltol
    _sprintf->_vfprintf
    _vfprintf->_vfpfcnvrt
    _vfpfcnvrt->_dtoa
    _dtoa->_pad
    _pad->_fputs
    _fputs->_fputc
    _abs->___aomod
    _silencio->___fltol
    ___fltol->___fldiv
    ___flsub->___fldiv
    ___fldiv->___xxtofl
    ___flmul->___wmul
    ___fleq->___wmul
    _LCD_XY->_LCD_Comando
    _LCD_Cadena->_LCD_Data
    _P1->_LCD_Comando
    _P1->_LCD_Data
    _LCD_Init->_LCD_Comando

Critical Paths under _main in BANK0

    _main->_cancion1
    _cancion1->_sprintf

Critical Paths under _main in BANK1

    None.

Critical Paths under _main in BANK2

    None.

Critical Paths under _main in BANK3

    None.

Critical Paths under _main in BANK4

    None.

Critical Paths under _main in BANK5

    None.

Critical Paths under _main in BANK6

    None.

Critical Paths under _main in BANK7

    None.

Call Graph Tables:

 ---------------------------------------------------------------------------------
 (Depth) Function   	        Calls       Base Space   Used Autos Params    Refs
 ---------------------------------------------------------------------------------
 (0) _main                                                 5     0      5   30259
                                             14 BANK0      5     0      5
                           _LCD_Init
                                 _P1
                           _cancion1
                             _confT0
 ---------------------------------------------------------------------------------
 (1) _confT0                                               0     0      0       0
 ---------------------------------------------------------------------------------
 (1) _cancion1                                             6     6      0   30127
                                              8 BANK0      6     6      0
                         _LCD_Cadena
                        _LCD_Comando
                           _LCD_Data
                             _LCD_XY
                             ___fleq
                            ___flmul
                            ___fltol
                             ___wmul
                           _silencio
                            _sprintf
                         _tocar_nota
 ---------------------------------------------------------------------------------
 (2) _tocar_nota                                          13     7      6    7092
                                             49 COMRAM    13     7      6
                            ___fldiv
                            ___flmul (ARG)
                            ___flsub
                            ___fltol
                             ___wmul (ARG)
                           ___xxtofl
 ---------------------------------------------------------------------------------
 (2) _sprintf                                             16    10      6    6912
                                             87 COMRAM     6     0      6
                                              0 BANK0      8     8      0
                           _vfprintf
 ---------------------------------------------------------------------------------
 (3) _vfprintf                                             8     2      6    6105
                                             79 COMRAM     8     2      6
                          _vfpfcnvrt
 ---------------------------------------------------------------------------------
 (4) _vfpfcnvrt                                           42    36      6    5751
                                             63 COMRAM    16    10      6
                               _dtoa
                              _fputc
 ---------------------------------------------------------------------------------
 (5) _dtoa                                                36    26     10    4358
                                             27 COMRAM    36    26     10
                            ___aodiv
                            ___aomod
                                _abs
                                _pad
 ---------------------------------------------------------------------------------
 (6) _pad                                                 11     5      6    2709
                                             16 COMRAM    11     5      6
                              _fputc
                              _fputs
                             _strlen
 ---------------------------------------------------------------------------------
 (7) _strlen                                               4     2      2     166
                                              0 COMRAM     4     2      2
 ---------------------------------------------------------------------------------
 (7) _fputs                                                7     3      4    1235
                                              9 COMRAM     7     3      4
                              _fputc
 ---------------------------------------------------------------------------------
 (5) _fputc                                                9     5      4     834
                                              0 COMRAM     9     5      4
                              _putch
 ---------------------------------------------------------------------------------
 (6) _putch                                                1     1      0       0
 ---------------------------------------------------------------------------------
 (6) _abs                                                  4     2      2     142
                                             18 COMRAM     4     2      2
                            ___aomod (ARG)
 ---------------------------------------------------------------------------------
 (6) ___aomod                                             18     2     16     448
                                              0 COMRAM    18     2     16
 ---------------------------------------------------------------------------------
 (6) ___aodiv                                             26    10     16     452
                                              0 COMRAM    26    10     16
 ---------------------------------------------------------------------------------
 (2) _silencio                                            11     5      6    7092
                                             49 COMRAM    11     5      6
                            ___fldiv
                            ___flmul (ARG)
                            ___flsub
                            ___fltol
                             ___wmul (ARG)
                           ___xxtofl
 ---------------------------------------------------------------------------------
 (3) ___xxtofl                                            14    10      4     746
                                              0 COMRAM    14    10      4
 ---------------------------------------------------------------------------------
 (3) ___fltol                                             10     6      4     989
                                             39 COMRAM    10     6      4
                            ___fldiv (ARG)
                            ___flmul (ARG)
                             ___wmul (ARG)
                           ___xxtofl (ARG)
 ---------------------------------------------------------------------------------
 (3) ___flsub                                              8     0      8    2737
                                             39 COMRAM     8     0      8
                            ___fladd
                            ___fldiv (ARG)
 ---------------------------------------------------------------------------------
 (4) ___fladd                                             16     8      8    2262
                                              0 COMRAM    16     8      8
 ---------------------------------------------------------------------------------
 (3) ___fldiv                                             25    17      8    2159
                                             14 COMRAM    25    17      8
                           ___xxtofl (ARG)
 ---------------------------------------------------------------------------------
 (2) ___wmul                                               6     2      4    2075
                                              0 COMRAM     6     2      4
 ---------------------------------------------------------------------------------
 (2) ___flmul                                             25    17      8    2200
                                              6 COMRAM    25    17      8
                             ___wmul (ARG)
 ---------------------------------------------------------------------------------
 (2) ___fleq                                              12     4      8     950
                                              6 COMRAM    12     4      8
                             ___wmul (ARG)
 ---------------------------------------------------------------------------------
 (2) _LCD_XY                                               4     0      4    1934
                                              1 COMRAM     4     0      4
                        _LCD_Comando
 ---------------------------------------------------------------------------------
 (2) _LCD_Cadena                                           2     0      2     393
                                              1 COMRAM     2     0      2
                           _LCD_Data
 ---------------------------------------------------------------------------------
 (1) _P1                                                   0     0      0      88
                        _LCD_Comando
                           _LCD_Data
 ---------------------------------------------------------------------------------
 (2) _LCD_Data                                             1     1      0      44
                                              0 COMRAM     1     1      0
 ---------------------------------------------------------------------------------
 (1) _LCD_Init                                             1     1      0      44
                                              1 COMRAM     1     1      0
                        _LCD_Comando
 ---------------------------------------------------------------------------------
 (3) _LCD_Comando                                          1     1      0      44
                                              0 COMRAM     1     1      0
 ---------------------------------------------------------------------------------
 Estimated maximum stack depth 7
 ---------------------------------------------------------------------------------

 Call Graph Graphs:

 _main (ROOT)
   _LCD_Init
     _LCD_Comando
   _P1
     _LCD_Comando
     _LCD_Data
   _cancion1
     _LCD_Cadena
       _LCD_Data
     _LCD_Comando
     _LCD_Data
     _LCD_XY
       _LCD_Comando
     ___fleq
       ___wmul (ARG)
     ___flmul
       ___wmul (ARG)
     ___fltol
       ___fldiv (ARG)
         ___xxtofl (ARG)
       ___flmul (ARG)
       ___wmul (ARG)
       ___xxtofl (ARG)
     ___wmul
     _silencio
       ___fldiv
       ___flmul (ARG)
       ___flsub (ARG)
         ___fladd
         ___fldiv (ARG)
       ___fltol (ARG)
       ___wmul (ARG)
       ___xxtofl (ARG)
     _sprintf
       _vfprintf
         _vfpfcnvrt
           _dtoa
             ___aodiv
             ___aomod
             _abs
               ___aomod (ARG)
             _pad
               _fputc
                 _putch
               _fputs
                 _fputc
               _strlen
           _fputc
     _tocar_nota
       ___fldiv
       ___flmul (ARG)
       ___flsub (ARG)
       ___fltol (ARG)
       ___wmul (ARG)
       ___xxtofl (ARG)
   _confT0

 Address spaces:
Name               Size   Autos  Total    Cost      Usage
BIGRAM             7FF      0     210      21       25.8%
EEDATA             100      0       0       0        0.0%
BITBANK7           100      0       0      18        0.0%
BANK7              100      0       0      19        0.0%
BITBANK6           100      0       0      16        0.0%
BANK6              100      0       0      17        0.0%
BITBANK5           100      0       0      14        0.0%
BANK5              100      0       0      15        0.0%
BITBANK4           100      0       0      12        0.0%
BANK4              100      0       0      13        0.0%
BITBANK3           100      0       0      10        0.0%
BANK3              100      0       0      11        0.0%
BITBANK2           100      0       0       8        0.0%
BANK2              100      0       0       9        0.0%
BITBANK1           100      0       0       6        0.0%
BANK1              100      0       0       7        0.0%
BITBANK0            A0      0       0       4        0.0%
BANK0               A0     13      73       5       71.9%
BITCOMRAM           5F      0       0       0        0.0%
COMRAM              5F     5D      5F       1      100.0%
BITSFR               0      0       0     200        0.0%
SFR                  0      0       0     200        0.0%
STACK                0      0       0       2        0.0%
NULL                 0      0       0       0        0.0%
ABS                  0      0      D2      20        0.0%
DATA                 0      0     2E2       3        0.0%
CODE                 0      0       0       0        0.0%


Microchip Technology PIC18 Macro Assembler V2.32 build 20210201212658 
Symbol Table                                                                                   Mon Nov 08 12:33:55 2021

           ___fldiv@aexp 0027             ___fldiv@bexp 0026                        _a 007E  
                      _b 007C                        _f 0082                        _i 0080  
                      _k 00CF                        _l 00CD                        _s 007A  
           ___fldiv@sign 001F             ?_LCD_Comando 0001                       l51 2E1E  
                     l61 268C                       _P1 2D82                       l70 27D2  
                     l71 27F2                       l63 26B2                       l55 2632  
                     l56 2650                       l73 2800                       l58 265E  
                     l75 2826                       l67 27A6                       l59 267E  
                     l68 27C4                       l78 31A2      ___wmul@multiplicand 0003  
                    ?_P1 0001                      l102 0EDC                      l130 2FDC  
                    l141 30DE                      l127 2CD6                      l135 3144  
                    l144 2F3A                      l147 316A                      l261 253E  
                    l406 2D80                      l274 298A                      l444 2A90  
                    l701 12B6                      l702 12A4                      l802 225A  
                    l731 19C0                      l740 1A06                      l717 3022  
                    l805 23B6                      l901 309E                      l742 1A7E  
                    l734 1984                      l743 1A6C                      l816 234E  
                    l904 30A6                      l761 1462                      l729 1B60  
                    l809 22F2                      l825 2F8C                      l770 16D0  
                    l771 16BE                      l675 10CC                      l692 11E6  
                    l684 139C                      l676 10BA                      l916 2B5A  
                    l924 3066                      l852 2BA0                      l765 17C6  
                    l677 1080                      l933 3114                      l927 31AA  
                    l855 2BE2                      l863 1C02                      l768 1658  
                    l857 2C1C                      l865 1C0A                      l778 1788  
                    l890 2202                      l883 1E3E                      l896 2EDA  
                    l897 2EE2                      _abs 3068                      _pad 2B5C  
                    _vel 00D1                      wreg 000FE8             ___flmul@aexp 0018  
           ___flmul@bexp 0019             ___flmul@sign 0013             ___flmul@temp 001E  
           ___flmul@prod 001A                     ??_P1 0002             ___fltol@exp1 0031  
                   ?_abs 0013                     l2101 2AA4                     l2103 2AB6  
                   l2201 2934                     l2105 2AC0                     l2113 3024  
                   l2121 30E0                     l3003 16E0                     l3011 1728  
                   l2131 23B8                     l2203 293A                     l2107 2ADE  
                   l2115 3030                     l2123 30EC                     l2211 2B5C  
                   l3021 179C                     l3013 1742                     l3005 16EC  
                   l2301 0EEA                     l2141 23FC                     l2133 23BC  
                   l2205 294A                     l2109 2B14                     l2117 3042  
                   l2125 30F0                     l2221 2BAC                     l2213 2B6A  
                   l3101 0A82                     l3023 17AA                     l3015 1756  
                   l3007 16FA                     l2311 0F2A                     l2303 0EF8  
                   l2151 2452                     l2143 241C                     l2135 23CA  
                   l2207 296A                     l2119 3046                     l2127 3108  
                   l2223 2BC0                     l2215 2B7E                     l3111 0B16  
                   l3103 0A96                     l3201 2C42                     l3041 2D54  
                   l3033 2CD8                     l3025 17AC                     l3017 1770  
                   l3009 1724                     l2401 10EA                     l2321 0F5C  
                   l2313 0F2C                     l2305 0EFA                     l2161 24D4  
                   l2153 2466                     l2145 2420                     l2137 23EA  
                   l2233 3068                     l2225 2BC4                     l2217 2B8C  
                   l2241 1BAA                     l3121 0B82                     l3105 0A9C  
                   l3113 0B52                     l3211 2C6C                     l3203 2C48  
                   l3043 2D78                     l3035 2D06                     l3019 178C  
                   l3027 17B2                     l2411 112A                     l2331 0F84  
                   l2323 0F5E                     l2307 0F0A                     l2315 0F34  
                   l2171 251E                     l2163 24D6                     l2155 2474  
                   l2147 242C                     l2139 23EE                     l2235 3082  
                   l2227 2BF0                     l2219 2B98                     l2251 1C12  
                   l2243 1BCA                     l3131 0C16                     l3123 0B9E  
                   l3115 0B58                     l3107 0AB0                     l3051 0806  
                   l3221 2C90                     l3213 2C74                     l3205 2C58  
                   l3045 2D7E                     l3037 2D16                     l3029 17B6  
                   l2421 1154                     l2413 1136                     l2405 10FE  
                   l2341 0FBE                     l2333 0F94                     l2325 0F64  
                   l2317 0F44                     l2309 0F1A                     l2165 24E8  
                   l2157 2486                     l2149 244A                     l2181 285A  
                   l2229 2C04                     l2261 1C48                     l2253 1C24  
                   l2245 1BDA                     l2237 1B62                     l2501 2050  
                   l3141 0C6C                     l3133 0C2A                     l3125 0BF0  
                   l3117 0B5E                     l3109 0AB6                     l3061 0846  
                   l3231 2CB4                     l3223 2C98                     l3215 2C7C  
                   l3207 2C5E                     l3039 2D44                     l2431 11C6  
                   l2415 113A                     l2407 110E                     l2423 115A  
                   l2351 0FEA                     l2343 0FD0                     l2335 0FA4  
                   l2327 0F72                     l2319 0F4A                     l2159 24B4  
                   l2167 24EE                     l2191 28B2                     l2183 285E  
                   l2175 2828                     l2263 1C4E                     l2271 1D40  
                   l2255 1C32                     l2247 1BDC                     l2239 1B82  
                   l2511 20BC                     l2503 2074                     l3151 0D78  
                   l3143 0C80                     l3135 0C46                     l3127 0BFE  
                   l3071 08D2                     l3063 0898                     l3119 0B68  
                   l3233 2CBA                     l3225 2C9E                     l3217 2C82  
                   l3209 2C66                     l3049 2D82                     l2441 1220  
                   l2425 1180                     l2433 11D6                     l2417 1148  
                   l2409 111C                     l2361 0FFE                     l2353 0FEE  
                   l2345 0FDE                     l2337 0FA6                     l2329 0F74  
                   l2169 24FE                     l2193 28C6                     l2185 286C  
                   l2177 282C                     l2273 1D5A                     l2281 1DBA  
                   l2265 1CD0                     l2257 1C38                     l2249 1BF6  
                   l2521 2184                     l2513 20E0                     l2505 2082  
                   l3161 0DCE                     l3153 0D86                     l3145 0C86  
                   l3137 0C52                     l3129 0C0C                     l3081 0928  
                   l3073 08EE                     l3065 08A6                     l3057 0810  
                   l3235 2CC2                     l3227 2CA6                     l3219 2C8A  
                   l2611 17F4                     l2603 17C8                     l2451 1250  
                   l2443 122A                     l2435 11FC                     l2427 11B4  
                   l2419 114A                     l2371 1012                     l2363 1002  
                   l2355 0FF2                     l2347 0FE2                     l2339 0FAE  
                   l2195 28D4                     l2187 288C                     l2179 283A  
                   l2099 2A92                     l2291 1DFE                     l2283 1DCC  
                   l2275 1D78                     l2267 1CD6                     l2259 1C40  
                   l2531 21C0                     l2523 2192                     l2515 2128  
                   l2507 2094                     l3171 0E0E                     l3163 0DDA  
                   l3155 0D94                     l3147 0CE6                     l3139 0C66  
                   l3091 0A2E                     l3083 092E                     l3075 08FA  
                   l3067 08B4                     l3059 082C                     l3251 317C  
                   l3243 316C                     l3237 2CCA                     l3229 2CAC  
                   l2701 1A28                     l2621 182E                     l2613 1804  
                   l2605 17D4                     l2461 1278                     l2453 1254  
                   l2445 1238                     l2437 120C                     l2429 11B6  
                   l2381 104C                     l2373 1016                     l2365 1006  
                   l2357 0FF6                     l2349 0FE6                     l2197 2902  
                   l2189 28AA                     l2293 1E06                     l2285 1DDA  
                   l2277 1D92                     l2269 1CDC                     l2525 21A6  
                   l2509 2098                     l3173 0E6E                     l3165 0DEE  
                   l3157 0D9E                     l3149 0D26                     l3181 0EBC  
                   l3093 0A3C                     l3085 098E                     l3077 090E  
                   l3069 08BE                     l3253 3180                     l3245 3170  
                   l2551 2FAE                     l2543 2F90                     l3239 2CD0  
                   l3191 2C2C                     l2711 1A9A                     l2703 1A36  
                   l2631 185A                     l2623 1834                     l2615 1814  
                   l2607 17E2                     l2471 12D2                     l2463 1286  
                   l2455 1264                     l2447 123A                     l2391 109E  
                   l2383 1068                     l2375 101A                     l2367 100A  
                   l2359 0FFA                     l2199 2922                     l2287 1DE0  
                   l2295 1E16                     l2279 1DAC                     l2519 2160  
                   l2535 21CC                     l3183 0EC0                     l3167 0DF4  
                   l3159 0DB2                     l3175 0EAA                     l3095 0A46  
                   l3079 0914                     l3087 09CE                     l3255 3182  
                   l3247 3174                     l2561 2FCE                     l2553 2FB0  
                   l2545 2FA2                     l3193 2C2E                     l3185 2C1E  
                   l2721 1B06                     l2713 1AA8                     l2705 1A64  
                   l2641 1894                     l2633 186A                     l2625 183A  
                   l2617 1816                     l2609 17E4                     l2481 133C  
                   l2473 12E0                     l2465 129C                     l2449 1248  
                   l2457 1266                     l2393 10AC                     l2385 1078  
                   l2369 100E                     l2377 101E                     l2289 1DF2  
                   l2537 21F0                     l2529 21B2                     l3177 0EB0  
                   l3169 0E08                     l3097 0A5A                     l3089 0A20  
                   l3249 3178                     l2563 2FD6                     l2555 2FB8  
                   l2547 2FA4                     l3195 2C30                     l3187 2C28  
                   l2571 2EF2                     l2731 1B54                     l2723 1B20  
                   l2715 1AD2                     l2643 18AA                     l2635 187A  
                   l2627 1848                     l2619 181E                     l2491 1376  
                   l2483 135C                     l2475 131A                     l2459 1274  
                   l2395 10AE                     l2387 108E                     l2379 1022  
                   l2299 0EDE                     l2811 22DC                     l2803 2294  
                   l3179 0EB8                     l3099 0A76                     l2557 2FC4  
                   l2549 2FA6                     l3197 2C32                     l3189 2C2A  
                   l2581 2F0C                     l2573 2EF6                     l2733 1B56  
                   l2725 1B3C                     l2709 1A8E                     l2717 1AD6  
                   l2661 18FE                     l2645 18BA                     l2653 18DA  
                   l2637 187C                     l2629 184A                     l2493 137C  
                   l2485 1360                     l2469 12C6                     l2477 131C  
                   l2397 10B8                     l2389 109A                     l2741 2FDE  
                   l2821 235C                     l2813 22E8                     l2805 229C  
                   l2559 2FCC                     l3199 2C34                     l2591 2F22  
                   l2583 2F0E                     l2575 2F00                     l2567 2EE6  
                   l2911 13CA                     l2903 139E                     l2727 1B40  
                   l2719 1AF0                     l2671 1950                     l2663 1918  
                   l2655 18EA                     l2647 18C2                     l2639 1884  
                   l2495 138A                     l2487 136E                     l2479 132C  
                   l2399 10DA                     l2743 2FEE                     l2831 23A4  
                   l2823 235E                     l2815 2324                     l2807 22A8  
                   l2593 2F2A                     l2585 2F16                     l2577 2F02  
                   l2569 2EEE                     l2921 1406                     l2913 13DA  
                   l2905 13AA                     l2729 1B4E                     l2681 19AC  
                   l2673 1960                     l2665 1928                     l2657 18EA  
                   l2649 18C6                     l2497 138C                     l2489 1374  
                   l2761 29F6                     l2753 29B6                     l2833 23A6  
                   l2825 2362                     l2817 2330                     l2809 22DA  
                   l2841 2E98                     l2595 2F2C                     l2587 2F18  
                   l2579 2F04                     l2931 143C                     l2923 140C  
                   l2915 13EA                     l2907 13B8                     l2691 19EC  
                   l2683 19AE                     l2675 1974                     l2667 1938  
                   l2771 2A26                     l2763 2A04                     l2755 29E0  
                   l2747 298C                     l2827 2386                     l2819 233E  
                   l2843 2EBE                     l2851 2662                     l1891 31A0  
                   l2597 2F34                     l2589 2F1C                     l2933 144C  
                   l2925 141A                     l2917 13F0                     l2909 13BA  
                   l2693 19F6                     l2685 19BE                     l2677 1982  
                   l2669 1948                     l2781 2A50                     l2773 2A30  
                   l2757 29E2                     l2749 29A2                     l2829 2396  
                   l2861 27A8                     l2837 2E82                     l2853 268E  
                   l2845 2540                     ?_pad 0011                     l2599 2F36  
                   l2871 3130                     l2951 14CE                     l2943 1496  
                   l2935 1452                     l2927 141C                     l2919 1400  
                   l2695 1A04                     l2687 19D0                     l2679 198E  
                   l2783 2A60                     l2759 29F2                     l2791 2206  
                   l2863 27D6                     l2839 2E8A                     l2855 2694  
                   l2847 2624                     l1887 318E                     l2873 313C  
                   l2961 1518                     l2953 14E6                     l2945 14A2  
                   l2937 1472                     l2929 142C                     l2689 19E6  
                   l2697 1A16                     l2785 2A70                     l2769 2A1C  
                   l2793 2216                     l2865 2802                     l2857 26B4  
                   l2881 2F5E                     l2849 2634                     l1889 3198  
                   l2891 30B4                     l2971 156E                     l2963 1528  
                   l2955 14F2                     l2947 14AC                     l2939 1482  
                   l2699 1A24                     l2787 2A80                     l2779 2A44  
                   l2795 2224                     l2867 2808                     l2859 2798  
                   l2883 2F7A                     l2875 2F3C                     l2893 30C2  
                   l2869 3116                     l2981 1612                     l2973 158A  
                   l2965 1534                     l2957 14FE                     l2949 14C2  
                   l2797 226A                     l2877 2F4E                     l2895 30C6  
                   l2887 30A8                     l2991 1668                     l2983 1620  
                   l2975 1596                     l2967 1544                     l2959 150C  
                   l2799 2280                     l2879 2F56                     l2889 30AC  
                   l2993 1676                     l2985 163E                     l2977 15B2  
                   l2969 155E                     l2897 3146                     l2995 167A  
                   l2987 1648                     l2979 15DC                     l2899 3162  
                   l2997 1688                     l2989 1656                     l2999 16B6  
                   STR_1 0801                     STR_2 0801                     STR_3 0801  
                   STR_4 0801                     u2000 1D92                     u2001 1D8E  
                   u2010 1DAC                     u2011 1DA8                     u2100 0F72  
                   u2020 1DBA                     u2101 0F6E                     u2021 1DB6  
                   u2110 0F84                     u2030 1DCC                     u2111 0F80  
                   u2031 1DC8                     u3000 13DA                     u2200 10CC  
                   u2120 0F94                     u2040 1DDA                     u3001 13D6  
                   u2201 10C8                     u2121 0F90                     u2041 1DD6  
                   u3010 141A                     u2210 10DA                     u2130 0FD0  
                   u2050 1DF2                     u3011 1416                     u2211 10D6  
                   u2131 0FCC                     u2051 1DEE                     u3100 16B6  
                   u3020 142C                     u2300 1238                     u2220 10EA  
                   u2140 0FDE                     u2060 0EF8                     u3101 16B2  
                   u3021 1428                     u2301 1234                     u2221 10E6  
                   u2141 0FDA                     u2061 0EF4                     u3110 16CC  
                   u3030 143C                     u2310 1248                     u2230 111C  
                   u2150 104C                     u2070 0F0A                     u3111 16C8  
                   u3031 1438                     u2311 1244                     u2231 1118  
                   u2151 1048                     u2071 0F06                     u3120 16E0  
                   u3040 1472                     u2400 132C                     u2320 1264  
                   u2240 112A                     u2160 1064                     u2080 0F1A  
                   u3200 082C                     u3121 16DC                     u3041 146E  
                   u2401 1328                     u2321 1260                     u2241 1126  
                   u2161 105E                     u2081 0F16                     u3201 0828  
                   u3130 16FA                     u3050 1482                     u2410 133C  
                   u2330 1274                     u2250 1148                     u2170 1066  
                   u2090 0F5C                     u3210 0846                     u3131 16F6  
                   u3051 147E                     u2411 1338                     u2331 1270  
                   u2251 1144                     u2091 0F58                     u3211 0842  
                   u3140 1742                     u3060 15FC                     u2500 17F4  
                   u2420 135C                     u2340 1286                     u2260 1180  
                   u2180 108E                     u1700 2B14                     u3300 0D78  
                   u3220 0898                     u3141 173E                     u2501 17F0  
                   u2421 1358                     u2341 1282                     u2261 117C  
                   u2181 108A                     u1701 2B10                     u3301 0D74  
                   u3221 0894                     u3150 1770                     u3070 1656  
                   u2510 1804                     u2430 136E                     u2350 129C  
                   u2270 11C6                     u2190 10AC                     u1710 3066  
                   u3310 0D86                     u3230 08A6                     u3151 176C  
                   u3071 1652                     u2511 1800                     u2431 136A  
                   u2351 1298                     u2271 11C2                     u2191 10A8  
                   u1711 3062                     u3311 0D82                     u3231 08A2  
                   u3160 17AA                     u3080 1676                     u2600 19D0  
                   u2520 1848                     u2440 138A                     u2360 12B2  
                   u2280 11FC                     u1800 283A                     u1720 3108  
                   u3320 0EDC                     u3240 0A20                     u3161 17A6  
                   u3081 1672                     u3065 15F2                     u2601 19CC  
                   u2521 1844                     u2441 1386                     u2361 12AE  
                   u2281 11F8                     u1801 2836                     u1721 3104  
                   u3321 0ED8                     u3241 0A1C                     u3170 2D06  
                   u3090 1688                     u2610 19E6                     u2530 185A  
                   u2370 12C6                     u2290 120C                     u1730 23CA  
                   u1810 286C                     u2450 2074                     u3250 0A2E  
                   u3171 2D02                     u3091 1684                     u2611 19E2  
                   u2531 1856                     u2371 12C2                     u2291 1208  
                   u1731 23C6                     u1811 2868                     u2451 2070  
                   u3251 0A2A                     u3180 2D44                     u2700 1B20  
                   u2620 1A04                     u2540 186A                     u2380 12E0  
                   u1740 23FC                     u1820 28AA                     u1900 3082  
                   u2460 20BC                     u3260 0B82                     u3181 2D40  
                   u2701 1B1C                     u2621 1A00                     u2541 1866  
                   u2381 12DC                     u1741 23F8                     u1821 28A6  
                   u1901 307E                     u2461 20B8                     u3261 0B7E  
                   u3190 2D78                     u2710 1B4E                     u2630 1A24  
                   u2550 18AA                     u2390 131A                     u1830 28D4  
                   u1670 2AA4                     u1910 1B92                     u2470 20E0  
                   u3270 0B9E                     u3407 2C4E                     u3191 2D74  
                   u2711 1B4A                     u2631 1A20                     u2551 18A6  
                   u2391 1316                     u1751 2426                     u1831 28D0  
                   u1671 2AA0                     u1911 1B8C                     u2471 20DC  
                   u3271 0B9A                     u2640 1A36                     u2560 18EA  
                   u2720 29A2                     u2800 2224                     u1760 244A  
                   u1840 2902                     u1680 2AB6                     u1920 1B94  
                   u2480 2184                     u3280 0BF0                     u3417 2C60  
                   u3337 30AE                     u2641 1A32                     u2561 18E6  
                   u2721 299E                     u2801 2220                     u1761 2446  
                   u1841 28FE                     u1681 2AB2                     u2481 2180  
                   u3281 0BEC                     u2650 1A64                     u2570 1960  
                   u2490 17E2                     u2730 29D6                     u2810 2280  
                   u1770 2474                     u1850 294A                     u1690 2ADE  
                   u1930 1BAA                     u3290 0BFE                     u3507 2FA8  
                   u3427 2C6E                     u3347 2EE8                     u2651 1A60  
                   u2571 195C                     u2491 17DE                     u2811 227C  
                   u1771 2470                     u1851 2946                     u1691 2ADA  
                   u1931 1BA6                     u3291 0BFA                     u2660 1A7A  
                   u2580 1982                     u2740 2A04                     u2820 22D6  
                   u1780 24B4                     u1860 2B6A                     u1940 1BDA  
                   u2900 265E                     u3517 2FB2                     u3437 2C76  
                   u3357 2F06                     u2661 1A76                     u2581 197E  
                   u2741 2A00                     u2821 22D2                     u1781 24B0  
                   u1861 2B66                     u1941 1BD6                     u2901 265A  
                   u2670 1A8E                     u2590 19AC                     u2750 2A18  
                   u2830 2320                     u1790 24FE                     u1870 2B8C  
                   u1950 1BF6                     u2910 268C                     u3527 2FC6  
                   u3447 2C84                     u3367 2F10                     u2671 1A8A  
                   u2591 19A8                     u2751 2A14                     u2735 29CC  
                   u2831 231C                     u1791 24FA                     u1871 2B88  
                   u1951 1BF2                     u2911 2688                     u2680 1AA8  
                   u2760 2A40                     u2840 233E                     u1880 2BE2  
                   u1960 1C24                     u2920 26B2                     u3537 2FD0  
                   u3457 2C92                     u3377 2F24                     u2681 1AA4  
                   u2761 2A3C                     u2841 233A                     u1881 2BDE  
                   u1961 1C20                     u2921 26AE                     u2690 1AF0  
                   u2770 2A60                     u2850 234E                     u2930 27D2  
                   u1890 2BF0                     u1970 1C32                     u3467 2CA0  
                   u3387 2F2E                     u2691 1AEC                     u2771 2A5C  
                   u2851 234A                     u2931 27CE                     u1891 2BEC  
                   u1971 1C2E                     u2780 2A70                     u2860 235C  
                   u2940 2800                     u1980 1D5A                     u3477 2CAE  
                   u3397 2C3A                     u2781 2A6C                     u2861 2358  
                   u2941 27FC                     u1981 1D56                     u2870 2396  
                   u2790 2216                     u2950 2826                     u1990 1D78  
                   u3487 2CBC                     u2871 2392                     u2791 2212  
                   u2951 2822                     u1991 1D74                     u2960 3130  
                   u2880 23A4                     u3497 2CC4                     u2961 312C  
                   u2881 23A0                     u2970 30DE                     u2890 2EDA  
                   u2971 30DA                     u2891 2ED6                     u2980 13B8  
                   u2981 13B4                     u2990 13CA                     u2991 13C6  
                   _TMR0 000FD6                     abs@a 0013                     _dbuf 0083  
                   _main 316C                     _dtoa 1B62                     _prec 0078  
                   _nout 0074                     pad@i 0018                     pad@p 0015  
                   fsr1h 000FE2                     fsr2h 000FDA                     indf2 000FDF  
                   fsr1l 000FE1                     pad@w 001A                     fsr2l 000FD9  
                   prodh 000FF4                     prodl 000FF3                     start 0000  
        ___fldiv@new_exp 0020             ___param_bank 000000                    ??_abs 0015  
                  ??_pad 0017         __end_of_LCD_Data 2F3C         __end_of_LCD_Init 2CD8  
           LCD_Data@data 0001            ___fltol@sign1 0030          __end_of___aodiv 2540  
        __end_of___fladd 139E                    ?_main 00C8                    ?_dtoa 001C  
        __end_of___aomod 298C          __end_of___fldiv 1B62          __end_of___flmul 17C8  
        __end_of___flsub 3024          __end_of___fltol 2A92             vfpfcnvrt@fmt 0042  
                  _PORTD 000F83                    _TRISA 000F92                    _TRISB 000F93  
                  _TRISD 000F95      __size_of_LCD_Cadena 0038                    _flags 005E  
                  _fputc 2A92                    _fputs 3024                    pad@fp 0011  
                  _width 0076                    _putch 31AA                    dtoa@d 001E  
                  dtoa@i 003E                    dtoa@n 0036                    dtoa@p 0030  
                  dtoa@s 0034                    dtoa@w 0032                    tablat 000FF5  
                  status 000FD8          __end_of_sprintf 2F8E          __initialization 2E20  
           __end_of_main 318E             __end_of_dtoa 1E40                   ??_main 005E  
                 ??_dtoa 0026            __activetblptr 000001                   _ADCON1 000FC1  
                 ?_fputc 0001                   ?_fputs 000A                   ?_putch 0001  
                 _LCD_XY 3116          tocar_nota@tfrec 0034         __end_of_cancion1 0EDE  
       __end_of___xxtofl 23B8             vfprintf@cfmt 0056                   ___fleq 2CD8  
              ??___aodiv 0011                ??___fladd 0009                ??___aomod 0011  
                 ___wmul 3146                ??___fldiv 0017                ??___flmul 000F  
              ??___flsub 0030                ??___fltol 002C                   _confT0 318E  
                 _buffer 0060                   clear_0 2E6A                   isa$std 000001  
                 pad@buf 0013     __size_of_LCD_Comando 0050                   dtoa@fp 001C  
                 _strlen 30E0             __pdataBIGRAM 05F0                   fputc@c 0001  
                 fputs@c 000E                   fputs@i 000F                   fputs@s 000A  
       __end_of_silencio 2828             __mediumconst 0000                   tblptrh 000FF7  
                 tblptrl 000FF6                   tblptru 000FF8                   putch@c 0001  
       __end_of_vfprintf 2EE4                ??_sprintf 005E             ___xxtofl@arg 000B  
           ___xxtofl@exp 000A             ___xxtofl@val 0001               ___fleq@ff1 0007  
             ___fleq@ff2 000B                ?_LCD_Data 0001               __accesstop 0060  
__end_of__initialization 2E74                ?_LCD_Init 0001            ___rparam_used 000001  
             ___fltol@f1 0028             ??_LCD_Cadena 0004           __pcstackCOMRAM 0001  
           __pidataBANK0 31A4            __end_of_fputc 2B5C            __end_of_fputs 3068  
          __end_of_putch 31AC           LCD_Cadena@dato 0002               __end_of_P1 2E20  
                ??_fputc 0005                  ??_fputs 000E       __end_of_LCD_Cadena 30E0  
                ??_putch 0001               __pbssBANK0 0060                  ?_LCD_XY 0002  
                LCD_XY@x 0002                  LCD_XY@y 0004               ??_LCD_Data 0001  
             ??_LCD_Init 0002                  ?___fleq 0007                  ?___wmul 0001  
                ?_confT0 0001                  ?_strlen 0001                ?_cancion1 0001  
              ?___xxtofl 0001       __size_of_vfpfcnvrt 01B4          __size_of_LCD_XY 0030  
                __Hparam 0000            _cancion1$1176 00C2            _cancion1$1177 00C4  
                __Lparam 0000                ?_silencio 0032          __size_of___fleq 00AA  
                ___aodiv 23B8                  ___fladd 0EDE                  ___aomod 2828  
                ___fldiv 17C8                  ___flmul 139E                  ___flsub 2FDE  
                ___fltol 298C          __size_of___wmul 0026                ?_vfprintf 0050  
        __size_of_confT0 0016             __psmallconst 0800                  _cancion 05F0  
                __pcinit 2E20                  __ramtop 0800                  __ptext0 316C  
                __ptext1 318E                  __ptext2 0806                  __ptext3 2540  
                __ptext4 2F3C                  __ptext5 2E82                  __ptext6 2050  
                __ptext7 1B62                  __ptext8 2B5C                  __ptext9 30E0  
                _buffer1 00A3                _T0CONbits 000FD5          __size_of_strlen 0036  
             ??_cancion1 005E             __size_of_abs 0040             __size_of_pad 00C2  
             ??___xxtofl 0005       tocar_nota@duracion 0032           LCD_Comando@cmd 0001  
                _sprintf 2F3C     end_of_initialization 2E74                  fputc@fp 0003  
                fputs@fp 000C               ??_silencio 0038        __end_of_vfpfcnvrt 2204  
                postdec1 000FE5                  postdec2 000FDD                  postinc0 000FEE  
                postinc1 000FE6                  postinc2 000FDE               ??_vfprintf 0056  
                strlen@a 0003                  strlen@s 0001                _PORTAbits 000F80  
              _PORTBbits 000F81               _tocar_nota 2540              ___fladd@grs 0010  
          ___xxtofl@sign 0009                _TRISDbits 000F95              ___fldiv@grs 0022  
            ___fldiv@rem 001B              ___flmul@grs 0014           __end_of_LCD_XY 3146  
      __size_of_LCD_Data 0058          _tocar_nota$1174 0039        __size_of_LCD_Init 00BA  
          ??_LCD_Comando 0001           __end_of___fleq 2D82            __pidataBIGRAM 1E40  
            vfpfcnvrt@ap 0044              vfpfcnvrt@fp 0040              vfpfcnvrt@ll 0048  
         __end_of___wmul 316C           __end_of_confT0 31A4           __end_of_strlen 3116  
    start_initialization 2E20              __end_of_abs 30A8              __end_of_pad 2C1E  
               ??_LCD_XY 0006              vfprintf@fmt 0052                 ??___fleq 000F  
               ??___wmul 0005                 ??_confT0 0001              __pdataBANK0 00CD  
            ?_tocar_nota 0032                 ??_strlen 0003                ___fladd@a 0005  
              ___fladd@b 0001                ___fldiv@a 0013                ___fldiv@b 000F  
    __end_of_LCD_Comando 2FDE         silencio@duracion 0032                ___flmul@a 000B  
              ___flmul@b 0007              __pbssCOMRAM 005E                ___flsub@a 002C  
              ___flsub@b 0028            __pcstackBANK0 00BA         ___aodiv@dividend 0001  
      __size_of_cancion1 06D8        __size_of___xxtofl 01B4                 ?___aodiv 0001  
               ?___fladd 0001                 ?___aomod 0001                 ?___fldiv 000F  
       ___aodiv@quotient 0013                 ?___flmul 0007                 ?___flsub 0028  
               ?___fltol 0028        __size_of_silencio 0174        __size_of_vfprintf 0062  
            __smallconst 0800                cancion1@j 00C6                 ?_sprintf 0058  
         __size_of_fputc 00CA           __size_of_fputs 0044           __size_of_putch 0002  
            __size_of_P1 009E                 _LCD_Data 2EE4                 _LCD_Init 2C1E  
         ___wmul@product 0005                 _LATDbits 000F8C      __size_of_tocar_nota 0174  
            _LCD_Comando 2F8E                _vfpfcnvrt 2050        ___wmul@multiplier 0001  
          _silencio$1175 0039                copy_data0 2E34                copy_data1 2E58  
               __Hrparam 0000               vfprintf@ap 0054                 __Lrparam 0000  
             vfprintf@fp 0050             __Lsmallconst 0800         __size_of___aodiv 0188  
       __size_of___fladd 04C0         __size_of___aomod 0164         __size_of___fldiv 039A  
       __size_of___flmul 042A         __size_of___flsub 0046         __size_of___fltol 0106  
             ?_vfpfcnvrt 0040          ___aodiv@divisor 0009          ___aodiv@counter 0011  
               _cancion1 0806               sprintf@fmt 005A                 ___xxtofl 2204  
          silencio@tfrec 0034                 _dtoa$934 002E                 __ptext10 3024  
               __ptext11 2A92                 __ptext20 0EDE                 __ptext12 31AA  
               __ptext21 17C8                 __ptext13 3068                 __ptext30 2F8E  
               __ptext22 3146                 __ptext14 2828                 __ptext23 139E  
               __ptext15 23B8                 __ptext24 2CD8                 __ptext16 26B4  
               __ptext25 3116                 __ptext17 2204                 __ptext26 30A8  
               __ptext18 298C                 __ptext27 2D82                 __ptext19 2FDE  
               __ptext28 2EE4                 __ptext29 2C1E         __size_of_sprintf 0052  
          __size_of_main 0022            __size_of_dtoa 02DE               _LCD_Cadena 30A8  
               _silencio 26B4                 isa$xinst 000000      tocar_nota@duracion2 003D  
               _vfprintf 2E82                 main@argc 00C8                 main@argv 00CA  
           ??_tocar_nota 0038         ___aomod@dividend 0001               _INTCONbits 000FF2  
              sprintf@ap 00BA       __end_of_tocar_nota 26B4          ___aomod@divisor 0009  
            ??_vfpfcnvrt 0046          ___aomod@counter 0011                 sprintf@f 00BC  
               sprintf@s 0058            ___fladd@signs 000D             ___aodiv@sign 0012  
           ___fladd@aexp 000E             ___fladd@bexp 000F             ___aomod@sign 0012  
            ?_LCD_Cadena 0002  
