

Microchip MPLAB XC8 Assembler V2.32 build 20210201212658 
                                                                                               Wed Nov 17 02:30:21 2021

Microchip MPLAB XC8 C Compiler v2.32 (Free license) build 20210201212658 Og1 
     1                           	processor	18F4550
     2                           	fnconf	rparam,??,?,0
     3                           	pagewidth 120
     4                           	opt	flic
     5                           	psect	idataBIGRAM,global,class=CODE,delta=1,noexec
     6                           	psect	idataBANK0,global,class=CODE,delta=1,noexec
     7                           	psect	smallconst,global,reloc=2,class=SMALLCONST,delta=1,noexec
     8                           	psect	cinit,global,reloc=2,class=CODE,delta=1
     9                           	psect	bssCOMRAM,global,class=COMRAM,space=1,delta=1,lowdata,noexec
    10                           	psect	bssBANK0,global,class=BANK0,space=1,delta=1,lowdata,noexec
    11                           	psect	dataBANK0,global,class=BANK0,space=1,delta=1,lowdata,noexec
    12                           	psect	dataBIGRAM,global,class=BIGRAM,space=1,delta=1,noexec
    13                           	psect	cstackBANK0,global,class=BANK0,space=1,delta=1,lowdata,noexec
    14                           	psect	cstackCOMRAM,global,class=COMRAM,space=1,delta=1,lowdata,noexec
    15                           	psect	text0,global,reloc=2,class=CODE,delta=1
    16                           	psect	text1,global,reloc=2,class=CODE,delta=1
    17                           	psect	text2,global,reloc=2,class=CODE,delta=1
    18                           	psect	text3,global,reloc=2,class=CODE,delta=1
    19                           	psect	text4,global,reloc=2,class=CODE,delta=1
    20                           	psect	text5,global,reloc=2,class=CODE,delta=1,group=3
    21                           	psect	text6,global,reloc=2,class=CODE,delta=1,group=1
    22                           	psect	text7,global,reloc=2,class=CODE,delta=1,group=1
    23                           	psect	text8,global,reloc=2,class=CODE,delta=1,group=1
    24                           	psect	text9,global,reloc=2,class=CODE,delta=1,group=1
    25                           	psect	text10,global,reloc=2,class=CODE,delta=1,group=3
    26                           	psect	text11,global,reloc=2,class=CODE,delta=1,group=3
    27                           	psect	text12,global,reloc=2,class=CODE,delta=1,group=3
    28                           	psect	text13,global,reloc=2,class=CODE,delta=1,group=3
    29                           	psect	text14,global,reloc=2,class=CODE,delta=1,group=3
    30                           	psect	text15,global,reloc=2,class=CODE,delta=1,group=2
    31                           	psect	text16,global,reloc=2,class=CODE,delta=1,group=2
    32                           	psect	text17,global,reloc=2,class=CODE,delta=1
    33                           	psect	text18,global,reloc=2,class=CODE,delta=1,group=2
    34                           	psect	text19,global,reloc=2,class=CODE,delta=1,group=2
    35                           	psect	text20,global,reloc=2,class=CODE,delta=1,group=2
    36                           	psect	text21,global,reloc=2,class=CODE,delta=1,group=2
    37                           	psect	text22,global,reloc=2,class=CODE,delta=1,group=2
    38                           	psect	text23,global,reloc=2,class=CODE,delta=1
    39                           	psect	text24,global,reloc=2,class=CODE,delta=1,group=2
    40                           	psect	text25,global,reloc=2,class=CODE,delta=1,group=2
    41                           	psect	text26,global,reloc=2,class=CODE,delta=1,group=2
    42                           	psect	text27,global,reloc=2,class=CODE,delta=1,group=2
    43                           	psect	text28,global,reloc=2,class=CODE,delta=1
    44                           	psect	text29,global,reloc=2,class=CODE,delta=1
    45                           	psect	text30,global,reloc=2,class=CODE,delta=1
    46                           	psect	text31,global,reloc=2,class=CODE,delta=1
    47                           	psect	text32,global,reloc=2,class=CODE,delta=1
    48                           	psect	text33,global,reloc=2,class=CODE,delta=1
    49                           	psect	intsave_regs,global,class=BIGRAM,space=1,delta=1,noexec
    50                           	psect	rparam,global,class=COMRAM,space=1,delta=1,noexec
    51                           	psect	idloc,global,abs,ovrld,class=IDLOC,space=5,delta=1,noexec
    52                           	psect	config,global,abs,ovrld,class=CONFIG,space=4,delta=1,noexec
    53  0000                     
    54                           ; Version 2.20
    55                           ; Generated 12/02/2020 GMT
    56                           ; 
    57                           ; Copyright © 2020, Microchip Technology Inc. and its subsidiaries ("Microchip")
    58                           ; All rights reserved.
    59                           ; 
    60                           ; This software is developed by Microchip Technology Inc. and its subsidiaries ("Microch
      +                          ip").
    61                           ; 
    62                           ; Redistribution and use in source and binary forms, with or without modification, are
    63                           ; permitted provided that the following conditions are met:
    64                           ; 
    65                           ;     1. Redistributions of source code must retain the above copyright notice, this lis
      +                          t of
    66                           ;        conditions and the following disclaimer.
    67                           ; 
    68                           ;     2. Redistributions in binary form must reproduce the above copyright notice, this 
      +                          list
    69                           ;        of conditions and the following disclaimer in the documentation and/or other
    70                           ;        materials provided with the distribution.
    71                           ; 
    72                           ;     3. Microchip's name may not be used to endorse or promote products derived from th
      +                          is
    73                           ;        software without specific prior written permission.
    74                           ; 
    75                           ; THIS SOFTWARE IS PROVIDED BY MICROCHIP "AS IS" AND ANY EXPRESS OR IMPLIED WARRANTIES,
    76                           ; INCLUDING, BUT NOT LIMITED TO, THE IMPLIED WARRANTIES OF MERCHANTABILITY AND FITNESS F
      +                          OR
    77                           ; PURPOSE ARE DISCLAIMED.  IN NO EVENT SHALL MICROCHIP BE LIABLE FOR ANY DIRECT, INDIREC
      +                          T,
    78                           ; INCIDENTAL, SPECIAL, EXEMPLARY, OR CONSEQUENTIAL DAMAGES (INCLUDING BUT NOT LIMITED TO
    79                           ; PROCUREMENT OF SUBSTITUTE GOODS OR SERVICES; LOSS OF USE, DATA OR PROFITS; OR BUSINESS
    80                           ; INTERRUPTION) HOWSOEVER CAUSED AND ON ANY THEORY OF LIABILITY, WHETHER IN CONTRACT, ST
      +                          RICT
    81                           ; LIABILITY, OR TORT (INCLUDING NEGLIGENCE OR OTHERWISE) ARISING IN ANY WAY OUT OF THE U
      +                          SE OF
    82                           ; THIS SOFTWARE, EVEN IF ADVISED OF THE POSSIBILITY OF SUCH DAMAGE.
    83                           ; 
    84                           ; 
    85                           ; Code-generator required, PIC18F4550 Definitions
    86                           ; 
    87                           ; SFR Addresses
    88  0000                     
    89                           	psect	idataBIGRAM
    90  001E46                     __pidataBIGRAM:
    91                           	callstack 0
    92                           
    93                           ;initializer for _cancion
    94  001E46  0000               	dw	0
    95  001E48  3F80               	dw	16256
    96  001E4A  2D0E               	dw	11534
    97  001E4C  4042               	dw	16450
    98  001E4E  0000               	dw	0
    99  001E50  3F80               	dw	16256
   100  001E52  0000               	dw	0
   101  001E54  3F80               	dw	16256
   102  001E56  2D0E               	dw	11534
   103  001E58  4042               	dw	16450
   104  001E5A  0000               	dw	0
   105  001E5C  3F80               	dw	16256
   106  001E5E  0000               	dw	0
   107  001E60  3F80               	dw	16256
   108  001E62  2D0E               	dw	11534
   109  001E64  4042               	dw	16450
   110  001E66  0000               	dw	0
   111  001E68  3F80               	dw	16256
   112  001E6A  0000               	dw	0
   113  001E6C  3F40               	dw	16192
   114  001E6E  7AE1               	dw	31457
   115  001E70  4074               	dw	16500
   116  001E72  0000               	dw	0
   117  001E74  3F80               	dw	16256
   118  001E76  0000               	dw	0
   119  001E78  3E80               	dw	16000
   120  001E7A  3333               	dw	13107
   121  001E7C  4023               	dw	16419
   122  001E7E  0000               	dw	0
   123  001E80  3F80               	dw	16256
   124  001E82  0000               	dw	0
   125  001E84  3F80               	dw	16256
   126  001E86  2D0E               	dw	11534
   127  001E88  4042               	dw	16450
   128  001E8A  0000               	dw	0
   129  001E8C  3F80               	dw	16256
   130  001E8E  0000               	dw	0
   131  001E90  3F40               	dw	16192
   132  001E92  7AE1               	dw	31457
   133  001E94  4074               	dw	16500
   134  001E96  0000               	dw	0
   135  001E98  3F80               	dw	16256
   136  001E9A  0000               	dw	0
   137  001E9C  3E80               	dw	16000
   138  001E9E  4396               	dw	17302
   139  001EA0  4023               	dw	16419
   140  001EA2  0000               	dw	0
   141  001EA4  3F80               	dw	16256
   142  001EA6  0000               	dw	0
   143  001EA8  4000               	dw	16384
   144  001EAA  2D0E               	dw	11534
   145  001EAC  4042               	dw	16450
   146  001EAE  0000               	dw	0
   147  001EB0  3F80               	dw	16256
   148  001EB2  0000               	dw	0
   149  001EB4  3F80               	dw	16256
   150  001EB6  CAC1               	dw	51905
   151  001EB8  4001               	dw	16385
   152  001EBA  0000               	dw	0
   153  001EBC  3F80               	dw	16256
   154  001EBE  0000               	dw	0
   155  001EC0  3F80               	dw	16256
   156  001EC2  CAC1               	dw	51905
   157  001EC4  4001               	dw	16385
   158  001EC6  0000               	dw	0
   159  001EC8  3F80               	dw	16256
   160  001ECA  0000               	dw	0
   161  001ECC  3F80               	dw	16256
   162  001ECE  CAC1               	dw	51905
   163  001ED0  4001               	dw	16385
   164  001ED2  0000               	dw	0
   165  001ED4  3F80               	dw	16256
   166  001ED6  0000               	dw	0
   167  001ED8  3F40               	dw	16192
   168  001EDA  9BA6               	dw	39846
   169  001EDC  3FF4               	dw	16372
   170  001EDE  0000               	dw	0
   171  001EE0  3F80               	dw	16256
   172  001EE2  0000               	dw	0
   173  001EE4  3E80               	dw	16000
   174  001EE6  4396               	dw	17302
   175  001EE8  4023               	dw	16419
   176  001EEA  0000               	dw	0
   177  001EEC  3F80               	dw	16256
   178  001EEE  0000               	dw	0
   179  001EF0  3F80               	dw	16256
   180  001EF2  0A3D               	dw	2621
   181  001EF4  4067               	dw	16487
   182  001EF6  0000               	dw	0
   183  001EF8  3F80               	dw	16256
   184  001EFA  0000               	dw	0
   185  001EFC  3F40               	dw	16192
   186  001EFE  7AE1               	dw	31457
   187  001F00  4074               	dw	16500
   188  001F02  0000               	dw	0
   189  001F04  3F80               	dw	16256
   190  001F06  0000               	dw	0
   191  001F08  3E80               	dw	16000
   192  001F0A  4396               	dw	17302
   193  001F0C  4023               	dw	16419
   194  001F0E  0000               	dw	0
   195  001F10  3F80               	dw	16256
   196  001F12  0000               	dw	0
   197  001F14  4000               	dw	16384
   198  001F16  2D0E               	dw	11534
   199  001F18  4042               	dw	16450
   200  001F1A  0000               	dw	0
   201  001F1C  3F80               	dw	16256
   202  001F1E  0000               	dw	0
   203  001F20  3F80               	dw	16256
   204  001F22  2D0E               	dw	11534
   205  001F24  3FC2               	dw	16322
   206  001F26  0000               	dw	0
   207  001F28  3F80               	dw	16256
   208  001F2A  0000               	dw	0
   209  001F2C  3F40               	dw	16192
   210  001F2E  2D0E               	dw	11534
   211  001F30  4042               	dw	16450
   212  001F32  0000               	dw	0
   213  001F34  3F80               	dw	16256
   214  001F36  0000               	dw	0
   215  001F38  3E80               	dw	16000
   216  001F3A  2D0E               	dw	11534
   217  001F3C  4042               	dw	16450
   218  001F3E  0000               	dw	0
   219  001F40  3F80               	dw	16256
   220  001F42  0000               	dw	0
   221  001F44  3F80               	dw	16256
   222  001F46  2D0E               	dw	11534
   223  001F48  3FC2               	dw	16322
   224  001F4A  0000               	dw	0
   225  001F4C  3F80               	dw	16256
   226  001F4E  0000               	dw	0
   227  001F50  3F40               	dw	16192
   228  001F52  B22D               	dw	45613
   229  001F54  3FCD               	dw	16333
   230  001F56  0000               	dw	0
   231  001F58  3F80               	dw	16256
   232  001F5A  0000               	dw	0
   233  001F5C  3E80               	dw	16000
   234  001F5E  FBE7               	dw	64487
   235  001F60  3FD9               	dw	16345
   236  001F62  0000               	dw	0
   237  001F64  3F80               	dw	16256
   238  001F66  0000               	dw	0
   239  001F68  3E80               	dw	16000
   240  001F6A  E979               	dw	59769
   241  001F6C  3FE6               	dw	16358
   242  001F6E  0000               	dw	0
   243  001F70  3F80               	dw	16256
   244  001F72  0000               	dw	0
   245  001F74  3E80               	dw	16000
   246  001F76  9BA6               	dw	39846
   247  001F78  3FF4               	dw	16372
   248  001F7A  0000               	dw	0
   249  001F7C  3F80               	dw	16256
   250  001F7E  999A               	dw	39322
   251  001F80  3F19               	dw	16153
   252  001F82  E979               	dw	59769
   253  001F84  3FE6               	dw	16358
   254  001F86  0000               	dw	0
   255  001F88  3F80               	dw	16256
   256  001F8A  CCCD               	dw	52429
   257  001F8C  3E4C               	dw	15948
   258  001F8E  0000               	dw	0
   259  001F90  3F80               	dw	16256
   260  001F92  0000               	dw	0
   261  001F94  0000               	dw	0
   262  001F96  999A               	dw	39322
   263  001F98  3F19               	dw	16153
   264  001F9A  3B64               	dw	15204
   265  001F9C  4037               	dw	16439
   266  001F9E  0000               	dw	0
   267  001FA0  3F80               	dw	16256
   268  001FA2  0000               	dw	0
   269  001FA4  3F80               	dw	16256
   270  001FA6  47AE               	dw	18350
   271  001FA8  4009               	dw	16393
   272  001FAA  0000               	dw	0
   273  001FAC  3F80               	dw	16256
   274  001FAE  0000               	dw	0
   275  001FB0  3F40               	dw	16192
   276  001FB2  78D5               	dw	30933
   277  001FB4  4011               	dw	16401
   278  001FB6  0000               	dw	0
   279  001FB8  3F80               	dw	16256
   280  001FBA  0000               	dw	0
   281  001FBC  3E80               	dw	16000
   282  001FBE  1CAC               	dw	7340
   283  001FC0  401A               	dw	16410
   284  001FC2  0000               	dw	0
   285  001FC4  3F80               	dw	16256
   286  001FC6  0000               	dw	0
   287  001FC8  3E80               	dw	16000
   288  001FCA  4396               	dw	17302
   289  001FCC  4023               	dw	16419
   290  001FCE  0000               	dw	0
   291  001FD0  3F80               	dw	16256
   292  001FD2  0000               	dw	0
   293  001FD4  3E80               	dw	16000
   294  001FD6  FDF4               	dw	65012
   295  001FD8  402C               	dw	16428
   296  001FDA  0000               	dw	0
   297  001FDC  3F80               	dw	16256
   298  001FDE  999A               	dw	39322
   299  001FE0  3F19               	dw	16153
   300  001FE2  4396               	dw	17302
   301  001FE4  4023               	dw	16419
   302  001FE6  0000               	dw	0
   303  001FE8  3F80               	dw	16256
   304  001FEA  CCCD               	dw	52429
   305  001FEC  3E4C               	dw	15948
   306  001FEE  0000               	dw	0
   307  001FF0  3F80               	dw	16256
   308  001FF2  0000               	dw	0
   309  001FF4  0000               	dw	0
   310  001FF6  999A               	dw	39322
   311  001FF8  3F19               	dw	16153
   312  001FFA  9BA6               	dw	39846
   313  001FFC  4074               	dw	16500
   314  001FFE  0000               	dw	0
   315  002000  3F80               	dw	16256
   316  002002  0000               	dw	0
   317  002004  3F80               	dw	16256
   318  002006  E979               	dw	59769
   319  002008  4066               	dw	16486
   320  00200A  0000               	dw	0
   321  00200C  3F80               	dw	16256
   322  00200E  0000               	dw	0
   323  002010  3F40               	dw	16192
   324  002012  9BA6               	dw	39846
   325  002014  4074               	dw	16500
   326  002016  0000               	dw	0
   327  002018  3F80               	dw	16256
   328  00201A  0000               	dw	0
   329  00201C  3E80               	dw	16000
   330  00201E  4396               	dw	17302
   331  002020  4023               	dw	16419
   332  002022  0000               	dw	0
   333  002024  3F80               	dw	16256
   334  002026  0000               	dw	0
   335  002028  3F80               	dw	16256
   336  00202A  2D0E               	dw	11534
   337  00202C  4042               	dw	16450
   338  00202E  0000               	dw	0
   339  002030  3F80               	dw	16256
   340  002032  0000               	dw	0
   341  002034  3F40               	dw	16192
   342  002036  9BA6               	dw	39846
   343  002038  4074               	dw	16500
   344  00203A  0000               	dw	0
   345  00203C  3F80               	dw	16256
   346  00203E  0000               	dw	0
   347  002040  3E80               	dw	16000
   348  002042  4396               	dw	17302
   349  002044  4023               	dw	16419
   350  002046  0000               	dw	0
   351  002048  3F80               	dw	16256
   352  00204A  0000               	dw	0
   353  00204C  40A0               	dw	16544
   354  00204E  2D0E               	dw	11534
   355  002050  4042               	dw	16450
   356  002052  0000               	dw	0
   357  002054  3F80               	dw	16256
   358                           
   359                           	psect	idataBANK0
   360  00337E                     __pidataBANK0:
   361                           	callstack 0
   362                           
   363                           ;initializer for _l
   364  00337E  000F               	dw	15
   365                           
   366                           ;initializer for _k
   367  003380  0001               	dw	1
   368                           
   369                           ;initializer for _vel
   370  003382  01F4               	dw	500
   371  0000                     _TMR0	set	4054
   372  0000                     _TRISB	set	3987
   373  0000                     _TRISA	set	3986
   374  0000                     _ADCON0bits	set	4034
   375  0000                     _ADCON0	set	4034
   376  0000                     _ADRESL	set	4035
   377  0000                     _ADRESH	set	4036
   378  0000                     _ADCON2	set	4032
   379  0000                     _ADCON1	set	4033
   380  0000                     _T0CONbits	set	4053
   381  0000                     _INTCONbits	set	4082
   382  0000                     _PORTBbits	set	3969
   383  0000                     _LATDbits	set	3980
   384  0000                     _TRISDbits	set	3989
   385  0000                     _TRISD	set	3989
   386  0000                     _PORTD	set	3971
   387  0000                     _GO	set	32273
   388  0000                     _ADON	set	32272
   389                           
   390                           	psect	smallconst
   391  000800                     __psmallconst:
   392                           	callstack 0
   393  000800  00                 	db	0
   394  000801                     STR_1:
   395  000801  25                 	db	37
   396  000802  69                 	db	105	;'i'
   397  000803  00                 	db	0
   398  000804  00                 	db	0	; dummy byte at the end
   399  0000                     
   400                           ; #config settings
   401                           
   402                           	psect	cinit
   403  002FE2                     __pcinit:
   404                           	callstack 0
   405  002FE2                     start_initialization:
   406                           	callstack 0
   407  002FE2                     __initialization:
   408                           	callstack 0
   409                           
   410                           ; Initialize objects allocated to BIGRAM (528 bytes)
   411                           ; load TBLPTR registers with __pidataBIGRAM
   412  002FE2  0E46               	movlw	low __pidataBIGRAM
   413  002FE4  6EF6               	movwf	tblptrl,c
   414  002FE6  0E1E               	movlw	high __pidataBIGRAM
   415  002FE8  6EF7               	movwf	tblptrh,c
   416  002FEA  0E00               	movlw	low (__pidataBIGRAM shr (0+16))
   417  002FEC  6EF8               	movwf	tblptru,c
   418  002FEE  EE05  F0F0         	lfsr	0,__pdataBIGRAM
   419  002FF2  EE12 F010          	lfsr	1,528
   420  002FF6                     copy_data0:
   421  002FF6  0009               	tblrd		*+
   422  002FF8  CFF5 FFEE          	movff	tablat,postinc0
   423  002FFC  50E5               	movf	postdec1,w,c
   424  002FFE  50E1               	movf	fsr1l,w,c
   425  003000  E1FA               	bnz	copy_data0
   426  003002  50E2               	movf	fsr1h,w,c
   427  003004  E1F8               	bnz	copy_data0
   428                           
   429                           ; Initialize objects allocated to BANK0 (6 bytes)
   430                           ; load TBLPTR registers with __pidataBANK0
   431  003006  0E7E               	movlw	low __pidataBANK0
   432  003008  6EF6               	movwf	tblptrl,c
   433  00300A  0E33               	movlw	high __pidataBANK0
   434  00300C  6EF7               	movwf	tblptrh,c
   435  00300E  0E00               	movlw	low (__pidataBANK0 shr (0+16))
   436  003010  6EF8               	movwf	tblptru,c
   437  003012  EE00  F0CD         	lfsr	0,__pdataBANK0
   438  003016  EE10 F006          	lfsr	1,6
   439  00301A                     copy_data1:
   440  00301A  0009               	tblrd		*+
   441  00301C  CFF5 FFEE          	movff	tablat,postinc0
   442  003020  50E5               	movf	postdec1,w,c
   443  003022  50E1               	movf	fsr1l,w,c
   444  003024  E1FA               	bnz	copy_data1
   445                           
   446                           ; Clear objects allocated to BANK0 (90 bytes)
   447  003026  EE00  F060         	lfsr	0,__pbssBANK0
   448  00302A  0E5A               	movlw	90
   449  00302C                     clear_0:
   450  00302C  6AEE               	clrf	postinc0,c
   451  00302E  06E8               	decf	wreg,f,c
   452  003030  E1FD               	bnz	clear_0
   453                           
   454                           ; Clear objects allocated to COMRAM (2 bytes)
   455  003032  6A5F               	clrf	(__pbssCOMRAM+1)& (0+255),c
   456  003034  6A5E               	clrf	__pbssCOMRAM& (0+255),c
   457  003036                     end_of_initialization:
   458                           	callstack 0
   459  003036                     __end_of__initialization:
   460                           	callstack 0
   461  003036  0E00               	movlw	low (__Lsmallconst shr (0+16))
   462  003038  6EF8               	movwf	tblptru,c
   463  00303A  0E08               	movlw	high __Lsmallconst
   464  00303C  6EF7               	movwf	tblptrh,c
   465  00303E  0100               	movlb	0
   466  003040  EF84  F019         	goto	_main	;jump to C main() function
   467                           
   468                           	psect	bssCOMRAM
   469  00005E                     __pbssCOMRAM:
   470                           	callstack 0
   471  00005E                     _flags:
   472                           	callstack 0
   473  00005E                     	ds	2
   474                           
   475                           	psect	bssBANK0
   476  000060                     __pbssBANK0:
   477                           	callstack 0
   478  000060                     _buffer:
   479                           	callstack 0
   480  000060                     	ds	20
   481  000074                     _nout:
   482                           	callstack 0
   483  000074                     	ds	2
   484  000076                     _width:
   485                           	callstack 0
   486  000076                     	ds	2
   487  000078                     _prec:
   488                           	callstack 0
   489  000078                     	ds	2
   490  00007A                     _s:
   491                           	callstack 0
   492  00007A                     	ds	2
   493  00007C                     _b:
   494                           	callstack 0
   495  00007C                     	ds	2
   496  00007E                     _a:
   497                           	callstack 0
   498  00007E                     	ds	2
   499  000080                     _i:
   500                           	callstack 0
   501  000080                     	ds	2
   502  000082                     _f:
   503                           	callstack 0
   504  000082                     	ds	1
   505  000083                     _dbuf:
   506                           	callstack 0
   507  000083                     	ds	32
   508  0000A3                     _buffer1:
   509                           	callstack 0
   510  0000A3                     	ds	23
   511                           
   512                           	psect	dataBANK0
   513  0000CD                     __pdataBANK0:
   514                           	callstack 0
   515  0000CD                     _l:
   516                           	callstack 0
   517  0000CD                     	ds	2
   518  0000CF                     _k:
   519                           	callstack 0
   520  0000CF                     	ds	2
   521  0000D1                     _vel:
   522                           	callstack 0
   523  0000D1                     	ds	2
   524                           
   525                           	psect	dataBIGRAM
   526  0005F0                     __pdataBIGRAM:
   527                           	callstack 0
   528  0005F0                     _cancion:
   529                           	callstack 0
   530  0005F0                     	ds	528
   531                           
   532                           	psect	cstackBANK0
   533  0000BA                     __pcstackBANK0:
   534                           	callstack 0
   535  0000BA                     sprintf@ap:
   536                           	callstack 0
   537                           
   538                           ; 2 bytes @ 0x0
   539  0000BA                     	ds	2
   540  0000BC                     sprintf@f:
   541                           	callstack 0
   542                           
   543                           ; 6 bytes @ 0x2
   544  0000BC                     	ds	6
   545  0000C2                     _cancion1$1193:
   546                           	callstack 0
   547                           
   548                           ; 2 bytes @ 0x8
   549  0000C2                     	ds	2
   550  0000C4                     _cancion1$1194:
   551                           	callstack 0
   552                           
   553                           ; 2 bytes @ 0xA
   554  0000C4                     	ds	2
   555  0000C6                     cancion1@j:
   556                           	callstack 0
   557                           
   558                           ; 2 bytes @ 0xC
   559  0000C6                     	ds	2
   560  0000C8                     
   561                           ; 2 bytes @ 0xE
   562  0000C8                     	ds	2
   563  0000CA                     
   564                           ; 3 bytes @ 0x10
   565  0000CA                     	ds	3
   566                           
   567                           	psect	cstackCOMRAM
   568  000001                     __pcstackCOMRAM:
   569                           	callstack 0
   570  000001                     ?_strlen:
   571                           	callstack 0
   572  000001                     ?___wmul:
   573                           	callstack 0
   574  000001                     ?___awdiv:
   575                           	callstack 0
   576  000001                     ?___fladd:
   577                           	callstack 0
   578  000001                     ?___xxtofl:
   579                           	callstack 0
   580  000001                     ?___aodiv:
   581                           	callstack 0
   582  000001                     ?___aomod:
   583                           	callstack 0
   584  000001                     LCD_Comando@cmd:
   585                           	callstack 0
   586  000001                     LCD_Data@data:
   587                           	callstack 0
   588  000001                     ___wmul@multiplier:
   589                           	callstack 0
   590  000001                     ___awdiv@dividend:
   591                           	callstack 0
   592  000001                     fputc@c:
   593                           	callstack 0
   594  000001                     strlen@s:
   595                           	callstack 0
   596  000001                     ___fladd@b:
   597                           	callstack 0
   598  000001                     ___xxtofl@val:
   599                           	callstack 0
   600  000001                     ___aodiv@dividend:
   601                           	callstack 0
   602  000001                     ___aomod@dividend:
   603                           	callstack 0
   604                           
   605                           ; 8 bytes @ 0x0
   606  000001                     	ds	1
   607  000002                     ??_LCD_Init:
   608  000002                     LCD_Cadena@dato:
   609                           	callstack 0
   610                           
   611                           ; 2 bytes @ 0x1
   612  000002                     	ds	1
   613  000003                     ___wmul@multiplicand:
   614                           	callstack 0
   615  000003                     ___awdiv@divisor:
   616                           	callstack 0
   617  000003                     fputc@fp:
   618                           	callstack 0
   619  000003                     strlen@a:
   620                           	callstack 0
   621                           
   622                           ; 2 bytes @ 0x2
   623  000003                     	ds	1
   624  000004                     
   625                           ; 1 bytes @ 0x3
   626  000004                     	ds	1
   627  000005                     ??_fputc:
   628  000005                     ??___xxtofl:
   629  000005                     ___awdiv@counter:
   630                           	callstack 0
   631  000005                     ___wmul@product:
   632                           	callstack 0
   633  000005                     ___fladd@a:
   634                           	callstack 0
   635                           
   636                           ; 4 bytes @ 0x4
   637  000005                     	ds	1
   638  000006                     ___awdiv@sign:
   639                           	callstack 0
   640                           
   641                           ; 1 bytes @ 0x5
   642  000006                     	ds	1
   643  000007                     ?___flmul:
   644                           	callstack 0
   645  000007                     ___awdiv@quotient:
   646                           	callstack 0
   647  000007                     ___fleq@ff1:
   648                           	callstack 0
   649  000007                     ___flmul@b:
   650                           	callstack 0
   651                           
   652                           ; 4 bytes @ 0x6
   653  000007                     	ds	2
   654  000009                     ??___fladd:
   655  000009                     ?_leerADC:
   656                           	callstack 0
   657  000009                     ___xxtofl@sign:
   658                           	callstack 0
   659  000009                     leerADC@canal:
   660                           	callstack 0
   661  000009                     ___aodiv@divisor:
   662                           	callstack 0
   663  000009                     ___aomod@divisor:
   664                           	callstack 0
   665                           
   666                           ; 8 bytes @ 0x8
   667  000009                     	ds	1
   668  00000A                     ___xxtofl@exp:
   669                           	callstack 0
   670  00000A                     fputs@s:
   671                           	callstack 0
   672                           
   673                           ; 2 bytes @ 0x9
   674  00000A                     	ds	1
   675  00000B                     ??_leerADC:
   676  00000B                     ___fleq@ff2:
   677                           	callstack 0
   678  00000B                     ___flmul@a:
   679                           	callstack 0
   680  00000B                     ___xxtofl@arg:
   681                           	callstack 0
   682                           
   683                           ; 4 bytes @ 0xA
   684  00000B                     	ds	1
   685  00000C                     fputs@fp:
   686                           	callstack 0
   687                           
   688                           ; 2 bytes @ 0xB
   689  00000C                     	ds	1
   690  00000D                     ___fladd@signs:
   691                           	callstack 0
   692                           
   693                           ; 1 bytes @ 0xC
   694  00000D                     	ds	1
   695  00000E                     ___fladd@aexp:
   696                           	callstack 0
   697  00000E                     fputs@c:
   698                           	callstack 0
   699                           
   700                           ; 1 bytes @ 0xD
   701  00000E                     	ds	1
   702  00000F                     ??___flmul:
   703  00000F                     ??___fleq:
   704  00000F                     ?___fldiv:
   705                           	callstack 0
   706  00000F                     ___fladd@bexp:
   707                           	callstack 0
   708  00000F                     leerADC@digital:
   709                           	callstack 0
   710  00000F                     fputs@i:
   711                           	callstack 0
   712  00000F                     ___fldiv@b:
   713                           	callstack 0
   714                           
   715                           ; 4 bytes @ 0xE
   716  00000F                     	ds	1
   717  000010                     ___fladd@grs:
   718                           	callstack 0
   719                           
   720                           ; 1 bytes @ 0xF
   721  000010                     	ds	1
   722  000011                     ?_pad:
   723                           	callstack 0
   724  000011                     ___aodiv@counter:
   725                           	callstack 0
   726  000011                     ___aomod@counter:
   727                           	callstack 0
   728  000011                     leerADC@final:
   729                           	callstack 0
   730  000011                     pad@fp:
   731                           	callstack 0
   732                           
   733                           ; 2 bytes @ 0x10
   734  000011                     	ds	1
   735  000012                     ___aodiv@sign:
   736                           	callstack 0
   737  000012                     ___aomod@sign:
   738                           	callstack 0
   739                           
   740                           ; 1 bytes @ 0x11
   741  000012                     	ds	1
   742  000013                     ?_abs:
   743                           	callstack 0
   744  000013                     ___flmul@sign:
   745                           	callstack 0
   746  000013                     LCD_XY@x:
   747                           	callstack 0
   748  000013                     pad@buf:
   749                           	callstack 0
   750  000013                     abs@a:
   751                           	callstack 0
   752  000013                     ___fldiv@a:
   753                           	callstack 0
   754  000013                     ___aodiv@quotient:
   755                           	callstack 0
   756                           
   757                           ; 8 bytes @ 0x12
   758  000013                     	ds	1
   759  000014                     ___flmul@grs:
   760                           	callstack 0
   761                           
   762                           ; 4 bytes @ 0x13
   763  000014                     	ds	1
   764  000015                     ??_abs:
   765  000015                     LCD_XY@y:
   766                           	callstack 0
   767  000015                     pad@p:
   768                           	callstack 0
   769                           
   770                           ; 2 bytes @ 0x14
   771  000015                     	ds	2
   772  000017                     ??___fldiv:
   773  000017                     ??_pad:
   774                           
   775                           ; 1 bytes @ 0x16
   776  000017                     	ds	1
   777  000018                     ___flmul@aexp:
   778                           	callstack 0
   779  000018                     pad@i:
   780                           	callstack 0
   781                           
   782                           ; 2 bytes @ 0x17
   783  000018                     	ds	1
   784  000019                     ___flmul@bexp:
   785                           	callstack 0
   786                           
   787                           ; 1 bytes @ 0x18
   788  000019                     	ds	1
   789  00001A                     pad@w:
   790                           	callstack 0
   791  00001A                     ___flmul@prod:
   792                           	callstack 0
   793                           
   794                           ; 4 bytes @ 0x19
   795  00001A                     	ds	1
   796  00001B                     ___fldiv@rem:
   797                           	callstack 0
   798                           
   799                           ; 4 bytes @ 0x1A
   800  00001B                     	ds	1
   801  00001C                     ?_dtoa:
   802                           	callstack 0
   803  00001C                     dtoa@fp:
   804                           	callstack 0
   805                           
   806                           ; 2 bytes @ 0x1B
   807  00001C                     	ds	2
   808  00001E                     ___flmul@temp:
   809                           	callstack 0
   810  00001E                     dtoa@d:
   811                           	callstack 0
   812                           
   813                           ; 8 bytes @ 0x1D
   814  00001E                     	ds	1
   815  00001F                     ___fldiv@sign:
   816                           	callstack 0
   817                           
   818                           ; 1 bytes @ 0x1E
   819  00001F                     	ds	1
   820  000020                     ___fldiv@new_exp:
   821                           	callstack 0
   822                           
   823                           ; 2 bytes @ 0x1F
   824  000020                     	ds	2
   825  000022                     ___fldiv@grs:
   826                           	callstack 0
   827                           
   828                           ; 4 bytes @ 0x21
   829  000022                     	ds	4
   830  000026                     ??_dtoa:
   831  000026                     ___fldiv@bexp:
   832                           	callstack 0
   833                           
   834                           ; 1 bytes @ 0x25
   835  000026                     	ds	1
   836  000027                     ___fldiv@aexp:
   837                           	callstack 0
   838                           
   839                           ; 1 bytes @ 0x26
   840  000027                     	ds	1
   841  000028                     ?___flsub:
   842                           	callstack 0
   843  000028                     ?___fltol:
   844                           	callstack 0
   845  000028                     ___fltol@f1:
   846                           	callstack 0
   847  000028                     ___flsub@b:
   848                           	callstack 0
   849                           
   850                           ; 4 bytes @ 0x27
   851  000028                     	ds	4
   852  00002C                     ??___fltol:
   853  00002C                     ___flsub@a:
   854                           	callstack 0
   855                           
   856                           ; 4 bytes @ 0x2B
   857  00002C                     	ds	2
   858  00002E                     _dtoa$941:
   859                           	callstack 0
   860                           
   861                           ; 2 bytes @ 0x2D
   862  00002E                     	ds	2
   863  000030                     ___fltol@sign1:
   864                           	callstack 0
   865  000030                     dtoa@p:
   866                           	callstack 0
   867                           
   868                           ; 2 bytes @ 0x2F
   869  000030                     	ds	1
   870  000031                     ___fltol@exp1:
   871                           	callstack 0
   872                           
   873                           ; 1 bytes @ 0x30
   874  000031                     	ds	1
   875  000032                     tocar_nota@duracion:
   876                           	callstack 0
   877  000032                     silencio@duracion:
   878                           	callstack 0
   879  000032                     dtoa@w:
   880                           	callstack 0
   881                           
   882                           ; 2 bytes @ 0x31
   883  000032                     	ds	2
   884  000034                     dtoa@s:
   885                           	callstack 0
   886  000034                     tocar_nota@tfrec:
   887                           	callstack 0
   888  000034                     silencio@tfrec:
   889                           	callstack 0
   890                           
   891                           ; 4 bytes @ 0x33
   892  000034                     	ds	2
   893  000036                     dtoa@n:
   894                           	callstack 0
   895                           
   896                           ; 8 bytes @ 0x35
   897  000036                     	ds	2
   898  000038                     ??_tocar_nota:
   899  000038                     ??_silencio:
   900                           
   901                           ; 1 bytes @ 0x37
   902  000038                     	ds	1
   903  000039                     _tocar_nota$1191:
   904                           	callstack 0
   905  000039                     _silencio$1192:
   906                           	callstack 0
   907                           
   908                           ; 4 bytes @ 0x38
   909  000039                     	ds	4
   910  00003D                     tocar_nota@duracion2:
   911                           	callstack 0
   912                           
   913                           ; 2 bytes @ 0x3C
   914  00003D                     	ds	1
   915  00003E                     dtoa@i:
   916                           	callstack 0
   917                           
   918                           ; 2 bytes @ 0x3D
   919  00003E                     	ds	2
   920  000040                     ?_vfpfcnvrt:
   921                           	callstack 0
   922  000040                     vfpfcnvrt@fp:
   923                           	callstack 0
   924                           
   925                           ; 2 bytes @ 0x3F
   926  000040                     	ds	2
   927  000042                     vfpfcnvrt@fmt:
   928                           	callstack 0
   929                           
   930                           ; 2 bytes @ 0x41
   931  000042                     	ds	2
   932  000044                     vfpfcnvrt@ap:
   933                           	callstack 0
   934                           
   935                           ; 2 bytes @ 0x43
   936  000044                     	ds	2
   937  000046                     ??_vfpfcnvrt:
   938                           
   939                           ; 1 bytes @ 0x45
   940  000046                     	ds	2
   941  000048                     vfpfcnvrt@ll:
   942                           	callstack 0
   943                           
   944                           ; 8 bytes @ 0x47
   945  000048                     	ds	8
   946  000050                     ?_vfprintf:
   947                           	callstack 0
   948  000050                     vfprintf@fp:
   949                           	callstack 0
   950                           
   951                           ; 2 bytes @ 0x4F
   952  000050                     	ds	2
   953  000052                     vfprintf@fmt:
   954                           	callstack 0
   955                           
   956                           ; 2 bytes @ 0x51
   957  000052                     	ds	2
   958  000054                     vfprintf@ap:
   959                           	callstack 0
   960                           
   961                           ; 2 bytes @ 0x53
   962  000054                     	ds	2
   963  000056                     vfprintf@cfmt:
   964                           	callstack 0
   965                           
   966                           ; 2 bytes @ 0x55
   967  000056                     	ds	2
   968  000058                     ?_sprintf:
   969                           	callstack 0
   970  000058                     sprintf@s:
   971                           	callstack 0
   972                           
   973                           ; 2 bytes @ 0x57
   974  000058                     	ds	2
   975  00005A                     sprintf@fmt:
   976                           	callstack 0
   977                           
   978                           ; 2 bytes @ 0x59
   979  00005A                     	ds	4
   980  00005E                     
   981                           ; 1 bytes @ 0x5D
   982 ;;
   983 ;;Main: autosize = 0, tempsize = 0, incstack = 0, save=0
   984 ;;
   985 ;; *************** function _main *****************
   986 ;; Defined at:
   987 ;;		line 244 in file "main.c"
   988 ;; Parameters:    Size  Location     Type
   989 ;;  argc            2   14[BANK0 ] int 
   990 ;;  argv            3   16[BANK0 ] PTR PTR unsigned char 
   991 ;; Auto vars:     Size  Location     Type
   992 ;;		None
   993 ;; Return value:  Size  Location     Type
   994 ;;                  2   14[BANK0 ] int 
   995 ;; Registers used:
   996 ;;		wreg, fsr1l, fsr1h, fsr2l, fsr2h, status,2, status,0, tblptrl, tblptrh, tblptru, prodl, prodh, cstack
   997 ;; Tracked objects:
   998 ;;		On entry : 0/0
   999 ;;		On exit  : 0/0
  1000 ;;		Unchanged: 0/0
  1001 ;; Data sizes:     COMRAM   BANK0   BANK1   BANK2   BANK3   BANK4   BANK5   BANK6   BANK7
  1002 ;;      Params:         0       5       0       0       0       0       0       0       0
  1003 ;;      Locals:         0       0       0       0       0       0       0       0       0
  1004 ;;      Temps:          0       0       0       0       0       0       0       0       0
  1005 ;;      Totals:         0       5       0       0       0       0       0       0       0
  1006 ;;Total ram usage:        5 bytes
  1007 ;; Hardware stack levels required when called: 9
  1008 ;; This function calls:
  1009 ;;		_LCD_Init
  1010 ;;		_P1
  1011 ;;		_cancion1
  1012 ;;		_confADC
  1013 ;;		_confT0
  1014 ;; This function is called by:
  1015 ;;		Startup code after reset
  1016 ;; This function uses a non-reentrant model
  1017 ;;
  1018                           
  1019                           	psect	text0
  1020  003308                     __ptext0:
  1021                           	callstack 0
  1022  003308                     _main:
  1023                           	callstack 22
  1024  003308                     
  1025                           ;main.c: 246:      ADCON1= 15;
  1026  003308  0E0F               	movlw	15
  1027  00330A  6EC1               	movwf	193,c	;volatile
  1028  00330C                     
  1029                           ;main.c: 248:              LCD_Init();
  1030  00330C  EC96  F016         	call	_LCD_Init	;wreg free
  1031  003310                     
  1032                           ;main.c: 249:              P1();
  1033  003310  ECA2  F017         	call	_P1	;wreg free
  1034  003314                     
  1035                           ;main.c: 250:        confT0();
  1036  003314  ECAB  F019         	call	_confT0	;wreg free
  1037  003318                     
  1038                           ;main.c: 251:        confADC();
  1039  003318  ECB6  F019         	call	_confADC	;wreg free
  1040                           
  1041                           ;main.c: 253:     TRISA = 0b00010001;
  1042  00331C  0E11               	movlw	17
  1043  00331E  6E92               	movwf	146,c	;volatile
  1044                           
  1045                           ;main.c: 254:     TRISB = 0b11111101;
  1046  003320  0EFD               	movlw	253
  1047  003322  6E93               	movwf	147,c	;volatile
  1048  003324                     l3388:
  1049                           
  1050                           ;main.c: 261:     cancion1();
  1051  003324  EC03  F004         	call	_cancion1	;wreg free
  1052  003328  EF92  F019         	goto	l3388
  1053  00332C  EF00  F000         	goto	start
  1054  003330                     __end_of_main:
  1055                           	callstack 0
  1056                           
  1057 ;; *************** function _confT0 *****************
  1058 ;; Defined at:
  1059 ;;		line 103 in file "main.c"
  1060 ;; Parameters:    Size  Location     Type
  1061 ;;		None
  1062 ;; Auto vars:     Size  Location     Type
  1063 ;;		None
  1064 ;; Return value:  Size  Location     Type
  1065 ;;                  1    wreg      void 
  1066 ;; Registers used:
  1067 ;;		wreg, status,2
  1068 ;; Tracked objects:
  1069 ;;		On entry : 0/0
  1070 ;;		On exit  : 0/0
  1071 ;;		Unchanged: 0/0
  1072 ;; Data sizes:     COMRAM   BANK0   BANK1   BANK2   BANK3   BANK4   BANK5   BANK6   BANK7
  1073 ;;      Params:         0       0       0       0       0       0       0       0       0
  1074 ;;      Locals:         0       0       0       0       0       0       0       0       0
  1075 ;;      Temps:          0       0       0       0       0       0       0       0       0
  1076 ;;      Totals:         0       0       0       0       0       0       0       0       0
  1077 ;;Total ram usage:        0 bytes
  1078 ;; Hardware stack levels used: 1
  1079 ;; This function calls:
  1080 ;;		Nothing
  1081 ;; This function is called by:
  1082 ;;		_main
  1083 ;; This function uses a non-reentrant model
  1084 ;;
  1085                           
  1086                           	psect	text1
  1087  003356                     __ptext1:
  1088                           	callstack 0
  1089  003356                     _confT0:
  1090                           	callstack 30
  1091  003356                     
  1092                           ;main.c: 105:     T0CONbits.TMR0ON = 1;
  1093  003356  8ED5               	bsf	213,7,c	;volatile
  1094                           
  1095                           ;main.c: 106:       T0CONbits.T08BIT = 1;
  1096  003358  8CD5               	bsf	213,6,c	;volatile
  1097                           
  1098                           ;main.c: 107:       T0CONbits.T0CS = 0;
  1099  00335A  9AD5               	bcf	213,5,c	;volatile
  1100                           
  1101                           ;main.c: 108:       T0CONbits.T0SE = 0;
  1102  00335C  98D5               	bcf	213,4,c	;volatile
  1103                           
  1104                           ;main.c: 109:       T0CONbits.PSA = 0;
  1105  00335E  96D5               	bcf	213,3,c	;volatile
  1106  003360                     
  1107                           ;main.c: 110:       T0CONbits.T0PS = 0b110;
  1108  003360  50D5               	movf	213,w,c	;volatile
  1109  003362  0BF8               	andlw	-8
  1110  003364  0906               	iorlw	6
  1111  003366  6ED5               	movwf	213,c	;volatile
  1112  003368                     
  1113                           ;main.c: 112:       INTCONbits.TMR0IE = 1;
  1114  003368  8AF2               	bsf	242,5,c	;volatile
  1115  00336A  0012               	return		;funcret
  1116  00336C                     __end_of_confT0:
  1117                           	callstack 0
  1118                           
  1119 ;; *************** function _confADC *****************
  1120 ;; Defined at:
  1121 ;;		line 116 in file "main.c"
  1122 ;; Parameters:    Size  Location     Type
  1123 ;;		None
  1124 ;; Auto vars:     Size  Location     Type
  1125 ;;		None
  1126 ;; Return value:  Size  Location     Type
  1127 ;;                  1    wreg      void 
  1128 ;; Registers used:
  1129 ;;		wreg, status,2
  1130 ;; Tracked objects:
  1131 ;;		On entry : 0/0
  1132 ;;		On exit  : 0/0
  1133 ;;		Unchanged: 0/0
  1134 ;; Data sizes:     COMRAM   BANK0   BANK1   BANK2   BANK3   BANK4   BANK5   BANK6   BANK7
  1135 ;;      Params:         0       0       0       0       0       0       0       0       0
  1136 ;;      Locals:         0       0       0       0       0       0       0       0       0
  1137 ;;      Temps:          0       0       0       0       0       0       0       0       0
  1138 ;;      Totals:         0       0       0       0       0       0       0       0       0
  1139 ;;Total ram usage:        0 bytes
  1140 ;; Hardware stack levels used: 1
  1141 ;; This function calls:
  1142 ;;		Nothing
  1143 ;; This function is called by:
  1144 ;;		_main
  1145 ;; This function uses a non-reentrant model
  1146 ;;
  1147                           
  1148                           	psect	text2
  1149  00336C                     __ptext2:
  1150                           	callstack 0
  1151  00336C                     _confADC:
  1152                           	callstack 30
  1153  00336C                     
  1154                           ;main.c: 117:      ADCON1 = 0b00001110;
  1155  00336C  0E0E               	movlw	14
  1156  00336E  6EC1               	movwf	193,c	;volatile
  1157                           
  1158                           ;main.c: 118:     ADCON2 = 0b10111010;
  1159  003370  0EBA               	movlw	186
  1160  003372  6EC0               	movwf	192,c	;volatile
  1161                           
  1162                           ;main.c: 119:     ADRESH=0;
  1163  003374  0E00               	movlw	0
  1164  003376  6EC4               	movwf	196,c	;volatile
  1165                           
  1166                           ;main.c: 120:     ADRESL=0;
  1167  003378  0E00               	movlw	0
  1168  00337A  6EC3               	movwf	195,c	;volatile
  1169  00337C  0012               	return		;funcret
  1170  00337E                     __end_of_confADC:
  1171                           	callstack 0
  1172                           
  1173 ;; *************** function _cancion1 *****************
  1174 ;; Defined at:
  1175 ;;		line 143 in file "main.c"
  1176 ;; Parameters:    Size  Location     Type
  1177 ;;		None
  1178 ;; Auto vars:     Size  Location     Type
  1179 ;;  j               2   12[BANK0 ] int 
  1180 ;; Return value:  Size  Location     Type
  1181 ;;                  1    wreg      void 
  1182 ;; Registers used:
  1183 ;;		wreg, fsr1l, fsr1h, fsr2l, fsr2h, status,2, status,0, tblptrl, tblptrh, tblptru, prodl, prodh, cstack
  1184 ;; Tracked objects:
  1185 ;;		On entry : 0/0
  1186 ;;		On exit  : 0/0
  1187 ;;		Unchanged: 0/0
  1188 ;; Data sizes:     COMRAM   BANK0   BANK1   BANK2   BANK3   BANK4   BANK5   BANK6   BANK7
  1189 ;;      Params:         0       0       0       0       0       0       0       0       0
  1190 ;;      Locals:         0       6       0       0       0       0       0       0       0
  1191 ;;      Temps:          0       0       0       0       0       0       0       0       0
  1192 ;;      Totals:         0       6       0       0       0       0       0       0       0
  1193 ;;Total ram usage:        6 bytes
  1194 ;; Hardware stack levels used: 1
  1195 ;; Hardware stack levels required when called: 8
  1196 ;; This function calls:
  1197 ;;		_LCD_Cadena
  1198 ;;		_LCD_Comando
  1199 ;;		_LCD_Data
  1200 ;;		_LCD_XY
  1201 ;;		___fleq
  1202 ;;		___flmul
  1203 ;;		___fltol
  1204 ;;		___wmul
  1205 ;;		_leerADC
  1206 ;;		_silencio
  1207 ;;		_sprintf
  1208 ;;		_tocar_nota
  1209 ;; This function is called by:
  1210 ;;		_main
  1211 ;; This function uses a non-reentrant model
  1212 ;;
  1213                           
  1214                           	psect	text3
  1215  000806                     __ptext3:
  1216                           	callstack 0
  1217  000806                     _cancion1:
  1218                           	callstack 22
  1219  000806                     
  1220                           ;main.c: 145: for( int j = 0; j < 44; j ++){
  1221  000806  0E00               	movlw	0
  1222  000808  0100               	movlb	0	; () banked
  1223  00080A  6FC7               	movwf	(cancion1@j+1)& (0+255),b
  1224  00080C  0E00               	movlw	0
  1225  00080E  6FC6               	movwf	cancion1@j& (0+255),b
  1226  000810                     l3258:
  1227                           
  1228                           ; BSR set to: 0
  1229                           ;main.c: 147: if(i < 15 && l >= 0 && f == 0){
  1230  000810  BF81               	btfsc	(_i+1)& (0+255),7,b
  1231  000812  EF16  F004         	goto	u3500
  1232  000816  5181               	movf	(_i+1)& (0+255),w,b
  1233  000818  E107               	bnz	u3501
  1234  00081A  0E0F               	movlw	15
  1235  00081C  5D80               	subwf	_i& (0+255),w,b
  1236  00081E  B0D8               	btfsc	status,0,c
  1237  000820  EF14  F004         	goto	u3501
  1238  000824  EF16  F004         	goto	u3500
  1239  000828                     u3501:
  1240  000828  EFB6  F005         	goto	l3316
  1241  00082C                     u3500:
  1242  00082C                     
  1243                           ; BSR set to: 0
  1244  00082C  BFCE               	btfsc	(_l+1)& (0+255),7,b
  1245  00082E  EF1B  F004         	goto	u3511
  1246  000832  EF1D  F004         	goto	u3510
  1247  000836                     u3511:
  1248  000836  EFB6  F005         	goto	l3316
  1249  00083A                     u3510:
  1250  00083A                     
  1251                           ; BSR set to: 0
  1252  00083A  5182               	movf	_f& (0+255),w,b
  1253  00083C  A4D8               	btfss	status,2,c
  1254  00083E  EF23  F004         	goto	u3521
  1255  000842  EF25  F004         	goto	u3520
  1256  000846                     u3521:
  1257  000846  EFB6  F005         	goto	l3316
  1258  00084A                     u3520:
  1259  00084A                     
  1260                           ; BSR set to: 0
  1261                           ;main.c: 150:                         if(cancion[j][2] == 1){
  1262  00084A  C0C6  F001         	movff	cancion1@j,___wmul@multiplier
  1263  00084E  C0C7  F002         	movff	cancion1@j+1,___wmul@multiplier+1
  1264  000852  0E00               	movlw	0
  1265  000854  6E04               	movwf	(___wmul@multiplicand+1)^0,c
  1266  000856  0E0C               	movlw	12
  1267  000858  6E03               	movwf	___wmul@multiplicand^0,c
  1268  00085A  EC98  F019         	call	___wmul	;wreg free
  1269  00085E  0EF8               	movlw	low (_cancion+8)
  1270  000860  2401               	addwf	?___wmul^0,w,c
  1271  000862  6ED9               	movwf	fsr2l,c
  1272  000864  0E05               	movlw	high (_cancion+8)
  1273  000866  2002               	addwfc	(?___wmul+1)^0,w,c
  1274  000868  6EDA               	movwf	fsr2h,c
  1275  00086A  CFDE F007          	movff	postinc2,___fleq@ff1
  1276  00086E  CFDE F008          	movff	postinc2,___fleq@ff1+1
  1277  000872  CFDE F009          	movff	postinc2,___fleq@ff1+2
  1278  000876  CFDE F00A          	movff	postinc2,___fleq@ff1+3
  1279  00087A  0E00               	movlw	0
  1280  00087C  6E0B               	movwf	___fleq@ff2^0,c
  1281  00087E  0E00               	movlw	0
  1282  000880  6E0C               	movwf	(___fleq@ff2+1)^0,c
  1283  000882  0E80               	movlw	128
  1284  000884  6E0D               	movwf	(___fleq@ff2+2)^0,c
  1285  000886  0E3F               	movlw	63
  1286  000888  6E0E               	movwf	(___fleq@ff2+3)^0,c
  1287  00088A  EC4D  F017         	call	___fleq	;wreg free
  1288  00088E  A0D8               	btfss	status,0,c
  1289  000890  EF4C  F004         	goto	u3531
  1290  000894  EF4E  F004         	goto	u3530
  1291  000898                     u3531:
  1292  000898  EFE2  F004         	goto	l3284
  1293  00089C                     u3530:
  1294  00089C                     
  1295                           ;main.c: 157:                             LCD_XY(1,16);
  1296  00089C  0E00               	movlw	0
  1297  00089E  6E14               	movwf	(LCD_XY@x+1)^0,c
  1298  0008A0  0E01               	movlw	1
  1299  0008A2  6E13               	movwf	LCD_XY@x^0,c
  1300  0008A4  0E00               	movlw	0
  1301  0008A6  6E16               	movwf	(LCD_XY@y+1)^0,c
  1302  0008A8  0E10               	movlw	16
  1303  0008AA  6E15               	movwf	LCD_XY@y^0,c
  1304  0008AC  EC6C  F019         	call	_LCD_XY	;wreg free
  1305  0008B0                     
  1306                           ;main.c: 158:                             sprintf(buffer1,"%i",leerADC(0));
  1307  0008B0  0EA3               	movlw	low _buffer1
  1308  0008B2  6E58               	movwf	sprintf@s^0,c
  1309  0008B4  0E00               	movlw	high _buffer1
  1310  0008B6  6E59               	movwf	(sprintf@s+1)^0,c
  1311  0008B8  0E01               	movlw	low STR_1
  1312  0008BA  6E5A               	movwf	sprintf@fmt^0,c
  1313  0008BC  0E08               	movlw	high STR_1
  1314  0008BE  6E5B               	movwf	(sprintf@fmt+1)^0,c
  1315  0008C0  0E00               	movlw	0
  1316  0008C2  6E0A               	movwf	(leerADC@canal+1)^0,c
  1317  0008C4  0E00               	movlw	0
  1318  0008C6  6E09               	movwf	leerADC@canal^0,c
  1319  0008C8  ECF3  F016         	call	_leerADC	;wreg free
  1320  0008CC  C009  F05C         	movff	?_leerADC,?_sprintf+4
  1321  0008D0  C00A  F05D         	movff	?_leerADC+1,?_sprintf+5
  1322  0008D4  EC7F  F018         	call	_sprintf	;wreg free
  1323  0008D8                     
  1324                           ;main.c: 159:                              LCD_Cadena(buffer1);
  1325  0008D8  0EA3               	movlw	low _buffer1
  1326  0008DA  6E02               	movwf	LCD_Cadena@dato^0,c
  1327  0008DC  0E00               	movlw	high _buffer1
  1328  0008DE  6E03               	movwf	(LCD_Cadena@dato+1)^0,c
  1329  0008E0  EC35  F019         	call	_LCD_Cadena	;wreg free
  1330  0008E4                     
  1331                           ;main.c: 160:                                 LCD_XY(k,leerADC(0));
  1332  0008E4  C0CF  F013         	movff	_k,LCD_XY@x
  1333  0008E8  C0D0  F014         	movff	_k+1,LCD_XY@x+1
  1334  0008EC  0E00               	movlw	0
  1335  0008EE  6E0A               	movwf	(leerADC@canal+1)^0,c
  1336  0008F0  0E00               	movlw	0
  1337  0008F2  6E09               	movwf	leerADC@canal^0,c
  1338  0008F4  ECF3  F016         	call	_leerADC	;wreg free
  1339  0008F8  C009  F015         	movff	?_leerADC,LCD_XY@y
  1340  0008FC  C00A  F016         	movff	?_leerADC+1,LCD_XY@y+1
  1341  000900  EC6C  F019         	call	_LCD_XY	;wreg free
  1342  000904                     
  1343                           ;main.c: 161:                                 LCD_Data(0);
  1344  000904  0E00               	movlw	0
  1345  000906  EC53  F018         	call	_LCD_Data
  1346  00090A                     
  1347                           ;main.c: 162:                                 LCD_XY(1,l);
  1348  00090A  0E00               	movlw	0
  1349  00090C  6E14               	movwf	(LCD_XY@x+1)^0,c
  1350  00090E  0E01               	movlw	1
  1351  000910  6E13               	movwf	LCD_XY@x^0,c
  1352  000912  C0CD  F015         	movff	_l,LCD_XY@y
  1353  000916  C0CE  F016         	movff	_l+1,LCD_XY@y+1
  1354  00091A  EC6C  F019         	call	_LCD_XY	;wreg free
  1355  00091E                     
  1356                           ;main.c: 163:                                 LCD_Data(1);
  1357  00091E  0E01               	movlw	1
  1358  000920  EC53  F018         	call	_LCD_Data
  1359  000924                     
  1360                           ;main.c: 164:                          tocar_nota(vel*cancion[j][0],cancion[j][1]);
  1361  000924  0E00               	movlw	0
  1362  000926  6E0B               	movwf	___flmul@a^0,c
  1363  000928  0E00               	movlw	0
  1364  00092A  6E0C               	movwf	(___flmul@a+1)^0,c
  1365  00092C  0EFA               	movlw	250
  1366  00092E  6E0D               	movwf	(___flmul@a+2)^0,c
  1367  000930  0E43               	movlw	67
  1368  000932  6E0E               	movwf	(___flmul@a+3)^0,c
  1369  000934  C0C6  F001         	movff	cancion1@j,___wmul@multiplier
  1370  000938  C0C7  F002         	movff	cancion1@j+1,___wmul@multiplier+1
  1371  00093C  0E00               	movlw	0
  1372  00093E  6E04               	movwf	(___wmul@multiplicand+1)^0,c
  1373  000940  0E0C               	movlw	12
  1374  000942  6E03               	movwf	___wmul@multiplicand^0,c
  1375  000944  EC98  F019         	call	___wmul	;wreg free
  1376  000948  0EF0               	movlw	low _cancion
  1377  00094A  2401               	addwf	?___wmul^0,w,c
  1378  00094C  6ED9               	movwf	fsr2l,c
  1379  00094E  0E05               	movlw	high _cancion
  1380  000950  2002               	addwfc	(?___wmul+1)^0,w,c
  1381  000952  6EDA               	movwf	fsr2h,c
  1382  000954  CFDE F007          	movff	postinc2,___flmul@b
  1383  000958  CFDE F008          	movff	postinc2,___flmul@b+1
  1384  00095C  CFDE F009          	movff	postinc2,___flmul@b+2
  1385  000960  CFDE F00A          	movff	postinc2,___flmul@b+3
  1386  000964  ECD2  F009         	call	___flmul	;wreg free
  1387  000968  C007  F028         	movff	?___flmul,___fltol@f1
  1388  00096C  C008  F029         	movff	?___flmul+1,___fltol@f1+1
  1389  000970  C009  F02A         	movff	?___flmul+2,___fltol@f1+2
  1390  000974  C00A  F02B         	movff	?___flmul+3,___fltol@f1+3
  1391  000978  ECEB  F014         	call	___fltol	;wreg free
  1392  00097C  C028  F0C2         	movff	?___fltol,_cancion1$1193
  1393  000980  C029  F0C3         	movff	?___fltol+1,_cancion1$1193+1
  1394  000984                     
  1395                           ;main.c: 164:                          tocar_nota(vel*cancion[j][0],cancion[j][1]);
  1396  000984  C0C2  F032         	movff	_cancion1$1193,tocar_nota@duracion
  1397  000988  C0C3  F033         	movff	_cancion1$1193+1,tocar_nota@duracion+1
  1398  00098C  C0C6  F001         	movff	cancion1@j,___wmul@multiplier
  1399  000990  C0C7  F002         	movff	cancion1@j+1,___wmul@multiplier+1
  1400  000994  0E00               	movlw	0
  1401  000996  6E04               	movwf	(___wmul@multiplicand+1)^0,c
  1402  000998  0E0C               	movlw	12
  1403  00099A  6E03               	movwf	___wmul@multiplicand^0,c
  1404  00099C  EC98  F019         	call	___wmul	;wreg free
  1405  0009A0  0EF4               	movlw	low (_cancion+4)
  1406  0009A2  2401               	addwf	?___wmul^0,w,c
  1407  0009A4  6ED9               	movwf	fsr2l,c
  1408  0009A6  0E05               	movlw	high (_cancion+4)
  1409  0009A8  2002               	addwfc	(?___wmul+1)^0,w,c
  1410  0009AA  6EDA               	movwf	fsr2h,c
  1411  0009AC  CFDE F034          	movff	postinc2,tocar_nota@tfrec
  1412  0009B0  CFDE F035          	movff	postinc2,tocar_nota@tfrec+1
  1413  0009B4  CFDE F036          	movff	postinc2,tocar_nota@tfrec+2
  1414  0009B8  CFDE F037          	movff	postinc2,tocar_nota@tfrec+3
  1415  0009BC  ECDF  F011         	call	_tocar_nota	;wreg free
  1416                           
  1417                           ;main.c: 167:                      }
  1418  0009C0  EF9D  F005         	goto	l3304
  1419  0009C4                     l3284:
  1420  0009C4  C0C6  F001         	movff	cancion1@j,___wmul@multiplier
  1421  0009C8  C0C7  F002         	movff	cancion1@j+1,___wmul@multiplier+1
  1422  0009CC  0E00               	movlw	0
  1423  0009CE  6E04               	movwf	(___wmul@multiplicand+1)^0,c
  1424  0009D0  0E0C               	movlw	12
  1425  0009D2  6E03               	movwf	___wmul@multiplicand^0,c
  1426  0009D4  EC98  F019         	call	___wmul	;wreg free
  1427  0009D8  0EF8               	movlw	low (_cancion+8)
  1428  0009DA  2401               	addwf	?___wmul^0,w,c
  1429  0009DC  6ED9               	movwf	fsr2l,c
  1430  0009DE  0E05               	movlw	high (_cancion+8)
  1431  0009E0  2002               	addwfc	(?___wmul+1)^0,w,c
  1432  0009E2  6EDA               	movwf	fsr2h,c
  1433  0009E4  CFDE F007          	movff	postinc2,___fleq@ff1
  1434  0009E8  CFDE F008          	movff	postinc2,___fleq@ff1+1
  1435  0009EC  CFDE F009          	movff	postinc2,___fleq@ff1+2
  1436  0009F0  CFDE F00A          	movff	postinc2,___fleq@ff1+3
  1437  0009F4  0E00               	movlw	0
  1438  0009F6  6E0B               	movwf	___fleq@ff2^0,c
  1439  0009F8  0E00               	movlw	0
  1440  0009FA  6E0C               	movwf	(___fleq@ff2+1)^0,c
  1441  0009FC  0E00               	movlw	0
  1442  0009FE  6E0D               	movwf	(___fleq@ff2+2)^0,c
  1443  000A00  0E00               	movlw	0
  1444  000A02  6E0E               	movwf	(___fleq@ff2+3)^0,c
  1445  000A04  EC4D  F017         	call	___fleq	;wreg free
  1446  000A08  A0D8               	btfss	status,0,c
  1447  000A0A  EF09  F005         	goto	u3541
  1448  000A0E  EF0B  F005         	goto	u3540
  1449  000A12                     u3541:
  1450  000A12  EF9D  F005         	goto	l3304
  1451  000A16                     u3540:
  1452  000A16                     
  1453                           ;main.c: 170:                                                         LCD_XY(1,16);
  1454  000A16  0E00               	movlw	0
  1455  000A18  6E14               	movwf	(LCD_XY@x+1)^0,c
  1456  000A1A  0E01               	movlw	1
  1457  000A1C  6E13               	movwf	LCD_XY@x^0,c
  1458  000A1E  0E00               	movlw	0
  1459  000A20  6E16               	movwf	(LCD_XY@y+1)^0,c
  1460  000A22  0E10               	movlw	16
  1461  000A24  6E15               	movwf	LCD_XY@y^0,c
  1462  000A26  EC6C  F019         	call	_LCD_XY	;wreg free
  1463  000A2A                     
  1464                           ;main.c: 171:                             sprintf(buffer1,"%i",leerADC(0));
  1465  000A2A  0EA3               	movlw	low _buffer1
  1466  000A2C  6E58               	movwf	sprintf@s^0,c
  1467  000A2E  0E00               	movlw	high _buffer1
  1468  000A30  6E59               	movwf	(sprintf@s+1)^0,c
  1469  000A32  0E01               	movlw	low STR_1
  1470  000A34  6E5A               	movwf	sprintf@fmt^0,c
  1471  000A36  0E08               	movlw	high STR_1
  1472  000A38  6E5B               	movwf	(sprintf@fmt+1)^0,c
  1473  000A3A  0E00               	movlw	0
  1474  000A3C  6E0A               	movwf	(leerADC@canal+1)^0,c
  1475  000A3E  0E00               	movlw	0
  1476  000A40  6E09               	movwf	leerADC@canal^0,c
  1477  000A42  ECF3  F016         	call	_leerADC	;wreg free
  1478  000A46  C009  F05C         	movff	?_leerADC,?_sprintf+4
  1479  000A4A  C00A  F05D         	movff	?_leerADC+1,?_sprintf+5
  1480  000A4E  EC7F  F018         	call	_sprintf	;wreg free
  1481  000A52                     
  1482                           ;main.c: 172:                              LCD_Cadena(buffer1);
  1483  000A52  0EA3               	movlw	low _buffer1
  1484  000A54  6E02               	movwf	LCD_Cadena@dato^0,c
  1485  000A56  0E00               	movlw	high _buffer1
  1486  000A58  6E03               	movwf	(LCD_Cadena@dato+1)^0,c
  1487  000A5A  EC35  F019         	call	_LCD_Cadena	;wreg free
  1488  000A5E                     
  1489                           ;main.c: 173:                                 LCD_XY(k,leerADC(0));
  1490  000A5E  C0CF  F013         	movff	_k,LCD_XY@x
  1491  000A62  C0D0  F014         	movff	_k+1,LCD_XY@x+1
  1492  000A66  0E00               	movlw	0
  1493  000A68  6E0A               	movwf	(leerADC@canal+1)^0,c
  1494  000A6A  0E00               	movlw	0
  1495  000A6C  6E09               	movwf	leerADC@canal^0,c
  1496  000A6E  ECF3  F016         	call	_leerADC	;wreg free
  1497  000A72  C009  F015         	movff	?_leerADC,LCD_XY@y
  1498  000A76  C00A  F016         	movff	?_leerADC+1,LCD_XY@y+1
  1499  000A7A  EC6C  F019         	call	_LCD_XY	;wreg free
  1500  000A7E                     
  1501                           ;main.c: 174:                                 LCD_Data(0);
  1502  000A7E  0E00               	movlw	0
  1503  000A80  EC53  F018         	call	_LCD_Data
  1504  000A84                     
  1505                           ;main.c: 175:                                 LCD_XY(1,l);
  1506  000A84  0E00               	movlw	0
  1507  000A86  6E14               	movwf	(LCD_XY@x+1)^0,c
  1508  000A88  0E01               	movlw	1
  1509  000A8A  6E13               	movwf	LCD_XY@x^0,c
  1510  000A8C  C0CD  F015         	movff	_l,LCD_XY@y
  1511  000A90  C0CE  F016         	movff	_l+1,LCD_XY@y+1
  1512  000A94  EC6C  F019         	call	_LCD_XY	;wreg free
  1513  000A98                     
  1514                           ;main.c: 176:                                 LCD_Data(1);
  1515  000A98  0E01               	movlw	1
  1516  000A9A  EC53  F018         	call	_LCD_Data
  1517  000A9E                     
  1518                           ;main.c: 177:                   silencio(vel*cancion[j][0],cancion[j][1]);
  1519  000A9E  0E00               	movlw	0
  1520  000AA0  6E0B               	movwf	___flmul@a^0,c
  1521  000AA2  0E00               	movlw	0
  1522  000AA4  6E0C               	movwf	(___flmul@a+1)^0,c
  1523  000AA6  0EFA               	movlw	250
  1524  000AA8  6E0D               	movwf	(___flmul@a+2)^0,c
  1525  000AAA  0E43               	movlw	67
  1526  000AAC  6E0E               	movwf	(___flmul@a+3)^0,c
  1527  000AAE  C0C6  F001         	movff	cancion1@j,___wmul@multiplier
  1528  000AB2  C0C7  F002         	movff	cancion1@j+1,___wmul@multiplier+1
  1529  000AB6  0E00               	movlw	0
  1530  000AB8  6E04               	movwf	(___wmul@multiplicand+1)^0,c
  1531  000ABA  0E0C               	movlw	12
  1532  000ABC  6E03               	movwf	___wmul@multiplicand^0,c
  1533  000ABE  EC98  F019         	call	___wmul	;wreg free
  1534  000AC2  0EF0               	movlw	low _cancion
  1535  000AC4  2401               	addwf	?___wmul^0,w,c
  1536  000AC6  6ED9               	movwf	fsr2l,c
  1537  000AC8  0E05               	movlw	high _cancion
  1538  000ACA  2002               	addwfc	(?___wmul+1)^0,w,c
  1539  000ACC  6EDA               	movwf	fsr2h,c
  1540  000ACE  CFDE F007          	movff	postinc2,___flmul@b
  1541  000AD2  CFDE F008          	movff	postinc2,___flmul@b+1
  1542  000AD6  CFDE F009          	movff	postinc2,___flmul@b+2
  1543  000ADA  CFDE F00A          	movff	postinc2,___flmul@b+3
  1544  000ADE  ECD2  F009         	call	___flmul	;wreg free
  1545  000AE2  C007  F028         	movff	?___flmul,___fltol@f1
  1546  000AE6  C008  F029         	movff	?___flmul+1,___fltol@f1+1
  1547  000AEA  C009  F02A         	movff	?___flmul+2,___fltol@f1+2
  1548  000AEE  C00A  F02B         	movff	?___flmul+3,___fltol@f1+3
  1549  000AF2  ECEB  F014         	call	___fltol	;wreg free
  1550  000AF6  C028  F0C4         	movff	?___fltol,_cancion1$1194
  1551  000AFA  C029  F0C5         	movff	?___fltol+1,_cancion1$1194+1
  1552  000AFE                     
  1553                           ;main.c: 177:                   silencio(vel*cancion[j][0],cancion[j][1]);
  1554  000AFE  C0C4  F032         	movff	_cancion1$1194,silencio@duracion
  1555  000B02  C0C5  F033         	movff	_cancion1$1194+1,silencio@duracion+1
  1556  000B06  C0C6  F001         	movff	cancion1@j,___wmul@multiplier
  1557  000B0A  C0C7  F002         	movff	cancion1@j+1,___wmul@multiplier+1
  1558  000B0E  0E00               	movlw	0
  1559  000B10  6E04               	movwf	(___wmul@multiplicand+1)^0,c
  1560  000B12  0E0C               	movlw	12
  1561  000B14  6E03               	movwf	___wmul@multiplicand^0,c
  1562  000B16  EC98  F019         	call	___wmul	;wreg free
  1563  000B1A  0EF4               	movlw	low (_cancion+4)
  1564  000B1C  2401               	addwf	?___wmul^0,w,c
  1565  000B1E  6ED9               	movwf	fsr2l,c
  1566  000B20  0E05               	movlw	high (_cancion+4)
  1567  000B22  2002               	addwfc	(?___wmul+1)^0,w,c
  1568  000B24  6EDA               	movwf	fsr2h,c
  1569  000B26  CFDE F034          	movff	postinc2,silencio@tfrec
  1570  000B2A  CFDE F035          	movff	postinc2,silencio@tfrec+1
  1571  000B2E  CFDE F036          	movff	postinc2,silencio@tfrec+2
  1572  000B32  CFDE F037          	movff	postinc2,silencio@tfrec+3
  1573  000B36  ECAA  F012         	call	_silencio	;wreg free
  1574  000B3A                     l3304:
  1575                           
  1576                           ;main.c: 182:             LCD_Comando(1);
  1577  000B3A  0E01               	movlw	1
  1578  000B3C  ECA8  F018         	call	_LCD_Comando
  1579  000B40                     
  1580                           ;main.c: 183:             i++;
  1581  000B40  0100               	movlb	0	; () banked
  1582  000B42  4B80               	infsnz	_i& (0+255),f,b
  1583  000B44  2B81               	incf	(_i+1)& (0+255),f,b
  1584  000B46                     
  1585                           ; BSR set to: 0
  1586                           ;main.c: 184:             l--;
  1587  000B46  07CD               	decf	_l& (0+255),f,b
  1588  000B48  A0D8               	btfss	status,0,c
  1589  000B4A  07CE               	decf	(_l+1)& (0+255),f,b
  1590  000B4C                     
  1591                           ; BSR set to: 0
  1592                           ;main.c: 185:          f = 0;
  1593  000B4C  0E00               	movlw	0
  1594  000B4E  6F82               	movwf	_f& (0+255),b
  1595  000B50                     
  1596                           ; BSR set to: 0
  1597                           ;main.c: 186:          if(i == 14){
  1598  000B50  0E0E               	movlw	14
  1599  000B52  1980               	xorwf	_i& (0+255),w,b
  1600  000B54  1181               	iorwf	(_i+1)& (0+255),w,b
  1601  000B56  A4D8               	btfss	status,2,c
  1602  000B58  EFB0  F005         	goto	u3551
  1603  000B5C  EFB2  F005         	goto	u3550
  1604  000B60                     u3551:
  1605  000B60  EF61  F007         	goto	l3374
  1606  000B64                     u3550:
  1607  000B64                     
  1608                           ; BSR set to: 0
  1609                           ;main.c: 187:              f = 1;
  1610  000B64  0E01               	movlw	1
  1611  000B66  6F82               	movwf	_f& (0+255),b
  1612  000B68  EF61  F007         	goto	l3374
  1613  000B6C                     l3316:
  1614                           
  1615                           ; BSR set to: 0
  1616  000B6C  BF81               	btfsc	(_i+1)& (0+255),7,b
  1617  000B6E  EFBB  F005         	goto	u3561
  1618  000B72  EFBD  F005         	goto	u3560
  1619  000B76                     u3561:
  1620  000B76  EF61  F007         	goto	l3374
  1621  000B7A                     u3560:
  1622  000B7A                     
  1623                           ; BSR set to: 0
  1624  000B7A  BFCE               	btfsc	(_l+1)& (0+255),7,b
  1625  000B7C  EFCB  F005         	goto	u3570
  1626  000B80  51CE               	movf	(_l+1)& (0+255),w,b
  1627  000B82  E107               	bnz	u3571
  1628  000B84  0E0F               	movlw	15
  1629  000B86  5DCD               	subwf	_l& (0+255),w,b
  1630  000B88  B0D8               	btfsc	status,0,c
  1631  000B8A  EFC9  F005         	goto	u3571
  1632  000B8E  EFCB  F005         	goto	u3570
  1633  000B92                     u3571:
  1634  000B92  EF61  F007         	goto	l3374
  1635  000B96                     u3570:
  1636  000B96                     
  1637                           ; BSR set to: 0
  1638  000B96  0582               	decf	_f& (0+255),w,b
  1639  000B98  A4D8               	btfss	status,2,c
  1640  000B9A  EFD1  F005         	goto	u3581
  1641  000B9E  EFD3  F005         	goto	u3580
  1642  000BA2                     u3581:
  1643  000BA2  EF61  F007         	goto	l3374
  1644  000BA6                     u3580:
  1645  000BA6                     
  1646                           ; BSR set to: 0
  1647                           ;main.c: 196:                       if(cancion[j][2] == 1){
  1648  000BA6  C0C6  F001         	movff	cancion1@j,___wmul@multiplier
  1649  000BAA  C0C7  F002         	movff	cancion1@j+1,___wmul@multiplier+1
  1650  000BAE  0E00               	movlw	0
  1651  000BB0  6E04               	movwf	(___wmul@multiplicand+1)^0,c
  1652  000BB2  0E0C               	movlw	12
  1653  000BB4  6E03               	movwf	___wmul@multiplicand^0,c
  1654  000BB6  EC98  F019         	call	___wmul	;wreg free
  1655  000BBA  0EF8               	movlw	low (_cancion+8)
  1656  000BBC  2401               	addwf	?___wmul^0,w,c
  1657  000BBE  6ED9               	movwf	fsr2l,c
  1658  000BC0  0E05               	movlw	high (_cancion+8)
  1659  000BC2  2002               	addwfc	(?___wmul+1)^0,w,c
  1660  000BC4  6EDA               	movwf	fsr2h,c
  1661  000BC6  CFDE F007          	movff	postinc2,___fleq@ff1
  1662  000BCA  CFDE F008          	movff	postinc2,___fleq@ff1+1
  1663  000BCE  CFDE F009          	movff	postinc2,___fleq@ff1+2
  1664  000BD2  CFDE F00A          	movff	postinc2,___fleq@ff1+3
  1665  000BD6  0E00               	movlw	0
  1666  000BD8  6E0B               	movwf	___fleq@ff2^0,c
  1667  000BDA  0E00               	movlw	0
  1668  000BDC  6E0C               	movwf	(___fleq@ff2+1)^0,c
  1669  000BDE  0E80               	movlw	128
  1670  000BE0  6E0D               	movwf	(___fleq@ff2+2)^0,c
  1671  000BE2  0E3F               	movlw	63
  1672  000BE4  6E0E               	movwf	(___fleq@ff2+3)^0,c
  1673  000BE6  EC4D  F017         	call	___fleq	;wreg free
  1674  000BEA  A0D8               	btfss	status,0,c
  1675  000BEC  EFFA  F005         	goto	u3591
  1676  000BF0  EFFC  F005         	goto	u3590
  1677  000BF4                     u3591:
  1678  000BF4  EF90  F006         	goto	l3342
  1679  000BF8                     u3590:
  1680  000BF8                     
  1681                           ;main.c: 197:                                                           LCD_XY(1,16);
  1682  000BF8  0E00               	movlw	0
  1683  000BFA  6E14               	movwf	(LCD_XY@x+1)^0,c
  1684  000BFC  0E01               	movlw	1
  1685  000BFE  6E13               	movwf	LCD_XY@x^0,c
  1686  000C00  0E00               	movlw	0
  1687  000C02  6E16               	movwf	(LCD_XY@y+1)^0,c
  1688  000C04  0E10               	movlw	16
  1689  000C06  6E15               	movwf	LCD_XY@y^0,c
  1690  000C08  EC6C  F019         	call	_LCD_XY	;wreg free
  1691  000C0C                     
  1692                           ;main.c: 198:                             sprintf(buffer1,"%i",leerADC(0));
  1693  000C0C  0EA3               	movlw	low _buffer1
  1694  000C0E  6E58               	movwf	sprintf@s^0,c
  1695  000C10  0E00               	movlw	high _buffer1
  1696  000C12  6E59               	movwf	(sprintf@s+1)^0,c
  1697  000C14  0E01               	movlw	low STR_1
  1698  000C16  6E5A               	movwf	sprintf@fmt^0,c
  1699  000C18  0E08               	movlw	high STR_1
  1700  000C1A  6E5B               	movwf	(sprintf@fmt+1)^0,c
  1701  000C1C  0E00               	movlw	0
  1702  000C1E  6E0A               	movwf	(leerADC@canal+1)^0,c
  1703  000C20  0E00               	movlw	0
  1704  000C22  6E09               	movwf	leerADC@canal^0,c
  1705  000C24  ECF3  F016         	call	_leerADC	;wreg free
  1706  000C28  C009  F05C         	movff	?_leerADC,?_sprintf+4
  1707  000C2C  C00A  F05D         	movff	?_leerADC+1,?_sprintf+5
  1708  000C30  EC7F  F018         	call	_sprintf	;wreg free
  1709  000C34                     
  1710                           ;main.c: 199:                              LCD_Cadena(buffer1);
  1711  000C34  0EA3               	movlw	low _buffer1
  1712  000C36  6E02               	movwf	LCD_Cadena@dato^0,c
  1713  000C38  0E00               	movlw	high _buffer1
  1714  000C3A  6E03               	movwf	(LCD_Cadena@dato+1)^0,c
  1715  000C3C  EC35  F019         	call	_LCD_Cadena	;wreg free
  1716  000C40                     
  1717                           ;main.c: 200:                                 LCD_XY(k,leerADC(0));
  1718  000C40  C0CF  F013         	movff	_k,LCD_XY@x
  1719  000C44  C0D0  F014         	movff	_k+1,LCD_XY@x+1
  1720  000C48  0E00               	movlw	0
  1721  000C4A  6E0A               	movwf	(leerADC@canal+1)^0,c
  1722  000C4C  0E00               	movlw	0
  1723  000C4E  6E09               	movwf	leerADC@canal^0,c
  1724  000C50  ECF3  F016         	call	_leerADC	;wreg free
  1725  000C54  C009  F015         	movff	?_leerADC,LCD_XY@y
  1726  000C58  C00A  F016         	movff	?_leerADC+1,LCD_XY@y+1
  1727  000C5C  EC6C  F019         	call	_LCD_XY	;wreg free
  1728  000C60                     
  1729                           ;main.c: 201:                                 LCD_Data(0);
  1730  000C60  0E00               	movlw	0
  1731  000C62  EC53  F018         	call	_LCD_Data
  1732  000C66                     
  1733                           ;main.c: 202:                                 LCD_XY(1,l);
  1734  000C66  0E00               	movlw	0
  1735  000C68  6E14               	movwf	(LCD_XY@x+1)^0,c
  1736  000C6A  0E01               	movlw	1
  1737  000C6C  6E13               	movwf	LCD_XY@x^0,c
  1738  000C6E  C0CD  F015         	movff	_l,LCD_XY@y
  1739  000C72  C0CE  F016         	movff	_l+1,LCD_XY@y+1
  1740  000C76  EC6C  F019         	call	_LCD_XY	;wreg free
  1741  000C7A                     
  1742                           ;main.c: 203:                                 LCD_Data(2);
  1743  000C7A  0E02               	movlw	2
  1744  000C7C  EC53  F018         	call	_LCD_Data
  1745  000C80                     
  1746                           ;main.c: 204:                             tocar_nota(vel*cancion[j][0],cancion[j][1]);
  1747  000C80  0E00               	movlw	0
  1748  000C82  6E0B               	movwf	___flmul@a^0,c
  1749  000C84  0E00               	movlw	0
  1750  000C86  6E0C               	movwf	(___flmul@a+1)^0,c
  1751  000C88  0EFA               	movlw	250
  1752  000C8A  6E0D               	movwf	(___flmul@a+2)^0,c
  1753  000C8C  0E43               	movlw	67
  1754  000C8E  6E0E               	movwf	(___flmul@a+3)^0,c
  1755  000C90  C0C6  F001         	movff	cancion1@j,___wmul@multiplier
  1756  000C94  C0C7  F002         	movff	cancion1@j+1,___wmul@multiplier+1
  1757  000C98  0E00               	movlw	0
  1758  000C9A  6E04               	movwf	(___wmul@multiplicand+1)^0,c
  1759  000C9C  0E0C               	movlw	12
  1760  000C9E  6E03               	movwf	___wmul@multiplicand^0,c
  1761  000CA0  EC98  F019         	call	___wmul	;wreg free
  1762  000CA4  0EF0               	movlw	low _cancion
  1763  000CA6  2401               	addwf	?___wmul^0,w,c
  1764  000CA8  6ED9               	movwf	fsr2l,c
  1765  000CAA  0E05               	movlw	high _cancion
  1766  000CAC  2002               	addwfc	(?___wmul+1)^0,w,c
  1767  000CAE  6EDA               	movwf	fsr2h,c
  1768  000CB0  CFDE F007          	movff	postinc2,___flmul@b
  1769  000CB4  CFDE F008          	movff	postinc2,___flmul@b+1
  1770  000CB8  CFDE F009          	movff	postinc2,___flmul@b+2
  1771  000CBC  CFDE F00A          	movff	postinc2,___flmul@b+3
  1772  000CC0  ECD2  F009         	call	___flmul	;wreg free
  1773  000CC4  C007  F028         	movff	?___flmul,___fltol@f1
  1774  000CC8  C008  F029         	movff	?___flmul+1,___fltol@f1+1
  1775  000CCC  C009  F02A         	movff	?___flmul+2,___fltol@f1+2
  1776  000CD0  C00A  F02B         	movff	?___flmul+3,___fltol@f1+3
  1777  000CD4  ECEB  F014         	call	___fltol	;wreg free
  1778  000CD8  C028  F0C2         	movff	?___fltol,_cancion1$1193
  1779  000CDC  C029  F0C3         	movff	?___fltol+1,_cancion1$1193+1
  1780  000CE0                     
  1781                           ;main.c: 204:                             tocar_nota(vel*cancion[j][0],cancion[j][1]);
  1782  000CE0  C0C2  F032         	movff	_cancion1$1193,tocar_nota@duracion
  1783  000CE4  C0C3  F033         	movff	_cancion1$1193+1,tocar_nota@duracion+1
  1784  000CE8  C0C6  F001         	movff	cancion1@j,___wmul@multiplier
  1785  000CEC  C0C7  F002         	movff	cancion1@j+1,___wmul@multiplier+1
  1786  000CF0  0E00               	movlw	0
  1787  000CF2  6E04               	movwf	(___wmul@multiplicand+1)^0,c
  1788  000CF4  0E0C               	movlw	12
  1789  000CF6  6E03               	movwf	___wmul@multiplicand^0,c
  1790  000CF8  EC98  F019         	call	___wmul	;wreg free
  1791  000CFC  0EF4               	movlw	low (_cancion+4)
  1792  000CFE  2401               	addwf	?___wmul^0,w,c
  1793  000D00  6ED9               	movwf	fsr2l,c
  1794  000D02  0E05               	movlw	high (_cancion+4)
  1795  000D04  2002               	addwfc	(?___wmul+1)^0,w,c
  1796  000D06  6EDA               	movwf	fsr2h,c
  1797  000D08  CFDE F034          	movff	postinc2,tocar_nota@tfrec
  1798  000D0C  CFDE F035          	movff	postinc2,tocar_nota@tfrec+1
  1799  000D10  CFDE F036          	movff	postinc2,tocar_nota@tfrec+2
  1800  000D14  CFDE F037          	movff	postinc2,tocar_nota@tfrec+3
  1801  000D18  ECDF  F011         	call	_tocar_nota	;wreg free
  1802                           
  1803                           ;main.c: 209:                      }
  1804  000D1C  EF4B  F007         	goto	l3362
  1805  000D20                     l3342:
  1806  000D20  C0C6  F001         	movff	cancion1@j,___wmul@multiplier
  1807  000D24  C0C7  F002         	movff	cancion1@j+1,___wmul@multiplier+1
  1808  000D28  0E00               	movlw	0
  1809  000D2A  6E04               	movwf	(___wmul@multiplicand+1)^0,c
  1810  000D2C  0E0C               	movlw	12
  1811  000D2E  6E03               	movwf	___wmul@multiplicand^0,c
  1812  000D30  EC98  F019         	call	___wmul	;wreg free
  1813  000D34  0EF8               	movlw	low (_cancion+8)
  1814  000D36  2401               	addwf	?___wmul^0,w,c
  1815  000D38  6ED9               	movwf	fsr2l,c
  1816  000D3A  0E05               	movlw	high (_cancion+8)
  1817  000D3C  2002               	addwfc	(?___wmul+1)^0,w,c
  1818  000D3E  6EDA               	movwf	fsr2h,c
  1819  000D40  CFDE F007          	movff	postinc2,___fleq@ff1
  1820  000D44  CFDE F008          	movff	postinc2,___fleq@ff1+1
  1821  000D48  CFDE F009          	movff	postinc2,___fleq@ff1+2
  1822  000D4C  CFDE F00A          	movff	postinc2,___fleq@ff1+3
  1823  000D50  0E00               	movlw	0
  1824  000D52  6E0B               	movwf	___fleq@ff2^0,c
  1825  000D54  0E00               	movlw	0
  1826  000D56  6E0C               	movwf	(___fleq@ff2+1)^0,c
  1827  000D58  0E00               	movlw	0
  1828  000D5A  6E0D               	movwf	(___fleq@ff2+2)^0,c
  1829  000D5C  0E00               	movlw	0
  1830  000D5E  6E0E               	movwf	(___fleq@ff2+3)^0,c
  1831  000D60  EC4D  F017         	call	___fleq	;wreg free
  1832  000D64  A0D8               	btfss	status,0,c
  1833  000D66  EFB7  F006         	goto	u3601
  1834  000D6A  EFB9  F006         	goto	u3600
  1835  000D6E                     u3601:
  1836  000D6E  EF4B  F007         	goto	l3362
  1837  000D72                     u3600:
  1838  000D72                     
  1839                           ;main.c: 212:                                LCD_XY(1,16);
  1840  000D72  0E00               	movlw	0
  1841  000D74  6E14               	movwf	(LCD_XY@x+1)^0,c
  1842  000D76  0E01               	movlw	1
  1843  000D78  6E13               	movwf	LCD_XY@x^0,c
  1844  000D7A  0E00               	movlw	0
  1845  000D7C  6E16               	movwf	(LCD_XY@y+1)^0,c
  1846  000D7E  0E10               	movlw	16
  1847  000D80  6E15               	movwf	LCD_XY@y^0,c
  1848  000D82  EC6C  F019         	call	_LCD_XY	;wreg free
  1849  000D86                     
  1850                           ;main.c: 213:                             sprintf(buffer1,"%i",leerADC(0));
  1851  000D86  0EA3               	movlw	low _buffer1
  1852  000D88  6E58               	movwf	sprintf@s^0,c
  1853  000D8A  0E00               	movlw	high _buffer1
  1854  000D8C  6E59               	movwf	(sprintf@s+1)^0,c
  1855  000D8E  0E01               	movlw	low STR_1
  1856  000D90  6E5A               	movwf	sprintf@fmt^0,c
  1857  000D92  0E08               	movlw	high STR_1
  1858  000D94  6E5B               	movwf	(sprintf@fmt+1)^0,c
  1859  000D96  0E00               	movlw	0
  1860  000D98  6E0A               	movwf	(leerADC@canal+1)^0,c
  1861  000D9A  0E00               	movlw	0
  1862  000D9C  6E09               	movwf	leerADC@canal^0,c
  1863  000D9E  ECF3  F016         	call	_leerADC	;wreg free
  1864  000DA2  C009  F05C         	movff	?_leerADC,?_sprintf+4
  1865  000DA6  C00A  F05D         	movff	?_leerADC+1,?_sprintf+5
  1866  000DAA  EC7F  F018         	call	_sprintf	;wreg free
  1867  000DAE                     
  1868                           ;main.c: 214:                              LCD_Cadena(buffer1);
  1869  000DAE  0EA3               	movlw	low _buffer1
  1870  000DB0  6E02               	movwf	LCD_Cadena@dato^0,c
  1871  000DB2  0E00               	movlw	high _buffer1
  1872  000DB4  6E03               	movwf	(LCD_Cadena@dato+1)^0,c
  1873  000DB6  EC35  F019         	call	_LCD_Cadena	;wreg free
  1874  000DBA                     
  1875                           ;main.c: 215:                                 LCD_XY(k,leerADC(0));
  1876  000DBA  C0CF  F013         	movff	_k,LCD_XY@x
  1877  000DBE  C0D0  F014         	movff	_k+1,LCD_XY@x+1
  1878  000DC2  0E00               	movlw	0
  1879  000DC4  6E0A               	movwf	(leerADC@canal+1)^0,c
  1880  000DC6  0E00               	movlw	0
  1881  000DC8  6E09               	movwf	leerADC@canal^0,c
  1882  000DCA  ECF3  F016         	call	_leerADC	;wreg free
  1883  000DCE  C009  F015         	movff	?_leerADC,LCD_XY@y
  1884  000DD2  C00A  F016         	movff	?_leerADC+1,LCD_XY@y+1
  1885  000DD6  EC6C  F019         	call	_LCD_XY	;wreg free
  1886  000DDA                     
  1887                           ;main.c: 216:                                 LCD_Data(0);
  1888  000DDA  0E00               	movlw	0
  1889  000DDC  EC53  F018         	call	_LCD_Data
  1890  000DE0                     
  1891                           ;main.c: 217:                                 LCD_XY(1,l);
  1892  000DE0  0E00               	movlw	0
  1893  000DE2  6E14               	movwf	(LCD_XY@x+1)^0,c
  1894  000DE4  0E01               	movlw	1
  1895  000DE6  6E13               	movwf	LCD_XY@x^0,c
  1896  000DE8  C0CD  F015         	movff	_l,LCD_XY@y
  1897  000DEC  C0CE  F016         	movff	_l+1,LCD_XY@y+1
  1898  000DF0  EC6C  F019         	call	_LCD_XY	;wreg free
  1899  000DF4                     
  1900                           ;main.c: 218:                                 LCD_Data(2);
  1901  000DF4  0E02               	movlw	2
  1902  000DF6  EC53  F018         	call	_LCD_Data
  1903  000DFA                     
  1904                           ;main.c: 219:                          silencio(vel*cancion[j][0],cancion[j][1]);
  1905  000DFA  0E00               	movlw	0
  1906  000DFC  6E0B               	movwf	___flmul@a^0,c
  1907  000DFE  0E00               	movlw	0
  1908  000E00  6E0C               	movwf	(___flmul@a+1)^0,c
  1909  000E02  0EFA               	movlw	250
  1910  000E04  6E0D               	movwf	(___flmul@a+2)^0,c
  1911  000E06  0E43               	movlw	67
  1912  000E08  6E0E               	movwf	(___flmul@a+3)^0,c
  1913  000E0A  C0C6  F001         	movff	cancion1@j,___wmul@multiplier
  1914  000E0E  C0C7  F002         	movff	cancion1@j+1,___wmul@multiplier+1
  1915  000E12  0E00               	movlw	0
  1916  000E14  6E04               	movwf	(___wmul@multiplicand+1)^0,c
  1917  000E16  0E0C               	movlw	12
  1918  000E18  6E03               	movwf	___wmul@multiplicand^0,c
  1919  000E1A  EC98  F019         	call	___wmul	;wreg free
  1920  000E1E  0EF0               	movlw	low _cancion
  1921  000E20  2401               	addwf	?___wmul^0,w,c
  1922  000E22  6ED9               	movwf	fsr2l,c
  1923  000E24  0E05               	movlw	high _cancion
  1924  000E26  2002               	addwfc	(?___wmul+1)^0,w,c
  1925  000E28  6EDA               	movwf	fsr2h,c
  1926  000E2A  CFDE F007          	movff	postinc2,___flmul@b
  1927  000E2E  CFDE F008          	movff	postinc2,___flmul@b+1
  1928  000E32  CFDE F009          	movff	postinc2,___flmul@b+2
  1929  000E36  CFDE F00A          	movff	postinc2,___flmul@b+3
  1930  000E3A  ECD2  F009         	call	___flmul	;wreg free
  1931  000E3E  C007  F028         	movff	?___flmul,___fltol@f1
  1932  000E42  C008  F029         	movff	?___flmul+1,___fltol@f1+1
  1933  000E46  C009  F02A         	movff	?___flmul+2,___fltol@f1+2
  1934  000E4A  C00A  F02B         	movff	?___flmul+3,___fltol@f1+3
  1935  000E4E  ECEB  F014         	call	___fltol	;wreg free
  1936  000E52  C028  F0C4         	movff	?___fltol,_cancion1$1194
  1937  000E56  C029  F0C5         	movff	?___fltol+1,_cancion1$1194+1
  1938  000E5A                     
  1939                           ;main.c: 219:                          silencio(vel*cancion[j][0],cancion[j][1]);
  1940  000E5A  C0C4  F032         	movff	_cancion1$1194,silencio@duracion
  1941  000E5E  C0C5  F033         	movff	_cancion1$1194+1,silencio@duracion+1
  1942  000E62  C0C6  F001         	movff	cancion1@j,___wmul@multiplier
  1943  000E66  C0C7  F002         	movff	cancion1@j+1,___wmul@multiplier+1
  1944  000E6A  0E00               	movlw	0
  1945  000E6C  6E04               	movwf	(___wmul@multiplicand+1)^0,c
  1946  000E6E  0E0C               	movlw	12
  1947  000E70  6E03               	movwf	___wmul@multiplicand^0,c
  1948  000E72  EC98  F019         	call	___wmul	;wreg free
  1949  000E76  0EF4               	movlw	low (_cancion+4)
  1950  000E78  2401               	addwf	?___wmul^0,w,c
  1951  000E7A  6ED9               	movwf	fsr2l,c
  1952  000E7C  0E05               	movlw	high (_cancion+4)
  1953  000E7E  2002               	addwfc	(?___wmul+1)^0,w,c
  1954  000E80  6EDA               	movwf	fsr2h,c
  1955  000E82  CFDE F034          	movff	postinc2,silencio@tfrec
  1956  000E86  CFDE F035          	movff	postinc2,silencio@tfrec+1
  1957  000E8A  CFDE F036          	movff	postinc2,silencio@tfrec+2
  1958  000E8E  CFDE F037          	movff	postinc2,silencio@tfrec+3
  1959  000E92  ECAA  F012         	call	_silencio	;wreg free
  1960  000E96                     l3362:
  1961                           
  1962                           ;main.c: 226:             LCD_Comando(1);
  1963  000E96  0E01               	movlw	1
  1964  000E98  ECA8  F018         	call	_LCD_Comando
  1965  000E9C                     
  1966                           ;main.c: 227:             i--;
  1967  000E9C  0100               	movlb	0	; () banked
  1968  000E9E  0780               	decf	_i& (0+255),f,b
  1969  000EA0  A0D8               	btfss	status,0,c
  1970  000EA2  0781               	decf	(_i+1)& (0+255),f,b
  1971  000EA4                     
  1972                           ; BSR set to: 0
  1973                           ;main.c: 228:             l++;
  1974  000EA4  4BCD               	infsnz	_l& (0+255),f,b
  1975  000EA6  2BCE               	incf	(_l+1)& (0+255),f,b
  1976  000EA8                     
  1977                           ; BSR set to: 0
  1978                           ;main.c: 229:             f = 1;
  1979  000EA8  0E01               	movlw	1
  1980  000EAA  6F82               	movwf	_f& (0+255),b
  1981  000EAC                     
  1982                           ; BSR set to: 0
  1983                           ;main.c: 231:              if(i == 0){
  1984  000EAC  5180               	movf	_i& (0+255),w,b
  1985  000EAE  1181               	iorwf	(_i+1)& (0+255),w,b
  1986  000EB0  A4D8               	btfss	status,2,c
  1987  000EB2  EF5D  F007         	goto	u3611
  1988  000EB6  EF5F  F007         	goto	u3610
  1989  000EBA                     u3611:
  1990  000EBA  EF61  F007         	goto	l3374
  1991  000EBE                     u3610:
  1992  000EBE                     
  1993                           ; BSR set to: 0
  1994                           ;main.c: 232:              f = 0;
  1995  000EBE  0E00               	movlw	0
  1996  000EC0  6F82               	movwf	_f& (0+255),b
  1997  000EC2                     l3374:
  1998                           
  1999                           ; BSR set to: 0
  2000                           ;main.c: 237:    }
  2001  000EC2  4BC6               	infsnz	cancion1@j& (0+255),f,b
  2002  000EC4  2BC7               	incf	(cancion1@j+1)& (0+255),f,b
  2003  000EC6                     
  2004                           ; BSR set to: 0
  2005  000EC6  BFC7               	btfsc	(cancion1@j+1)& (0+255),7,b
  2006  000EC8  EF6F  F007         	goto	u3621
  2007  000ECC  51C7               	movf	(cancion1@j+1)& (0+255),w,b
  2008  000ECE  E109               	bnz	u3620
  2009  000ED0  0E2C               	movlw	44
  2010  000ED2  5DC6               	subwf	cancion1@j& (0+255),w,b
  2011  000ED4  A0D8               	btfss	status,0,c
  2012  000ED6  EF6F  F007         	goto	u3621
  2013  000EDA  EF71  F007         	goto	u3620
  2014  000EDE                     u3621:
  2015  000EDE  EF08  F004         	goto	l3258
  2016  000EE2                     u3620:
  2017  000EE2                     
  2018                           ; BSR set to: 0
  2019  000EE2  0012               	return		;funcret
  2020  000EE4                     __end_of_cancion1:
  2021                           	callstack 0
  2022                           
  2023 ;; *************** function _tocar_nota *****************
  2024 ;; Defined at:
  2025 ;;		line 53 in file "main.c"
  2026 ;; Parameters:    Size  Location     Type
  2027 ;;  duracion        2   49[COMRAM] int 
  2028 ;;  tfrec           4   51[COMRAM] float 
  2029 ;; Auto vars:     Size  Location     Type
  2030 ;;  duracion2       2   60[COMRAM] int 
  2031 ;; Return value:  Size  Location     Type
  2032 ;;                  1    wreg      void 
  2033 ;; Registers used:
  2034 ;;		wreg, status,2, status,0, cstack
  2035 ;; Tracked objects:
  2036 ;;		On entry : 0/0
  2037 ;;		On exit  : 0/0
  2038 ;;		Unchanged: 0/0
  2039 ;; Data sizes:     COMRAM   BANK0   BANK1   BANK2   BANK3   BANK4   BANK5   BANK6   BANK7
  2040 ;;      Params:         6       0       0       0       0       0       0       0       0
  2041 ;;      Locals:         6       0       0       0       0       0       0       0       0
  2042 ;;      Temps:          1       0       0       0       0       0       0       0       0
  2043 ;;      Totals:        13       0       0       0       0       0       0       0       0
  2044 ;;Total ram usage:       13 bytes
  2045 ;; Hardware stack levels used: 1
  2046 ;; Hardware stack levels required when called: 2
  2047 ;; This function calls:
  2048 ;;		___fldiv
  2049 ;;		___flsub
  2050 ;;		___fltol
  2051 ;;		___xxtofl
  2052 ;; This function is called by:
  2053 ;;		_cancion1
  2054 ;; This function uses a non-reentrant model
  2055 ;;
  2056                           
  2057                           	psect	text4
  2058  0023BE                     __ptext4:
  2059                           	callstack 0
  2060  0023BE                     _tocar_nota:
  2061                           	callstack 27
  2062  0023BE                     
  2063                           ;main.c: 55:      int duracion2;;main.c: 56:      duracion2 = (int)duracion/tfrec;
  2064  0023BE  C034  F013         	movff	tocar_nota@tfrec,___fldiv@a
  2065  0023C2  C035  F014         	movff	tocar_nota@tfrec+1,___fldiv@a+1
  2066  0023C6  C036  F015         	movff	tocar_nota@tfrec+2,___fldiv@a+2
  2067  0023CA  C037  F016         	movff	tocar_nota@tfrec+3,___fldiv@a+3
  2068  0023CE  C032  F001         	movff	tocar_nota@duracion,___xxtofl@val
  2069  0023D2  C033  F002         	movff	tocar_nota@duracion+1,___xxtofl@val+1
  2070  0023D6  0E00               	movlw	0
  2071  0023D8  BE02               	btfsc	(___xxtofl@val+1)^0,7,c
  2072  0023DA  0EFF               	movlw	-1
  2073  0023DC  6E03               	movwf	(___xxtofl@val+2)^0,c
  2074  0023DE  6E04               	movwf	(___xxtofl@val+3)^0,c
  2075  0023E0  0E01               	movlw	1
  2076  0023E2  EC05  F011         	call	___xxtofl
  2077  0023E6  C001  F00F         	movff	?___xxtofl,___fldiv@b
  2078  0023EA  C002  F010         	movff	?___xxtofl+1,___fldiv@b+1
  2079  0023EE  C003  F011         	movff	?___xxtofl+2,___fldiv@b+2
  2080  0023F2  C004  F012         	movff	?___xxtofl+3,___fldiv@b+3
  2081  0023F6  ECE7  F00B         	call	___fldiv	;wreg free
  2082  0023FA  C00F  F028         	movff	?___fldiv,___fltol@f1
  2083  0023FE  C010  F029         	movff	?___fldiv+1,___fltol@f1+1
  2084  002402  C011  F02A         	movff	?___fldiv+2,___fltol@f1+2
  2085  002406  C012  F02B         	movff	?___fldiv+3,___fltol@f1+3
  2086  00240A  ECEB  F014         	call	___fltol	;wreg free
  2087  00240E  C028  F03D         	movff	?___fltol,tocar_nota@duracion2
  2088  002412  C029  F03E         	movff	?___fltol+1,tocar_nota@duracion2+1
  2089                           
  2090                           ;main.c: 57:      tfrec = 255-((tfrec/2)/(.0002*128));
  2091  002416  0E00               	movlw	0
  2092  002418  6E13               	movwf	___fldiv@a^0,c
  2093  00241A  0E00               	movlw	0
  2094  00241C  6E14               	movwf	(___fldiv@a+1)^0,c
  2095  00241E  0E00               	movlw	0
  2096  002420  6E15               	movwf	(___fldiv@a+2)^0,c
  2097  002422  0E40               	movlw	64
  2098  002424  6E16               	movwf	(___fldiv@a+3)^0,c
  2099  002426  C034  F00F         	movff	tocar_nota@tfrec,___fldiv@b
  2100  00242A  C035  F010         	movff	tocar_nota@tfrec+1,___fldiv@b+1
  2101  00242E  C036  F011         	movff	tocar_nota@tfrec+2,___fldiv@b+2
  2102  002432  C037  F012         	movff	tocar_nota@tfrec+3,___fldiv@b+3
  2103  002436  ECE7  F00B         	call	___fldiv	;wreg free
  2104  00243A  C00F  F039         	movff	?___fldiv,_tocar_nota$1191
  2105  00243E  C010  F03A         	movff	?___fldiv+1,_tocar_nota$1191+1
  2106  002442  C011  F03B         	movff	?___fldiv+2,_tocar_nota$1191+2
  2107  002446  C012  F03C         	movff	?___fldiv+3,_tocar_nota$1191+3
  2108                           
  2109                           ;main.c: 57:      tfrec = 255-((tfrec/2)/(.0002*128));
  2110  00244A  0E00               	movlw	0
  2111  00244C  6E28               	movwf	___flsub@b^0,c
  2112  00244E  0E00               	movlw	0
  2113  002450  6E29               	movwf	(___flsub@b+1)^0,c
  2114  002452  0E7F               	movlw	127
  2115  002454  6E2A               	movwf	(___flsub@b+2)^0,c
  2116  002456  0E43               	movlw	67
  2117  002458  6E2B               	movwf	(___flsub@b+3)^0,c
  2118  00245A  0E17               	movlw	23
  2119  00245C  6E13               	movwf	___fldiv@a^0,c
  2120  00245E  0EB7               	movlw	183
  2121  002460  6E14               	movwf	(___fldiv@a+1)^0,c
  2122  002462  0ED1               	movlw	209
  2123  002464  6E15               	movwf	(___fldiv@a+2)^0,c
  2124  002466  0E3C               	movlw	60
  2125  002468  6E16               	movwf	(___fldiv@a+3)^0,c
  2126  00246A  C039  F00F         	movff	_tocar_nota$1191,___fldiv@b
  2127  00246E  C03A  F010         	movff	_tocar_nota$1191+1,___fldiv@b+1
  2128  002472  C03B  F011         	movff	_tocar_nota$1191+2,___fldiv@b+2
  2129  002476  C03C  F012         	movff	_tocar_nota$1191+3,___fldiv@b+3
  2130  00247A  ECE7  F00B         	call	___fldiv	;wreg free
  2131  00247E  C00F  F02C         	movff	?___fldiv,___flsub@a
  2132  002482  C010  F02D         	movff	?___fldiv+1,___flsub@a+1
  2133  002486  C011  F02E         	movff	?___fldiv+2,___flsub@a+2
  2134  00248A  C012  F02F         	movff	?___fldiv+3,___flsub@a+3
  2135  00248E  ECD0  F018         	call	___flsub	;wreg free
  2136  002492  C028  F034         	movff	?___flsub,tocar_nota@tfrec
  2137  002496  C029  F035         	movff	?___flsub+1,tocar_nota@tfrec+1
  2138  00249A  C02A  F036         	movff	?___flsub+2,tocar_nota@tfrec+2
  2139  00249E  C02B  F037         	movff	?___flsub+3,tocar_nota@tfrec+3
  2140  0024A2                     
  2141                           ;main.c: 59:        for(b=0;b<duracion2;b++){
  2142  0024A2  0E00               	movlw	0
  2143  0024A4  0100               	movlb	0	; () banked
  2144  0024A6  6F7D               	movwf	(_b+1)& (0+255),b
  2145  0024A8  0E00               	movlw	0
  2146  0024AA  6F7C               	movwf	_b& (0+255),b
  2147  0024AC  EF9A  F012         	goto	l2998
  2148  0024B0                     l101:
  2149                           
  2150                           ; BSR set to: 0
  2151                           ;main.c: 60:             if(PORTBbits.RB0 == 1){
  2152  0024B0  A081               	btfss	129,0,c	;volatile
  2153  0024B2  EF5D  F012         	goto	u3131
  2154  0024B6  EF5F  F012         	goto	u3130
  2155  0024BA                     u3131:
  2156  0024BA  EF65  F012         	goto	l2988
  2157  0024BE                     u3130:
  2158  0024BE                     
  2159                           ; BSR set to: 0
  2160                           ;main.c: 61:                                     k = 0;
  2161  0024BE  0E00               	movlw	0
  2162  0024C0  6FD0               	movwf	(_k+1)& (0+255),b
  2163  0024C2  0E00               	movlw	0
  2164  0024C4  6FCF               	movwf	_k& (0+255),b
  2165                           
  2166                           ;main.c: 62:                                 }
  2167  0024C6  EF69  F012         	goto	l2990
  2168  0024CA                     l2988:
  2169                           
  2170                           ; BSR set to: 0
  2171                           ;main.c: 64:                                     k = 1;
  2172  0024CA  0E00               	movlw	0
  2173  0024CC  6FD0               	movwf	(_k+1)& (0+255),b
  2174  0024CE  0E01               	movlw	1
  2175  0024D0  6FCF               	movwf	_k& (0+255),b
  2176  0024D2                     l2990:
  2177                           
  2178                           ; BSR set to: 0
  2179                           ;main.c: 66:            PORTBbits.RB1 = 1;
  2180  0024D2  8281               	bsf	129,1,c	;volatile
  2181  0024D4                     
  2182                           ; BSR set to: 0
  2183                           ;main.c: 67:            TMR0 = tfrec;
  2184  0024D4  C034  F028         	movff	tocar_nota@tfrec,___fltol@f1
  2185  0024D8  C035  F029         	movff	tocar_nota@tfrec+1,___fltol@f1+1
  2186  0024DC  C036  F02A         	movff	tocar_nota@tfrec+2,___fltol@f1+2
  2187  0024E0  C037  F02B         	movff	tocar_nota@tfrec+3,___fltol@f1+3
  2188  0024E4  ECEB  F014         	call	___fltol	;wreg free
  2189  0024E8  C028  FFD6         	movff	?___fltol,4054	;volatile
  2190  0024EC  C029  FFD7         	movff	?___fltol+1,4055	;volatile
  2191  0024F0                     l104:
  2192  0024F0  A4F2               	btfss	242,2,c	;volatile
  2193  0024F2  EF7D  F012         	goto	u3141
  2194  0024F6  EF7F  F012         	goto	u3140
  2195  0024FA                     u3141:
  2196  0024FA  EF78  F012         	goto	l104
  2197  0024FE                     u3140:
  2198  0024FE                     
  2199                           ;main.c: 69:            INTCONbits.TMR0IF=0;
  2200  0024FE  94F2               	bcf	242,2,c	;volatile
  2201                           
  2202                           ;main.c: 71:         PORTBbits.RB1=0;
  2203  002500  9281               	bcf	129,1,c	;volatile
  2204  002502                     
  2205                           ;main.c: 72:          TMR0 = tfrec;
  2206  002502  C034  F028         	movff	tocar_nota@tfrec,___fltol@f1
  2207  002506  C035  F029         	movff	tocar_nota@tfrec+1,___fltol@f1+1
  2208  00250A  C036  F02A         	movff	tocar_nota@tfrec+2,___fltol@f1+2
  2209  00250E  C037  F02B         	movff	tocar_nota@tfrec+3,___fltol@f1+3
  2210  002512  ECEB  F014         	call	___fltol	;wreg free
  2211  002516  C028  FFD6         	movff	?___fltol,4054	;volatile
  2212  00251A  C029  FFD7         	movff	?___fltol+1,4055	;volatile
  2213  00251E                     l107:
  2214  00251E  A4F2               	btfss	242,2,c	;volatile
  2215  002520  EF94  F012         	goto	u3151
  2216  002524  EF96  F012         	goto	u3150
  2217  002528                     u3151:
  2218  002528  EF8F  F012         	goto	l107
  2219  00252C                     u3150:
  2220  00252C                     
  2221                           ;main.c: 74:          INTCONbits.TMR0IF=0;
  2222  00252C  94F2               	bcf	242,2,c	;volatile
  2223  00252E                     
  2224                           ;main.c: 75: }
  2225  00252E  0100               	movlb	0	; () banked
  2226  002530  4B7C               	infsnz	_b& (0+255),f,b
  2227  002532  2B7D               	incf	(_b+1)& (0+255),f,b
  2228  002534                     l2998:
  2229                           
  2230                           ; BSR set to: 0
  2231  002534  503D               	movf	tocar_nota@duracion2^0,w,c
  2232  002536  5D7C               	subwf	_b& (0+255),w,b
  2233  002538  517D               	movf	(_b+1)& (0+255),w,b
  2234  00253A  0A80               	xorlw	128
  2235  00253C  6E38               	movwf	??_tocar_nota^0,c
  2236  00253E  503E               	movf	(tocar_nota@duracion2+1)^0,w,c
  2237  002540  0A80               	xorlw	128
  2238  002542  5838               	subwfb	??_tocar_nota^0,w,c
  2239  002544  A0D8               	btfss	status,0,c
  2240  002546  EFA7  F012         	goto	u3161
  2241  00254A  EFA9  F012         	goto	u3160
  2242  00254E                     u3161:
  2243  00254E  EF58  F012         	goto	l101
  2244  002552                     u3160:
  2245  002552                     
  2246                           ; BSR set to: 0
  2247  002552  0012               	return		;funcret
  2248  002554                     __end_of_tocar_nota:
  2249                           	callstack 0
  2250                           
  2251 ;; *************** function _sprintf *****************
  2252 ;; Defined at:
  2253 ;;		line 9 in file "C:\Program Files\Microchip\xc8\v2.32\pic\sources\c99\common\nf_sprintf.c"
  2254 ;; Parameters:    Size  Location     Type
  2255 ;;  s               2   87[COMRAM] PTR unsigned char 
  2256 ;;		 -> buffer1(23), 
  2257 ;;  fmt             2   89[COMRAM] PTR const unsigned char 
  2258 ;;		 -> STR_4(3), STR_3(3), STR_2(3), STR_1(3), 
  2259 ;; Auto vars:     Size  Location     Type
  2260 ;;  f               6    2[BANK0 ] struct _IO_FILE
  2261 ;;  ap              2    0[BANK0 ] PTR void [1]
  2262 ;;		 -> ?_sprintf(2), 
  2263 ;;  ret             2    0        int 
  2264 ;; Return value:  Size  Location     Type
  2265 ;;                  2   87[COMRAM] int 
  2266 ;; Registers used:
  2267 ;;		wreg, fsr1l, fsr1h, fsr2l, fsr2h, status,2, status,0, tblptrl, tblptrh, tblptru, cstack
  2268 ;; Tracked objects:
  2269 ;;		On entry : 0/0
  2270 ;;		On exit  : 0/0
  2271 ;;		Unchanged: 0/0
  2272 ;; Data sizes:     COMRAM   BANK0   BANK1   BANK2   BANK3   BANK4   BANK5   BANK6   BANK7
  2273 ;;      Params:         6       0       0       0       0       0       0       0       0
  2274 ;;      Locals:         0       8       0       0       0       0       0       0       0
  2275 ;;      Temps:          0       0       0       0       0       0       0       0       0
  2276 ;;      Totals:         6       8       0       0       0       0       0       0       0
  2277 ;;Total ram usage:       14 bytes
  2278 ;; Hardware stack levels used: 1
  2279 ;; Hardware stack levels required when called: 7
  2280 ;; This function calls:
  2281 ;;		_vfprintf
  2282 ;; This function is called by:
  2283 ;;		_cancion1
  2284 ;; This function uses a non-reentrant model
  2285 ;;
  2286                           
  2287                           	psect	text5
  2288  0030FE                     __ptext5:
  2289                           	callstack 0
  2290  0030FE                     _sprintf:
  2291                           	callstack 22
  2292  0030FE  0E5C               	movlw	low (?_sprintf+4)
  2293  003100  0100               	movlb	0	; () banked
  2294  003102  6FBA               	movwf	sprintf@ap& (0+255),b
  2295  003104  0E00               	movlw	high (?_sprintf+4)
  2296  003106  6FBB               	movwf	(sprintf@ap+1)& (0+255),b
  2297  003108  C058  F0BC         	movff	sprintf@s,sprintf@f
  2298  00310C  C059  F0BD         	movff	sprintf@s+1,sprintf@f+1
  2299  003110                     
  2300                           ; BSR set to: 0
  2301  003110  0E00               	movlw	0
  2302  003112  6FBF               	movwf	(sprintf@f+3)& (0+255),b
  2303  003114  0E00               	movlw	0
  2304  003116  6FBE               	movwf	(sprintf@f+2)& (0+255),b
  2305  003118                     
  2306                           ; BSR set to: 0
  2307  003118  0E00               	movlw	0
  2308  00311A  6FC1               	movwf	(sprintf@f+5)& (0+255),b
  2309  00311C  0E00               	movlw	0
  2310  00311E  6FC0               	movwf	(sprintf@f+4)& (0+255),b
  2311  003120                     
  2312                           ; BSR set to: 0
  2313  003120  0EBC               	movlw	low sprintf@f
  2314  003122  6E50               	movwf	vfprintf@fp^0,c
  2315  003124  0E00               	movlw	high sprintf@f
  2316  003126  6E51               	movwf	(vfprintf@fp+1)^0,c
  2317  003128  C05A  F052         	movff	sprintf@fmt,vfprintf@fmt
  2318  00312C  C05B  F053         	movff	sprintf@fmt+1,vfprintf@fmt+1
  2319  003130  0EBA               	movlw	low sprintf@ap
  2320  003132  6E54               	movwf	vfprintf@ap^0,c
  2321  003134  0E00               	movlw	high sprintf@ap
  2322  003136  6E55               	movwf	(vfprintf@ap+1)^0,c
  2323  003138  EC22  F018         	call	_vfprintf	;wreg free
  2324  00313C  0100               	movlb	0	; () banked
  2325  00313E  51BE               	movf	(sprintf@f+2)& (0+255),w,b
  2326  003140  2458               	addwf	sprintf@s^0,w,c
  2327  003142  6ED9               	movwf	fsr2l,c
  2328  003144  51BF               	movf	(sprintf@f+3)& (0+255),w,b
  2329  003146  2059               	addwfc	(sprintf@s+1)^0,w,c
  2330  003148  6EDA               	movwf	fsr2h,c
  2331  00314A  0E00               	movlw	0
  2332  00314C  6EDF               	movwf	indf2,c
  2333  00314E                     
  2334                           ; BSR set to: 0
  2335  00314E  0012               	return		;funcret
  2336  003150                     __end_of_sprintf:
  2337                           	callstack 0
  2338                           
  2339 ;; *************** function _vfprintf *****************
  2340 ;; Defined at:
  2341 ;;		line 1390 in file "C:\Program Files\Microchip\xc8\v2.32\pic\sources\c99\common\doprnt.c"
  2342 ;; Parameters:    Size  Location     Type
  2343 ;;  fp              2   79[COMRAM] PTR struct _IO_FILE
  2344 ;;		 -> sprintf@f(6), 
  2345 ;;  fmt             2   81[COMRAM] PTR const unsigned char 
  2346 ;;		 -> STR_4(3), STR_3(3), STR_2(3), STR_1(3), 
  2347 ;;  ap              2   83[COMRAM] PTR PTR void 
  2348 ;;		 -> sprintf@ap(2), 
  2349 ;; Auto vars:     Size  Location     Type
  2350 ;;  cfmt            2   85[COMRAM] PTR unsigned char 
  2351 ;;		 -> STR_4(3), STR_3(3), STR_2(3), STR_1(3), 
  2352 ;; Return value:  Size  Location     Type
  2353 ;;                  2   79[COMRAM] int 
  2354 ;; Registers used:
  2355 ;;		wreg, fsr1l, fsr1h, fsr2l, fsr2h, status,2, status,0, tblptrl, tblptrh, tblptru, cstack
  2356 ;; Tracked objects:
  2357 ;;		On entry : 0/0
  2358 ;;		On exit  : 0/0
  2359 ;;		Unchanged: 0/0
  2360 ;; Data sizes:     COMRAM   BANK0   BANK1   BANK2   BANK3   BANK4   BANK5   BANK6   BANK7
  2361 ;;      Params:         6       0       0       0       0       0       0       0       0
  2362 ;;      Locals:         2       0       0       0       0       0       0       0       0
  2363 ;;      Temps:          0       0       0       0       0       0       0       0       0
  2364 ;;      Totals:         8       0       0       0       0       0       0       0       0
  2365 ;;Total ram usage:        8 bytes
  2366 ;; Hardware stack levels used: 1
  2367 ;; Hardware stack levels required when called: 6
  2368 ;; This function calls:
  2369 ;;		_vfpfcnvrt
  2370 ;; This function is called by:
  2371 ;;		_sprintf
  2372 ;; This function uses a non-reentrant model
  2373 ;;
  2374                           
  2375                           	psect	text6
  2376  003044                     __ptext6:
  2377                           	callstack 0
  2378  003044                     _vfprintf:
  2379                           	callstack 22
  2380  003044                     
  2381                           ;C:\Program Files\Microchip\xc8\v2.32\pic\sources\c99\common\doprnt.c: 1390: int vfprint
      +                          f(FILE *fp, const char *fmt, va_list ap);C:\Program Files\Microchip\xc8\v2.32\pic\source
      +                          s\c99\common\doprnt.c: 1391: {;C:\Program Files\Microchip\xc8\v2.32\pic\sources\c99\comm
      +                          on\doprnt.c: 1393:     char *cfmt;;C:\Program Files\Microchip\xc8\v2.32\pic\sources\c99\
      +                          common\doprnt.c: 1395:     cfmt = (char *)fmt;
  2382  003044  C052  F056         	movff	vfprintf@fmt,vfprintf@cfmt
  2383  003048  C053  F057         	movff	vfprintf@fmt+1,vfprintf@cfmt+1
  2384  00304C                     
  2385                           ;C:\Program Files\Microchip\xc8\v2.32\pic\sources\c99\common\doprnt.c: 1396:     nout = 
      +                          0;
  2386  00304C  0E00               	movlw	0
  2387  00304E  0100               	movlb	0	; () banked
  2388  003050  6F75               	movwf	(_nout+1)& (0+255),b
  2389  003052  0E00               	movlw	0
  2390  003054  6F74               	movwf	_nout& (0+255),b
  2391                           
  2392                           ;C:\Program Files\Microchip\xc8\v2.32\pic\sources\c99\common\doprnt.c: 1397:     while (
      +                          *cfmt) {
  2393  003056  EF40  F018         	goto	l2964
  2394  00305A                     l2962:
  2395                           
  2396                           ; BSR set to: 0
  2397                           ;C:\Program Files\Microchip\xc8\v2.32\pic\sources\c99\common\doprnt.c: 1398:         nou
      +                          t += vfpfcnvrt(fp, &cfmt, ap);
  2398  00305A  C050  F040         	movff	vfprintf@fp,vfpfcnvrt@fp
  2399  00305E  C051  F041         	movff	vfprintf@fp+1,vfpfcnvrt@fp+1
  2400  003062  0E56               	movlw	low vfprintf@cfmt
  2401  003064  6E42               	movwf	vfpfcnvrt@fmt^0,c
  2402  003066  0E00               	movlw	high vfprintf@cfmt
  2403  003068  6E43               	movwf	(vfpfcnvrt@fmt+1)^0,c
  2404  00306A  C054  F044         	movff	vfprintf@ap,vfpfcnvrt@ap
  2405  00306E  C055  F045         	movff	vfprintf@ap+1,vfpfcnvrt@ap+1
  2406  003072  EC2B  F010         	call	_vfpfcnvrt	;wreg free
  2407  003076  5040               	movf	?_vfpfcnvrt^0,w,c
  2408  003078  0100               	movlb	0	; () banked
  2409  00307A  2774               	addwf	_nout& (0+255),f,b
  2410  00307C  5041               	movf	(?_vfpfcnvrt+1)^0,w,c
  2411  00307E  2375               	addwfc	(_nout+1)& (0+255),f,b
  2412  003080                     l2964:
  2413                           
  2414                           ; BSR set to: 0
  2415                           ;C:\Program Files\Microchip\xc8\v2.32\pic\sources\c99\common\doprnt.c: 1397:     while (
      +                          *cfmt) {
  2416  003080  C056  FFF6         	movff	vfprintf@cfmt,tblptrl
  2417  003084  C057  FFF7         	movff	vfprintf@cfmt+1,tblptrh
  2418  003088                     	if	0	;tblptru may be non-zero
  2419  003088                     	endif
  2420  003088                     	if	0	;tblptru may be non-zero
  2421  003088                     	endif
  2422  003088  0008               	tblrd		*
  2423  00308A  50F5               	movf	tablat,w,c
  2424  00308C  0900               	iorlw	0
  2425  00308E  A4D8               	btfss	status,2,c
  2426  003090  EF4C  F018         	goto	u3101
  2427  003094  EF4E  F018         	goto	u3100
  2428  003098                     u3101:
  2429  003098  EF2D  F018         	goto	l2962
  2430  00309C                     u3100:
  2431  00309C                     
  2432                           ; BSR set to: 0
  2433                           ;C:\Program Files\Microchip\xc8\v2.32\pic\sources\c99\common\doprnt.c: 1400:     return 
      +                          nout;
  2434  00309C  C074  F050         	movff	_nout,?_vfprintf
  2435  0030A0  C075  F051         	movff	_nout+1,?_vfprintf+1
  2436  0030A4                     
  2437                           ; BSR set to: 0
  2438  0030A4  0012               	return		;funcret
  2439  0030A6                     __end_of_vfprintf:
  2440                           	callstack 0
  2441                           
  2442 ;; *************** function _vfpfcnvrt *****************
  2443 ;; Defined at:
  2444 ;;		line 692 in file "C:\Program Files\Microchip\xc8\v2.32\pic\sources\c99\common\doprnt.c"
  2445 ;; Parameters:    Size  Location     Type
  2446 ;;  fp              2   63[COMRAM] PTR struct _IO_FILE
  2447 ;;		 -> sprintf@f(6), 
  2448 ;;  fmt             2   65[COMRAM] PTR PTR unsigned char 
  2449 ;;		 -> vfprintf@cfmt(2), 
  2450 ;;  ap              2   67[COMRAM] PTR PTR void 
  2451 ;;		 -> sprintf@ap(2), 
  2452 ;; Auto vars:     Size  Location     Type
  2453 ;;  ll              8   71[COMRAM] long long 
  2454 ;;  llu             8    0        unsigned long long 
  2455 ;;  f               4    0        unsigned long long 
  2456 ;;  vp              3    0        PTR void 
  2457 ;;  ct              3    0        unsigned char [3]
  2458 ;;  cp              3    0        PTR unsigned char 
  2459 ;;  i               2    0        int 
  2460 ;;  done            2    0        int 
  2461 ;;  c               1    0        unsigned char 
  2462 ;; Return value:  Size  Location     Type
  2463 ;;                  2   63[COMRAM] int 
  2464 ;; Registers used:
  2465 ;;		wreg, fsr1l, fsr1h, fsr2l, fsr2h, status,2, status,0, tblptrl, tblptrh, tblptru, cstack
  2466 ;; Tracked objects:
  2467 ;;		On entry : 0/0
  2468 ;;		On exit  : 0/0
  2469 ;;		Unchanged: 0/0
  2470 ;; Data sizes:     COMRAM   BANK0   BANK1   BANK2   BANK3   BANK4   BANK5   BANK6   BANK7
  2471 ;;      Params:         6       0       0       0       0       0       0       0       0
  2472 ;;      Locals:         8       0       0       0       0       0       0       0       0
  2473 ;;      Temps:          2       0       0       0       0       0       0       0       0
  2474 ;;      Totals:        16       0       0       0       0       0       0       0       0
  2475 ;;Total ram usage:       16 bytes
  2476 ;; Hardware stack levels used: 1
  2477 ;; Hardware stack levels required when called: 5
  2478 ;; This function calls:
  2479 ;;		_dtoa
  2480 ;;		_fputc
  2481 ;; This function is called by:
  2482 ;;		_vfprintf
  2483 ;; This function uses a non-reentrant model
  2484 ;;
  2485                           
  2486                           	psect	text7
  2487  002056                     __ptext7:
  2488                           	callstack 0
  2489  002056                     _vfpfcnvrt:
  2490                           	callstack 22
  2491  002056                     
  2492                           ;C:\Program Files\Microchip\xc8\v2.32\pic\sources\c99\common\doprnt.c: 692: static int v
      +                          fpfcnvrt(FILE *fp, char *fmt[], va_list ap);C:\Program Files\Microchip\xc8\v2.32\pic\sou
      +                          rces\c99\common\doprnt.c: 693: {;C:\Program Files\Microchip\xc8\v2.32\pic\sources\c99\co
      +                          mmon\doprnt.c: 694:     char c, *cp, ct[3];;C:\Program Files\Microchip\xc8\v2.32\pic\sou
      +                          rces\c99\common\doprnt.c: 695:     int done, i;;C:\Program Files\Microchip\xc8\v2.32\pic
      +                          \sources\c99\common\doprnt.c: 696:     long long ll;;C:\Program Files\Microchip\xc8\v2.3
      +                          2\pic\sources\c99\common\doprnt.c: 697:     unsigned long long llu;
  2493  002056  C042  FFD9         	movff	vfpfcnvrt@fmt,fsr2l
  2494  00205A  C043  FFDA         	movff	vfpfcnvrt@fmt+1,fsr2h
  2495  00205E  CFDE FFF6          	movff	postinc2,tblptrl
  2496  002062  CFDD FFF7          	movff	postdec2,tblptrh
  2497  002066                     	if	0	;tblptru may be non-zero
  2498  002066                     	endif
  2499  002066                     	if	0	;tblptru may be non-zero
  2500  002066                     	endif
  2501  002066  0008               	tblrd		*
  2502  002068  50F5               	movf	tablat,w,c
  2503  00206A  0A25               	xorlw	37
  2504  00206C  A4D8               	btfss	status,2,c
  2505  00206E  EF3B  F010         	goto	u2601
  2506  002072  EF3D  F010         	goto	u2600
  2507  002076                     u2601:
  2508  002076  EFE9  F010         	goto	l2612
  2509  00207A                     u2600:
  2510  00207A                     
  2511                           ;C:\Program Files\Microchip\xc8\v2.32\pic\sources\c99\common\doprnt.c: 703:         ++*f
      +                          mt;
  2512  00207A  C042  FFD9         	movff	vfpfcnvrt@fmt,fsr2l
  2513  00207E  C043  FFDA         	movff	vfpfcnvrt@fmt+1,fsr2h
  2514  002082  2ADE               	incf	postinc2,f,c
  2515  002084  0E00               	movlw	0
  2516  002086  22DD               	addwfc	postdec2,f,c
  2517  002088                     
  2518                           ;C:\Program Files\Microchip\xc8\v2.32\pic\sources\c99\common\doprnt.c: 705:         flag
      +                          s = width = 0;
  2519  002088  0E00               	movlw	0
  2520  00208A  0100               	movlb	0	; () banked
  2521  00208C  6F77               	movwf	(_width+1)& (0+255),b
  2522  00208E  0E00               	movlw	0
  2523  002090  6F76               	movwf	_width& (0+255),b
  2524  002092  C076  F05E         	movff	_width,_flags
  2525  002096  C077  F05F         	movff	_width+1,_flags+1
  2526  00209A                     
  2527                           ; BSR set to: 0
  2528                           ;C:\Program Files\Microchip\xc8\v2.32\pic\sources\c99\common\doprnt.c: 706:         prec
      +                           = -1;
  2529  00209A  6978               	setf	_prec& (0+255),b
  2530  00209C  6979               	setf	(_prec+1)& (0+255),b
  2531  00209E                     
  2532                           ; BSR set to: 0
  2533                           ;C:\Program Files\Microchip\xc8\v2.32\pic\sources\c99\common\doprnt.c: 847:         if (
      +                          (*fmt[0] == 'd') || (*fmt[0] == 'i')) {
  2534  00209E  C042  FFD9         	movff	vfpfcnvrt@fmt,fsr2l
  2535  0020A2  C043  FFDA         	movff	vfpfcnvrt@fmt+1,fsr2h
  2536  0020A6  CFDE FFF6          	movff	postinc2,tblptrl
  2537  0020AA  CFDD FFF7          	movff	postdec2,tblptrh
  2538  0020AE                     	if	0	;tblptru may be non-zero
  2539  0020AE                     	endif
  2540  0020AE                     	if	0	;tblptru may be non-zero
  2541  0020AE                     	endif
  2542  0020AE  0008               	tblrd		*
  2543  0020B0  50F5               	movf	tablat,w,c
  2544  0020B2  0A64               	xorlw	100
  2545  0020B4  B4D8               	btfsc	status,2,c
  2546  0020B6  EF5F  F010         	goto	u2611
  2547  0020BA  EF61  F010         	goto	u2610
  2548  0020BE                     u2611:
  2549  0020BE  EF73  F010         	goto	l2590
  2550  0020C2                     u2610:
  2551  0020C2                     
  2552                           ; BSR set to: 0
  2553  0020C2  C042  FFD9         	movff	vfpfcnvrt@fmt,fsr2l
  2554  0020C6  C043  FFDA         	movff	vfpfcnvrt@fmt+1,fsr2h
  2555  0020CA  CFDE FFF6          	movff	postinc2,tblptrl
  2556  0020CE  CFDD FFF7          	movff	postdec2,tblptrh
  2557  0020D2                     	if	0	;tblptru may be non-zero
  2558  0020D2                     	endif
  2559  0020D2                     	if	0	;tblptru may be non-zero
  2560  0020D2                     	endif
  2561  0020D2  0008               	tblrd		*
  2562  0020D4  50F5               	movf	tablat,w,c
  2563  0020D6  0A69               	xorlw	105
  2564  0020D8  A4D8               	btfss	status,2,c
  2565  0020DA  EF71  F010         	goto	u2621
  2566  0020DE  EF73  F010         	goto	u2620
  2567  0020E2                     u2621:
  2568  0020E2  EFB3  F010         	goto	l2596
  2569  0020E6                     u2620:
  2570  0020E6                     l2590:
  2571                           
  2572                           ; BSR set to: 0
  2573                           ;C:\Program Files\Microchip\xc8\v2.32\pic\sources\c99\common\doprnt.c: 849:             
      +                          ++*fmt;
  2574  0020E6  C042  FFD9         	movff	vfpfcnvrt@fmt,fsr2l
  2575  0020EA  C043  FFDA         	movff	vfpfcnvrt@fmt+1,fsr2h
  2576  0020EE  2ADE               	incf	postinc2,f,c
  2577  0020F0  0E00               	movlw	0
  2578  0020F2  22DD               	addwfc	postdec2,f,c
  2579                           
  2580                           ;C:\Program Files\Microchip\xc8\v2.32\pic\sources\c99\common\doprnt.c: 850:             
      +                          ll = (long long)(*(int *)__va_arg(*(int **)ap, (int)0));
  2581  0020F4  C044  FFD9         	movff	vfpfcnvrt@ap,fsr2l
  2582  0020F8  C045  FFDA         	movff	vfpfcnvrt@ap+1,fsr2h
  2583  0020FC  CFDF F046          	movff	indf2,??_vfpfcnvrt
  2584  002100  0E02               	movlw	2
  2585  002102  26DE               	addwf	postinc2,f,c
  2586  002104  CFDF F047          	movff	indf2,??_vfpfcnvrt+1
  2587  002108  0E00               	movlw	0
  2588  00210A  22DD               	addwfc	postdec2,f,c
  2589  00210C  C046  FFD9         	movff	??_vfpfcnvrt,fsr2l
  2590  002110  C047  FFDA         	movff	??_vfpfcnvrt+1,fsr2h
  2591  002114  CFDE F048          	movff	postinc2,vfpfcnvrt@ll
  2592  002118  CFDD F049          	movff	postdec2,vfpfcnvrt@ll+1
  2593  00211C  0E00               	movlw	0
  2594  00211E  BE49               	btfsc	(vfpfcnvrt@ll+1)^0,7,c
  2595  002120  0EFF               	movlw	-1
  2596  002122  6E4A               	movwf	(vfpfcnvrt@ll+2)^0,c
  2597  002124  6E4B               	movwf	(vfpfcnvrt@ll+3)^0,c
  2598  002126  6E4C               	movwf	(vfpfcnvrt@ll+4)^0,c
  2599  002128  6E4D               	movwf	(vfpfcnvrt@ll+5)^0,c
  2600  00212A  6E4E               	movwf	(vfpfcnvrt@ll+6)^0,c
  2601  00212C  6E4F               	movwf	(vfpfcnvrt@ll+7)^0,c
  2602  00212E                     
  2603                           ; BSR set to: 0
  2604                           ;C:\Program Files\Microchip\xc8\v2.32\pic\sources\c99\common\doprnt.c: 852:             
      +                          return dtoa(fp, ll);
  2605  00212E  C040  F01C         	movff	vfpfcnvrt@fp,dtoa@fp
  2606  002132  C041  F01D         	movff	vfpfcnvrt@fp+1,dtoa@fp+1
  2607  002136  C048  F01E         	movff	vfpfcnvrt@ll,dtoa@d
  2608  00213A  C049  F01F         	movff	vfpfcnvrt@ll+1,dtoa@d+1
  2609  00213E  C04A  F020         	movff	vfpfcnvrt@ll+2,dtoa@d+2
  2610  002142  C04B  F021         	movff	vfpfcnvrt@ll+3,dtoa@d+3
  2611  002146  C04C  F022         	movff	vfpfcnvrt@ll+4,dtoa@d+4
  2612  00214A  C04D  F023         	movff	vfpfcnvrt@ll+5,dtoa@d+5
  2613  00214E  C04E  F024         	movff	vfpfcnvrt@ll+6,dtoa@d+6
  2614  002152  C04F  F025         	movff	vfpfcnvrt@ll+7,dtoa@d+7
  2615  002156  ECB4  F00D         	call	_dtoa	;wreg free
  2616  00215A  C01C  F040         	movff	?_dtoa,?_vfpfcnvrt
  2617  00215E  C01D  F041         	movff	?_dtoa+1,?_vfpfcnvrt+1
  2618  002162  EF04  F011         	goto	l909
  2619  002166                     l2596:
  2620                           
  2621                           ; BSR set to: 0
  2622                           ;C:\Program Files\Microchip\xc8\v2.32\pic\sources\c99\common\doprnt.c: 1372:         if 
      +                          ((*fmt)[0] == '%') {
  2623  002166  C042  FFD9         	movff	vfpfcnvrt@fmt,fsr2l
  2624  00216A  C043  FFDA         	movff	vfpfcnvrt@fmt+1,fsr2h
  2625  00216E  CFDE FFF6          	movff	postinc2,tblptrl
  2626  002172  CFDD FFF7          	movff	postdec2,tblptrh
  2627  002176                     	if	0	;tblptru may be non-zero
  2628  002176                     	endif
  2629  002176                     	if	0	;tblptru may be non-zero
  2630  002176                     	endif
  2631  002176  0008               	tblrd		*
  2632  002178  50F5               	movf	tablat,w,c
  2633  00217A  0A25               	xorlw	37
  2634  00217C  A4D8               	btfss	status,2,c
  2635  00217E  EFC3  F010         	goto	u2631
  2636  002182  EFC5  F010         	goto	u2630
  2637  002186                     u2631:
  2638  002186  EFDC  F010         	goto	l2606
  2639  00218A                     u2630:
  2640  00218A                     
  2641                           ; BSR set to: 0
  2642                           ;C:\Program Files\Microchip\xc8\v2.32\pic\sources\c99\common\doprnt.c: 1373:            
      +                           ++*fmt;
  2643  00218A  C042  FFD9         	movff	vfpfcnvrt@fmt,fsr2l
  2644  00218E  C043  FFDA         	movff	vfpfcnvrt@fmt+1,fsr2h
  2645  002192  2ADE               	incf	postinc2,f,c
  2646  002194  0E00               	movlw	0
  2647  002196  22DD               	addwfc	postdec2,f,c
  2648  002198                     
  2649                           ; BSR set to: 0
  2650                           ;C:\Program Files\Microchip\xc8\v2.32\pic\sources\c99\common\doprnt.c: 1374:            
      +                           fputc((int)'%', fp);
  2651  002198  0E00               	movlw	0
  2652  00219A  6E02               	movwf	(fputc@c+1)^0,c
  2653  00219C  0E25               	movlw	37
  2654  00219E  6E01               	movwf	fputc@c^0,c
  2655  0021A0  C040  F003         	movff	vfpfcnvrt@fp,fputc@fp
  2656  0021A4  C041  F004         	movff	vfpfcnvrt@fp+1,fputc@fp+1
  2657  0021A8  EC6E  F015         	call	_fputc	;wreg free
  2658  0021AC                     l2602:
  2659                           
  2660                           ;C:\Program Files\Microchip\xc8\v2.32\pic\sources\c99\common\doprnt.c: 1375:            
      +                           return 1;
  2661  0021AC  0E00               	movlw	0
  2662  0021AE  6E41               	movwf	(?_vfpfcnvrt+1)^0,c
  2663  0021B0  0E01               	movlw	1
  2664  0021B2  6E40               	movwf	?_vfpfcnvrt^0,c
  2665  0021B4  EF04  F011         	goto	l909
  2666  0021B8                     l2606:
  2667                           
  2668                           ; BSR set to: 0
  2669                           ;C:\Program Files\Microchip\xc8\v2.32\pic\sources\c99\common\doprnt.c: 1379:         ++*
      +                          fmt;
  2670  0021B8  C042  FFD9         	movff	vfpfcnvrt@fmt,fsr2l
  2671  0021BC  C043  FFDA         	movff	vfpfcnvrt@fmt+1,fsr2h
  2672  0021C0  2ADE               	incf	postinc2,f,c
  2673  0021C2  0E00               	movlw	0
  2674  0021C4  22DD               	addwfc	postdec2,f,c
  2675  0021C6                     
  2676                           ; BSR set to: 0
  2677                           ;C:\Program Files\Microchip\xc8\v2.32\pic\sources\c99\common\doprnt.c: 1380:         ret
      +                          urn 0;
  2678  0021C6  0E00               	movlw	0
  2679  0021C8  6E41               	movwf	(?_vfpfcnvrt+1)^0,c
  2680  0021CA  0E00               	movlw	0
  2681  0021CC  6E40               	movwf	?_vfpfcnvrt^0,c
  2682  0021CE  EF04  F011         	goto	l909
  2683  0021D2                     l2612:
  2684                           
  2685                           ;C:\Program Files\Microchip\xc8\v2.32\pic\sources\c99\common\doprnt.c: 1384:     fputc((
      +                          int)(*fmt)[0], fp);
  2686  0021D2  C042  FFD9         	movff	vfpfcnvrt@fmt,fsr2l
  2687  0021D6  C043  FFDA         	movff	vfpfcnvrt@fmt+1,fsr2h
  2688  0021DA  CFDE FFF6          	movff	postinc2,tblptrl
  2689  0021DE  CFDD FFF7          	movff	postdec2,tblptrh
  2690  0021E2                     	if	0	;tblptru may be non-zero
  2691  0021E2                     	endif
  2692  0021E2                     	if	0	;tblptru may be non-zero
  2693  0021E2                     	endif
  2694  0021E2  0008               	tblrd		*
  2695  0021E4  50F5               	movf	tablat,w,c
  2696  0021E6  6E01               	movwf	fputc@c^0,c
  2697  0021E8  6A02               	clrf	(fputc@c+1)^0,c
  2698  0021EA  C040  F003         	movff	vfpfcnvrt@fp,fputc@fp
  2699  0021EE  C041  F004         	movff	vfpfcnvrt@fp+1,fputc@fp+1
  2700  0021F2  EC6E  F015         	call	_fputc	;wreg free
  2701  0021F6                     
  2702                           ;C:\Program Files\Microchip\xc8\v2.32\pic\sources\c99\common\doprnt.c: 1385:     ++*fmt;
  2703  0021F6  C042  FFD9         	movff	vfpfcnvrt@fmt,fsr2l
  2704  0021FA  C043  FFDA         	movff	vfpfcnvrt@fmt+1,fsr2h
  2705  0021FE  2ADE               	incf	postinc2,f,c
  2706  002200  0E00               	movlw	0
  2707  002202  22DD               	addwfc	postdec2,f,c
  2708  002204  EFD6  F010         	goto	l2602
  2709  002208                     l909:
  2710  002208  0012               	return		;funcret
  2711  00220A                     __end_of_vfpfcnvrt:
  2712                           	callstack 0
  2713                           
  2714 ;; *************** function _dtoa *****************
  2715 ;; Defined at:
  2716 ;;		line 287 in file "C:\Program Files\Microchip\xc8\v2.32\pic\sources\c99\common\doprnt.c"
  2717 ;; Parameters:    Size  Location     Type
  2718 ;;  fp              2   27[COMRAM] PTR struct _IO_FILE
  2719 ;;		 -> sprintf@f(6), 
  2720 ;;  d               8   29[COMRAM] long long 
  2721 ;; Auto vars:     Size  Location     Type
  2722 ;;  n               8   53[COMRAM] long long 
  2723 ;;  i               2   61[COMRAM] int 
  2724 ;;  s               2   51[COMRAM] int 
  2725 ;;  w               2   49[COMRAM] int 
  2726 ;;  p               2   47[COMRAM] int 
  2727 ;; Return value:  Size  Location     Type
  2728 ;;                  2   27[COMRAM] int 
  2729 ;; Registers used:
  2730 ;;		wreg, fsr1l, fsr1h, fsr2l, fsr2h, status,2, status,0, cstack
  2731 ;; Tracked objects:
  2732 ;;		On entry : 0/0
  2733 ;;		On exit  : 0/0
  2734 ;;		Unchanged: 0/0
  2735 ;; Data sizes:     COMRAM   BANK0   BANK1   BANK2   BANK3   BANK4   BANK5   BANK6   BANK7
  2736 ;;      Params:        10       0       0       0       0       0       0       0       0
  2737 ;;      Locals:        18       0       0       0       0       0       0       0       0
  2738 ;;      Temps:          8       0       0       0       0       0       0       0       0
  2739 ;;      Totals:        36       0       0       0       0       0       0       0       0
  2740 ;;Total ram usage:       36 bytes
  2741 ;; Hardware stack levels used: 1
  2742 ;; Hardware stack levels required when called: 4
  2743 ;; This function calls:
  2744 ;;		___aodiv
  2745 ;;		___aomod
  2746 ;;		_abs
  2747 ;;		_pad
  2748 ;; This function is called by:
  2749 ;;		_vfpfcnvrt
  2750 ;; This function uses a non-reentrant model
  2751 ;;
  2752                           
  2753                           	psect	text8
  2754  001B68                     __ptext8:
  2755                           	callstack 0
  2756  001B68                     _dtoa:
  2757                           	callstack 22
  2758  001B68                     
  2759                           ;C:\Program Files\Microchip\xc8\v2.32\pic\sources\c99\common\doprnt.c: 287: static int d
      +                          toa(FILE *fp, long long d);C:\Program Files\Microchip\xc8\v2.32\pic\sources\c99\common\d
      +                          oprnt.c: 288: {;C:\Program Files\Microchip\xc8\v2.32\pic\sources\c99\common\doprnt.c: 28
      +                          9:     int i, p, s, w;;C:\Program Files\Microchip\xc8\v2.32\pic\sources\c99\common\doprn
      +                          t.c: 290:     long long n;;C:\Program Files\Microchip\xc8\v2.32\pic\sources\c99\common\d
      +                          oprnt.c: 293:     n = d;
  2760  001B68  C01E  F036         	movff	dtoa@d,dtoa@n
  2761  001B6C  C01F  F037         	movff	dtoa@d+1,dtoa@n+1
  2762  001B70  C020  F038         	movff	dtoa@d+2,dtoa@n+2
  2763  001B74  C021  F039         	movff	dtoa@d+3,dtoa@n+3
  2764  001B78  C022  F03A         	movff	dtoa@d+4,dtoa@n+4
  2765  001B7C  C023  F03B         	movff	dtoa@d+5,dtoa@n+5
  2766  001B80  C024  F03C         	movff	dtoa@d+6,dtoa@n+6
  2767  001B84  C025  F03D         	movff	dtoa@d+7,dtoa@n+7
  2768  001B88                     
  2769                           ;C:\Program Files\Microchip\xc8\v2.32\pic\sources\c99\common\doprnt.c: 294:     s = n < 
      +                          0 ? 1 : 0;
  2770  001B88  BE3D               	btfsc	(dtoa@n+7)^0,7,c
  2771  001B8A  EFC9  F00D         	goto	u2061
  2772  001B8E  EFCC  F00D         	goto	u2060
  2773  001B92                     u2061:
  2774  001B92  0E01               	movlw	1
  2775  001B94  EFCD  F00D         	goto	u2070
  2776  001B98                     u2060:
  2777  001B98  0E00               	movlw	0
  2778  001B9A                     u2070:
  2779  001B9A  6E34               	movwf	dtoa@s^0,c
  2780  001B9C  6A35               	clrf	(dtoa@s+1)^0,c
  2781                           
  2782                           ;C:\Program Files\Microchip\xc8\v2.32\pic\sources\c99\common\doprnt.c: 295:     if (s) {
  2783  001B9E  5034               	movf	dtoa@s^0,w,c
  2784  001BA0  1035               	iorwf	(dtoa@s+1)^0,w,c
  2785  001BA2  B4D8               	btfsc	status,2,c
  2786  001BA4  EFD6  F00D         	goto	u2081
  2787  001BA8  EFD8  F00D         	goto	u2080
  2788  001BAC                     u2081:
  2789  001BAC  EFE8  F00D         	goto	l2320
  2790  001BB0                     u2080:
  2791  001BB0                     
  2792                           ;C:\Program Files\Microchip\xc8\v2.32\pic\sources\c99\common\doprnt.c: 296:         n = 
      +                          -n;
  2793  001BB0  1E3D               	comf	(dtoa@n+7)^0,f,c
  2794  001BB2  1E3C               	comf	(dtoa@n+6)^0,f,c
  2795  001BB4  1E3B               	comf	(dtoa@n+5)^0,f,c
  2796  001BB6  1E3A               	comf	(dtoa@n+4)^0,f,c
  2797  001BB8  1E39               	comf	(dtoa@n+3)^0,f,c
  2798  001BBA  1E38               	comf	(dtoa@n+2)^0,f,c
  2799  001BBC  1E37               	comf	(dtoa@n+1)^0,f,c
  2800  001BBE  6C36               	negf	dtoa@n^0,c
  2801  001BC0  0E00               	movlw	0
  2802  001BC2  2237               	addwfc	(dtoa@n+1)^0,f,c
  2803  001BC4  2238               	addwfc	(dtoa@n+2)^0,f,c
  2804  001BC6  2239               	addwfc	(dtoa@n+3)^0,f,c
  2805  001BC8  223A               	addwfc	(dtoa@n+4)^0,f,c
  2806  001BCA  223B               	addwfc	(dtoa@n+5)^0,f,c
  2807  001BCC  223C               	addwfc	(dtoa@n+6)^0,f,c
  2808  001BCE  223D               	addwfc	(dtoa@n+7)^0,f,c
  2809  001BD0                     l2320:
  2810                           
  2811                           ;C:\Program Files\Microchip\xc8\v2.32\pic\sources\c99\common\doprnt.c: 300:     if (!(pr
      +                          ec < 0)) {
  2812  001BD0  0100               	movlb	0	; () banked
  2813  001BD2  BF79               	btfsc	(_prec+1)& (0+255),7,b
  2814  001BD4  EFEE  F00D         	goto	u2091
  2815  001BD8  EFF0  F00D         	goto	u2090
  2816  001BDC                     u2091:
  2817  001BDC  EFF1  F00D         	goto	l2324
  2818  001BE0                     u2090:
  2819  001BE0                     
  2820                           ; BSR set to: 0
  2821                           ;C:\Program Files\Microchip\xc8\v2.32\pic\sources\c99\common\doprnt.c: 301:         flag
      +                          s &= ~(1 << 1);
  2822  001BE0  925E               	bcf	_flags^0,1,c
  2823  001BE2                     l2324:
  2824                           
  2825                           ; BSR set to: 0
  2826                           ;C:\Program Files\Microchip\xc8\v2.32\pic\sources\c99\common\doprnt.c: 303:     p = (0 <
      +                           prec) ? prec : 1;
  2827  001BE2  BF79               	btfsc	(_prec+1)& (0+255),7,b
  2828  001BE4  EFFE  F00D         	goto	u2100
  2829  001BE8  5179               	movf	(_prec+1)& (0+255),w,b
  2830  001BEA  E106               	bnz	u2101
  2831  001BEC  0578               	decf	_prec& (0+255),w,b
  2832  001BEE  B0D8               	btfsc	status,0,c
  2833  001BF0  EFFC  F00D         	goto	u2101
  2834  001BF4  EFFE  F00D         	goto	u2100
  2835  001BF8                     u2101:
  2836  001BF8  EF04  F00E         	goto	l882
  2837  001BFC                     u2100:
  2838  001BFC                     
  2839                           ; BSR set to: 0
  2840  001BFC  0E00               	movlw	0
  2841  001BFE  6E31               	movwf	(dtoa@p+1)^0,c
  2842  001C00  0E01               	movlw	1
  2843  001C02  6E30               	movwf	dtoa@p^0,c
  2844  001C04  EF08  F00E         	goto	l884
  2845  001C08                     l882:
  2846                           
  2847                           ; BSR set to: 0
  2848  001C08  C078  F030         	movff	_prec,dtoa@p
  2849  001C0C  C079  F031         	movff	_prec+1,dtoa@p+1
  2850  001C10                     l884:
  2851                           
  2852                           ; BSR set to: 0
  2853                           ;C:\Program Files\Microchip\xc8\v2.32\pic\sources\c99\common\doprnt.c: 304:     w = widt
      +                          h;
  2854  001C10  C076  F032         	movff	_width,dtoa@w
  2855  001C14  C077  F033         	movff	_width+1,dtoa@w+1
  2856  001C18                     
  2857                           ; BSR set to: 0
  2858                           ;C:\Program Files\Microchip\xc8\v2.32\pic\sources\c99\common\doprnt.c: 305:     if (s ||
      +                           (flags & (1 << 2))) {
  2859  001C18  5034               	movf	dtoa@s^0,w,c
  2860  001C1A  1035               	iorwf	(dtoa@s+1)^0,w,c
  2861  001C1C  A4D8               	btfss	status,2,c
  2862  001C1E  EF13  F00E         	goto	u2111
  2863  001C22  EF15  F00E         	goto	u2110
  2864  001C26                     u2111:
  2865  001C26  EF1C  F00E         	goto	l2332
  2866  001C2A                     u2110:
  2867  001C2A                     
  2868                           ; BSR set to: 0
  2869  001C2A  A45E               	btfss	_flags^0,2,c
  2870  001C2C  EF1A  F00E         	goto	u2121
  2871  001C30  EF1C  F00E         	goto	u2120
  2872  001C34                     u2121:
  2873  001C34  EF1F  F00E         	goto	l2334
  2874  001C38                     u2120:
  2875  001C38                     l2332:
  2876                           
  2877                           ; BSR set to: 0
  2878                           ;C:\Program Files\Microchip\xc8\v2.32\pic\sources\c99\common\doprnt.c: 306:         --w;
  2879  001C38  0632               	decf	dtoa@w^0,f,c
  2880  001C3A  A0D8               	btfss	status,0,c
  2881  001C3C  0633               	decf	(dtoa@w+1)^0,f,c
  2882  001C3E                     l2334:
  2883                           
  2884                           ; BSR set to: 0
  2885                           ;C:\Program Files\Microchip\xc8\v2.32\pic\sources\c99\common\doprnt.c: 310:     i = size
      +                          of(dbuf) - 1;
  2886  001C3E  0E00               	movlw	0
  2887  001C40  6E3F               	movwf	(dtoa@i+1)^0,c
  2888  001C42  0E1F               	movlw	31
  2889  001C44  6E3E               	movwf	dtoa@i^0,c
  2890  001C46                     
  2891                           ; BSR set to: 0
  2892                           ;C:\Program Files\Microchip\xc8\v2.32\pic\sources\c99\common\doprnt.c: 311:     dbuf[i] 
      +                          = '\0';
  2893  001C46  0E00               	movlw	0
  2894  001C48  6FA2               	movwf	(_dbuf+31)& (0+255),b
  2895                           
  2896                           ;C:\Program Files\Microchip\xc8\v2.32\pic\sources\c99\common\doprnt.c: 312:     while (!
      +                          (i < 1) && (n || (0 < p) || ((0 < w) && (flags & (1 << 1))))) {
  2897  001C4A  EFA3  F00E         	goto	l2348
  2898  001C4E                     l2338:
  2899                           
  2900                           ;C:\Program Files\Microchip\xc8\v2.32\pic\sources\c99\common\doprnt.c: 313:         --i;
  2901  001C4E  063E               	decf	dtoa@i^0,f,c
  2902  001C50  A0D8               	btfss	status,0,c
  2903  001C52  063F               	decf	(dtoa@i+1)^0,f,c
  2904  001C54                     
  2905                           ;C:\Program Files\Microchip\xc8\v2.32\pic\sources\c99\common\doprnt.c: 314:         dbuf
      +                          [i] = (char)((int)'0' + abs(n % 10));
  2906  001C54  0E83               	movlw	low _dbuf
  2907  001C56  243E               	addwf	dtoa@i^0,w,c
  2908  001C58  6ED9               	movwf	fsr2l,c
  2909  001C5A  0E00               	movlw	high _dbuf
  2910  001C5C  203F               	addwfc	(dtoa@i+1)^0,w,c
  2911  001C5E  6EDA               	movwf	fsr2h,c
  2912  001C60  C036  F001         	movff	dtoa@n,___aomod@dividend
  2913  001C64  C037  F002         	movff	dtoa@n+1,___aomod@dividend+1
  2914  001C68  C038  F003         	movff	dtoa@n+2,___aomod@dividend+2
  2915  001C6C  C039  F004         	movff	dtoa@n+3,___aomod@dividend+3
  2916  001C70  C03A  F005         	movff	dtoa@n+4,___aomod@dividend+4
  2917  001C74  C03B  F006         	movff	dtoa@n+5,___aomod@dividend+5
  2918  001C78  C03C  F007         	movff	dtoa@n+6,___aomod@dividend+6
  2919  001C7C  C03D  F008         	movff	dtoa@n+7,___aomod@dividend+7
  2920  001C80  0E0A               	movlw	10
  2921  001C82  6E09               	movwf	___aomod@divisor^0,c
  2922  001C84  0E00               	movlw	0
  2923  001C86  6E0A               	movwf	(___aomod@divisor+1)^0,c
  2924  001C88  0E00               	movlw	0
  2925  001C8A  6E0B               	movwf	(___aomod@divisor+2)^0,c
  2926  001C8C  0E00               	movlw	0
  2927  001C8E  6E0C               	movwf	(___aomod@divisor+3)^0,c
  2928  001C90  0E00               	movlw	0
  2929  001C92  6E0D               	movwf	(___aomod@divisor+4)^0,c
  2930  001C94  0E00               	movlw	0
  2931  001C96  6E0E               	movwf	(___aomod@divisor+5)^0,c
  2932  001C98  0E00               	movlw	0
  2933  001C9A  6E0F               	movwf	(___aomod@divisor+6)^0,c
  2934  001C9C  0E00               	movlw	0
  2935  001C9E  6E10               	movwf	(___aomod@divisor+7)^0,c
  2936  001CA0  EC39  F014         	call	___aomod	;wreg free
  2937  001CA4  C001  F026         	movff	?___aomod,??_dtoa
  2938  001CA8  C002  F027         	movff	?___aomod+1,??_dtoa+1
  2939  001CAC  C003  F028         	movff	?___aomod+2,??_dtoa+2
  2940  001CB0  C004  F029         	movff	?___aomod+3,??_dtoa+3
  2941  001CB4  C005  F02A         	movff	?___aomod+4,??_dtoa+4
  2942  001CB8  C006  F02B         	movff	?___aomod+5,??_dtoa+5
  2943  001CBC  C007  F02C         	movff	?___aomod+6,??_dtoa+6
  2944  001CC0  C008  F02D         	movff	?___aomod+7,??_dtoa+7
  2945  001CC4  C026  F013         	movff	??_dtoa,abs@a
  2946  001CC8  C028  F014         	movff	??_dtoa+2,abs@a+1
  2947  001CCC  EC15  F019         	call	_abs	;wreg free
  2948  001CD0  5013               	movf	?_abs^0,w,c
  2949  001CD2  0F30               	addlw	48
  2950  001CD4  6EDF               	movwf	indf2,c
  2951  001CD6                     
  2952                           ;C:\Program Files\Microchip\xc8\v2.32\pic\sources\c99\common\doprnt.c: 315:         --p;
  2953  001CD6  0630               	decf	dtoa@p^0,f,c
  2954  001CD8  A0D8               	btfss	status,0,c
  2955  001CDA  0631               	decf	(dtoa@p+1)^0,f,c
  2956  001CDC                     
  2957                           ;C:\Program Files\Microchip\xc8\v2.32\pic\sources\c99\common\doprnt.c: 316:         --w;
  2958  001CDC  0632               	decf	dtoa@w^0,f,c
  2959  001CDE  A0D8               	btfss	status,0,c
  2960  001CE0  0633               	decf	(dtoa@w+1)^0,f,c
  2961  001CE2                     
  2962                           ;C:\Program Files\Microchip\xc8\v2.32\pic\sources\c99\common\doprnt.c: 317:         n = 
      +                          n / 10;
  2963  001CE2  C036  F001         	movff	dtoa@n,___aodiv@dividend
  2964  001CE6  C037  F002         	movff	dtoa@n+1,___aodiv@dividend+1
  2965  001CEA  C038  F003         	movff	dtoa@n+2,___aodiv@dividend+2
  2966  001CEE  C039  F004         	movff	dtoa@n+3,___aodiv@dividend+3
  2967  001CF2  C03A  F005         	movff	dtoa@n+4,___aodiv@dividend+4
  2968  001CF6  C03B  F006         	movff	dtoa@n+5,___aodiv@dividend+5
  2969  001CFA  C03C  F007         	movff	dtoa@n+6,___aodiv@dividend+6
  2970  001CFE  C03D  F008         	movff	dtoa@n+7,___aodiv@dividend+7
  2971  001D02  0E0A               	movlw	10
  2972  001D04  6E09               	movwf	___aodiv@divisor^0,c
  2973  001D06  0E00               	movlw	0
  2974  001D08  6E0A               	movwf	(___aodiv@divisor+1)^0,c
  2975  001D0A  0E00               	movlw	0
  2976  001D0C  6E0B               	movwf	(___aodiv@divisor+2)^0,c
  2977  001D0E  0E00               	movlw	0
  2978  001D10  6E0C               	movwf	(___aodiv@divisor+3)^0,c
  2979  001D12  0E00               	movlw	0
  2980  001D14  6E0D               	movwf	(___aodiv@divisor+4)^0,c
  2981  001D16  0E00               	movlw	0
  2982  001D18  6E0E               	movwf	(___aodiv@divisor+5)^0,c
  2983  001D1A  0E00               	movlw	0
  2984  001D1C  6E0F               	movwf	(___aodiv@divisor+6)^0,c
  2985  001D1E  0E00               	movlw	0
  2986  001D20  6E10               	movwf	(___aodiv@divisor+7)^0,c
  2987  001D22  EC75  F013         	call	___aodiv	;wreg free
  2988  001D26  C001  F036         	movff	?___aodiv,dtoa@n
  2989  001D2A  C002  F037         	movff	?___aodiv+1,dtoa@n+1
  2990  001D2E  C003  F038         	movff	?___aodiv+2,dtoa@n+2
  2991  001D32  C004  F039         	movff	?___aodiv+3,dtoa@n+3
  2992  001D36  C005  F03A         	movff	?___aodiv+4,dtoa@n+4
  2993  001D3A  C006  F03B         	movff	?___aodiv+5,dtoa@n+5
  2994  001D3E  C007  F03C         	movff	?___aodiv+6,dtoa@n+6
  2995  001D42  C008  F03D         	movff	?___aodiv+7,dtoa@n+7
  2996  001D46                     l2348:
  2997                           
  2998                           ;C:\Program Files\Microchip\xc8\v2.32\pic\sources\c99\common\doprnt.c: 312:     while (!
      +                          (i < 1) && (n || (0 < p) || ((0 < w) && (flags & (1 << 1))))) {
  2999  001D46  BE3F               	btfsc	(dtoa@i+1)^0,7,c
  3000  001D48  EFAE  F00E         	goto	u2131
  3001  001D4C  503F               	movf	(dtoa@i+1)^0,w,c
  3002  001D4E  E108               	bnz	u2130
  3003  001D50  043E               	decf	dtoa@i^0,w,c
  3004  001D52  A0D8               	btfss	status,0,c
  3005  001D54  EFAE  F00E         	goto	u2131
  3006  001D58  EFB0  F00E         	goto	u2130
  3007  001D5C                     u2131:
  3008  001D5C  EFE0  F00E         	goto	l2358
  3009  001D60                     u2130:
  3010  001D60  5036               	movf	dtoa@n^0,w,c
  3011  001D62  1037               	iorwf	(dtoa@n+1)^0,w,c
  3012  001D64  1038               	iorwf	(dtoa@n+2)^0,w,c
  3013  001D66  1039               	iorwf	(dtoa@n+3)^0,w,c
  3014  001D68  103A               	iorwf	(dtoa@n+4)^0,w,c
  3015  001D6A  103B               	iorwf	(dtoa@n+5)^0,w,c
  3016  001D6C  103C               	iorwf	(dtoa@n+6)^0,w,c
  3017  001D6E  103D               	iorwf	(dtoa@n+7)^0,w,c
  3018  001D70  A4D8               	btfss	status,2,c
  3019  001D72  EFBD  F00E         	goto	u2141
  3020  001D76  EFBF  F00E         	goto	u2140
  3021  001D7A                     u2141:
  3022  001D7A  EF27  F00E         	goto	l2338
  3023  001D7E                     u2140:
  3024  001D7E  BE31               	btfsc	(dtoa@p+1)^0,7,c
  3025  001D80  EFCC  F00E         	goto	u2150
  3026  001D84  5031               	movf	(dtoa@p+1)^0,w,c
  3027  001D86  E106               	bnz	u2151
  3028  001D88  0430               	decf	dtoa@p^0,w,c
  3029  001D8A  B0D8               	btfsc	status,0,c
  3030  001D8C  EFCA  F00E         	goto	u2151
  3031  001D90  EFCC  F00E         	goto	u2150
  3032  001D94                     u2151:
  3033  001D94  EF27  F00E         	goto	l2338
  3034  001D98                     u2150:
  3035  001D98  BE33               	btfsc	(dtoa@w+1)^0,7,c
  3036  001D9A  EFD7  F00E         	goto	u2161
  3037  001D9E  5033               	movf	(dtoa@w+1)^0,w,c
  3038  001DA0  E108               	bnz	u2160
  3039  001DA2  0432               	decf	dtoa@w^0,w,c
  3040  001DA4  A0D8               	btfss	status,0,c
  3041  001DA6  EFD7  F00E         	goto	u2161
  3042  001DAA  EFD9  F00E         	goto	u2160
  3043  001DAE                     u2161:
  3044  001DAE  EFE0  F00E         	goto	l2358
  3045  001DB2                     u2160:
  3046  001DB2  B25E               	btfsc	_flags^0,1,c
  3047  001DB4  EFDE  F00E         	goto	u2171
  3048  001DB8  EFE0  F00E         	goto	u2170
  3049  001DBC                     u2171:
  3050  001DBC  EF27  F00E         	goto	l2338
  3051  001DC0                     u2170:
  3052  001DC0                     l2358:
  3053                           
  3054                           ;C:\Program Files\Microchip\xc8\v2.32\pic\sources\c99\common\doprnt.c: 321:     if (s ||
      +                           (flags & (1 << 2))) {
  3055  001DC0  5034               	movf	dtoa@s^0,w,c
  3056  001DC2  1035               	iorwf	(dtoa@s+1)^0,w,c
  3057  001DC4  A4D8               	btfss	status,2,c
  3058  001DC6  EFE7  F00E         	goto	u2181
  3059  001DCA  EFE9  F00E         	goto	u2180
  3060  001DCE                     u2181:
  3061  001DCE  EFF0  F00E         	goto	l2362
  3062  001DD2                     u2180:
  3063  001DD2  A45E               	btfss	_flags^0,2,c
  3064  001DD4  EFEE  F00E         	goto	u2191
  3065  001DD8  EFF0  F00E         	goto	u2190
  3066  001DDC                     u2191:
  3067  001DDC  EF0E  F00F         	goto	l2372
  3068  001DE0                     u2190:
  3069  001DE0                     l2362:
  3070                           
  3071                           ;C:\Program Files\Microchip\xc8\v2.32\pic\sources\c99\common\doprnt.c: 322:         --i;
  3072  001DE0  063E               	decf	dtoa@i^0,f,c
  3073  001DE2  A0D8               	btfss	status,0,c
  3074  001DE4  063F               	decf	(dtoa@i+1)^0,f,c
  3075  001DE6                     
  3076                           ;C:\Program Files\Microchip\xc8\v2.32\pic\sources\c99\common\doprnt.c: 323:         dbuf
      +                          [i] = s ? '-' : '+';
  3077  001DE6  5034               	movf	dtoa@s^0,w,c
  3078  001DE8  1035               	iorwf	(dtoa@s+1)^0,w,c
  3079  001DEA  A4D8               	btfss	status,2,c
  3080  001DEC  EFFA  F00E         	goto	u2201
  3081  001DF0  EFFC  F00E         	goto	u2200
  3082  001DF4                     u2201:
  3083  001DF4  EF02  F00F         	goto	l2368
  3084  001DF8                     u2200:
  3085  001DF8  0E00               	movlw	0
  3086  001DFA  6E2F               	movwf	(_dtoa$941+1)^0,c
  3087  001DFC  0E2B               	movlw	43
  3088  001DFE  6E2E               	movwf	_dtoa$941^0,c
  3089  001E00  EF06  F00F         	goto	l2370
  3090  001E04                     l2368:
  3091  001E04  0E00               	movlw	0
  3092  001E06  6E2F               	movwf	(_dtoa$941+1)^0,c
  3093  001E08  0E2D               	movlw	45
  3094  001E0A  6E2E               	movwf	_dtoa$941^0,c
  3095  001E0C                     l2370:
  3096  001E0C  0E83               	movlw	low _dbuf
  3097  001E0E  243E               	addwf	dtoa@i^0,w,c
  3098  001E10  6ED9               	movwf	fsr2l,c
  3099  001E12  0E00               	movlw	high _dbuf
  3100  001E14  203F               	addwfc	(dtoa@i+1)^0,w,c
  3101  001E16  6EDA               	movwf	fsr2h,c
  3102  001E18  C02E  FFDF         	movff	_dtoa$941,indf2
  3103  001E1C                     l2372:
  3104                           
  3105                           ;C:\Program Files\Microchip\xc8\v2.32\pic\sources\c99\common\doprnt.c: 327:     return p
      +                          ad(fp, &dbuf[i], w);
  3106  001E1C  C01C  F011         	movff	dtoa@fp,pad@fp
  3107  001E20  C01D  F012         	movff	dtoa@fp+1,pad@fp+1
  3108  001E24  0E83               	movlw	low _dbuf
  3109  001E26  243E               	addwf	dtoa@i^0,w,c
  3110  001E28  6E13               	movwf	pad@buf^0,c
  3111  001E2A  0E00               	movlw	high _dbuf
  3112  001E2C  203F               	addwfc	(dtoa@i+1)^0,w,c
  3113  001E2E  6E14               	movwf	(pad@buf+1)^0,c
  3114  001E30  C032  F015         	movff	dtoa@w,pad@p
  3115  001E34  C033  F016         	movff	dtoa@w+1,pad@p+1
  3116  001E38  EC35  F016         	call	_pad	;wreg free
  3117  001E3C  C011  F01C         	movff	?_pad,?_dtoa
  3118  001E40  C012  F01D         	movff	?_pad+1,?_dtoa+1
  3119  001E44  0012               	return		;funcret
  3120  001E46                     __end_of_dtoa:
  3121                           	callstack 0
  3122                           
  3123 ;; *************** function _pad *****************
  3124 ;; Defined at:
  3125 ;;		line 72 in file "C:\Program Files\Microchip\xc8\v2.32\pic\sources\c99\common\doprnt.c"
  3126 ;; Parameters:    Size  Location     Type
  3127 ;;  fp              2   16[COMRAM] PTR struct _IO_FILE
  3128 ;;		 -> sprintf@f(6), 
  3129 ;;  buf             2   18[COMRAM] PTR unsigned char 
  3130 ;;		 -> dbuf(32), 
  3131 ;;  p               2   20[COMRAM] int 
  3132 ;; Auto vars:     Size  Location     Type
  3133 ;;  w               2   25[COMRAM] int 
  3134 ;;  i               2   23[COMRAM] int 
  3135 ;; Return value:  Size  Location     Type
  3136 ;;                  2   16[COMRAM] int 
  3137 ;; Registers used:
  3138 ;;		wreg, fsr1l, fsr1h, fsr2l, fsr2h, status,2, status,0, cstack
  3139 ;; Tracked objects:
  3140 ;;		On entry : 0/0
  3141 ;;		On exit  : 0/0
  3142 ;;		Unchanged: 0/0
  3143 ;; Data sizes:     COMRAM   BANK0   BANK1   BANK2   BANK3   BANK4   BANK5   BANK6   BANK7
  3144 ;;      Params:         6       0       0       0       0       0       0       0       0
  3145 ;;      Locals:         4       0       0       0       0       0       0       0       0
  3146 ;;      Temps:          1       0       0       0       0       0       0       0       0
  3147 ;;      Totals:        11       0       0       0       0       0       0       0       0
  3148 ;;Total ram usage:       11 bytes
  3149 ;; Hardware stack levels used: 1
  3150 ;; Hardware stack levels required when called: 3
  3151 ;; This function calls:
  3152 ;;		_fputc
  3153 ;;		_fputs
  3154 ;;		_strlen
  3155 ;; This function is called by:
  3156 ;;		_dtoa
  3157 ;; This function uses a non-reentrant model
  3158 ;;
  3159                           
  3160                           	psect	text9
  3161  002C6A                     __ptext9:
  3162                           	callstack 0
  3163  002C6A                     _pad:
  3164                           	callstack 22
  3165  002C6A                     
  3166                           ;C:\Program Files\Microchip\xc8\v2.32\pic\sources\c99\common\doprnt.c: 72: static int pa
      +                          d(FILE *fp, char *buf, int p);C:\Program Files\Microchip\xc8\v2.32\pic\sources\c99\commo
      +                          n\doprnt.c: 73: {;C:\Program Files\Microchip\xc8\v2.32\pic\sources\c99\common\doprnt.c: 
      +                          74:     int i, w;;C:\Program Files\Microchip\xc8\v2.32\pic\sources\c99\common\doprnt.c: 
      +                          77:     if (flags & (1 << 0)) {
  3167  002C6A  A05E               	btfss	_flags^0,0,c
  3168  002C6C  EF3A  F016         	goto	u2011
  3169  002C70  EF3C  F016         	goto	u2010
  3170  002C74                     u2011:
  3171  002C74  EF46  F016         	goto	l2292
  3172  002C78                     u2010:
  3173  002C78                     
  3174                           ;C:\Program Files\Microchip\xc8\v2.32\pic\sources\c99\common\doprnt.c: 78:         fputs
      +                          ((const char *)buf, fp);
  3175  002C78  C013  F00A         	movff	pad@buf,fputs@s
  3176  002C7C  C014  F00B         	movff	pad@buf+1,fputs@s+1
  3177  002C80  C011  F00C         	movff	pad@fp,fputs@fp
  3178  002C84  C012  F00D         	movff	pad@fp+1,fputs@fp+1
  3179  002C88  ECF3  F018         	call	_fputs	;wreg free
  3180  002C8C                     l2292:
  3181                           
  3182                           ;C:\Program Files\Microchip\xc8\v2.32\pic\sources\c99\common\doprnt.c: 82:     w = (p < 
      +                          0) ? 0 : p;
  3183  002C8C  BE16               	btfsc	(pad@p+1)^0,7,c
  3184  002C8E  EF4B  F016         	goto	u2021
  3185  002C92  EF4D  F016         	goto	u2020
  3186  002C96                     u2021:
  3187  002C96  EF53  F016         	goto	l2296
  3188  002C9A                     u2020:
  3189  002C9A  C015  F01A         	movff	pad@p,pad@w
  3190  002C9E  C016  F01B         	movff	pad@p+1,pad@w+1
  3191  002CA2  EF57  F016         	goto	l871
  3192  002CA6                     l2296:
  3193  002CA6  0E00               	movlw	0
  3194  002CA8  6E1B               	movwf	(pad@w+1)^0,c
  3195  002CAA  0E00               	movlw	0
  3196  002CAC  6E1A               	movwf	pad@w^0,c
  3197  002CAE                     l871:
  3198                           
  3199                           ;C:\Program Files\Microchip\xc8\v2.32\pic\sources\c99\common\doprnt.c: 83:     i = 0;
  3200  002CAE  0E00               	movlw	0
  3201  002CB0  6E19               	movwf	(pad@i+1)^0,c
  3202  002CB2  0E00               	movlw	0
  3203  002CB4  6E18               	movwf	pad@i^0,c
  3204                           
  3205                           ;C:\Program Files\Microchip\xc8\v2.32\pic\sources\c99\common\doprnt.c: 84:     while (i 
      +                          < w) {
  3206  002CB6  EF69  F016         	goto	l2302
  3207  002CBA                     l2298:
  3208                           
  3209                           ;C:\Program Files\Microchip\xc8\v2.32\pic\sources\c99\common\doprnt.c: 85:         fputc
      +                          (' ', fp);
  3210  002CBA  0E00               	movlw	0
  3211  002CBC  6E02               	movwf	(fputc@c+1)^0,c
  3212  002CBE  0E20               	movlw	32
  3213  002CC0  6E01               	movwf	fputc@c^0,c
  3214  002CC2  C011  F003         	movff	pad@fp,fputc@fp
  3215  002CC6  C012  F004         	movff	pad@fp+1,fputc@fp+1
  3216  002CCA  EC6E  F015         	call	_fputc	;wreg free
  3217  002CCE                     
  3218                           ;C:\Program Files\Microchip\xc8\v2.32\pic\sources\c99\common\doprnt.c: 86:         ++i;
  3219  002CCE  4A18               	infsnz	pad@i^0,f,c
  3220  002CD0  2A19               	incf	(pad@i+1)^0,f,c
  3221  002CD2                     l2302:
  3222                           
  3223                           ;C:\Program Files\Microchip\xc8\v2.32\pic\sources\c99\common\doprnt.c: 84:     while (i 
      +                          < w) {
  3224  002CD2  501A               	movf	pad@w^0,w,c
  3225  002CD4  5C18               	subwf	pad@i^0,w,c
  3226  002CD6  5019               	movf	(pad@i+1)^0,w,c
  3227  002CD8  0A80               	xorlw	128
  3228  002CDA  6E17               	movwf	??_pad^0,c
  3229  002CDC  501B               	movf	(pad@w+1)^0,w,c
  3230  002CDE  0A80               	xorlw	128
  3231  002CE0  5817               	subwfb	??_pad^0,w,c
  3232  002CE2  A0D8               	btfss	status,0,c
  3233  002CE4  EF76  F016         	goto	u2031
  3234  002CE8  EF78  F016         	goto	u2030
  3235  002CEC                     u2031:
  3236  002CEC  EF5D  F016         	goto	l2298
  3237  002CF0                     u2030:
  3238  002CF0                     
  3239                           ;C:\Program Files\Microchip\xc8\v2.32\pic\sources\c99\common\doprnt.c: 90:     if (!(fla
      +                          gs & (1 << 0))) {
  3240  002CF0  B05E               	btfsc	_flags^0,0,c
  3241  002CF2  EF7D  F016         	goto	u2041
  3242  002CF6  EF7F  F016         	goto	u2040
  3243  002CFA                     u2041:
  3244  002CFA  EF89  F016         	goto	l2306
  3245  002CFE                     u2040:
  3246  002CFE                     
  3247                           ;C:\Program Files\Microchip\xc8\v2.32\pic\sources\c99\common\doprnt.c: 91:         fputs
      +                          ((const char *)buf, fp);
  3248  002CFE  C013  F00A         	movff	pad@buf,fputs@s
  3249  002D02  C014  F00B         	movff	pad@buf+1,fputs@s+1
  3250  002D06  C011  F00C         	movff	pad@fp,fputs@fp
  3251  002D0A  C012  F00D         	movff	pad@fp+1,fputs@fp+1
  3252  002D0E  ECF3  F018         	call	_fputs	;wreg free
  3253  002D12                     l2306:
  3254                           
  3255                           ;C:\Program Files\Microchip\xc8\v2.32\pic\sources\c99\common\doprnt.c: 94:     return (i
      +                          nt)(strlen(buf) + (size_t)w);
  3256  002D12  C013  F001         	movff	pad@buf,strlen@s
  3257  002D16  C014  F002         	movff	pad@buf+1,strlen@s+1
  3258  002D1A  EC51  F019         	call	_strlen	;wreg free
  3259  002D1E  501A               	movf	pad@w^0,w,c
  3260  002D20  2401               	addwf	?_strlen^0,w,c
  3261  002D22  6E11               	movwf	?_pad^0,c
  3262  002D24  501B               	movf	(pad@w+1)^0,w,c
  3263  002D26  2002               	addwfc	(?_strlen+1)^0,w,c
  3264  002D28  6E12               	movwf	(?_pad+1)^0,c
  3265  002D2A  0012               	return		;funcret
  3266  002D2C                     __end_of_pad:
  3267                           	callstack 0
  3268                           
  3269 ;; *************** function _strlen *****************
  3270 ;; Defined at:
  3271 ;;		line 5 in file "C:\Program Files\Microchip\xc8\v2.32\pic\sources\c99\common\strlen.c"
  3272 ;; Parameters:    Size  Location     Type
  3273 ;;  s               2    0[COMRAM] PTR const unsigned char 
  3274 ;;		 -> dbuf(32), 
  3275 ;; Auto vars:     Size  Location     Type
  3276 ;;  a               2    2[COMRAM] PTR const unsigned char 
  3277 ;;		 -> dbuf(32), 
  3278 ;; Return value:  Size  Location     Type
  3279 ;;                  2    0[COMRAM] unsigned int 
  3280 ;; Registers used:
  3281 ;;		wreg, fsr2l, fsr2h, status,2, status,0
  3282 ;; Tracked objects:
  3283 ;;		On entry : 0/0
  3284 ;;		On exit  : 0/0
  3285 ;;		Unchanged: 0/0
  3286 ;; Data sizes:     COMRAM   BANK0   BANK1   BANK2   BANK3   BANK4   BANK5   BANK6   BANK7
  3287 ;;      Params:         2       0       0       0       0       0       0       0       0
  3288 ;;      Locals:         2       0       0       0       0       0       0       0       0
  3289 ;;      Temps:          0       0       0       0       0       0       0       0       0
  3290 ;;      Totals:         4       0       0       0       0       0       0       0       0
  3291 ;;Total ram usage:        4 bytes
  3292 ;; Hardware stack levels used: 1
  3293 ;; This function calls:
  3294 ;;		Nothing
  3295 ;; This function is called by:
  3296 ;;		_pad
  3297 ;; This function uses a non-reentrant model
  3298 ;;
  3299                           
  3300                           	psect	text10
  3301  0032A2                     __ptext10:
  3302                           	callstack 0
  3303  0032A2                     _strlen:
  3304                           	callstack 24
  3305  0032A2  C001  F003         	movff	strlen@s,strlen@a
  3306  0032A6  C002  F004         	movff	strlen@s+1,strlen@a+1
  3307  0032AA  EF59  F019         	goto	l2202
  3308  0032AE                     l2200:
  3309  0032AE  4A01               	infsnz	strlen@s^0,f,c
  3310  0032B0  2A02               	incf	(strlen@s+1)^0,f,c
  3311  0032B2                     l2202:
  3312  0032B2  C001  FFD9         	movff	strlen@s,fsr2l
  3313  0032B6  C002  FFDA         	movff	strlen@s+1,fsr2h
  3314  0032BA  50DF               	movf	indf2,w,c
  3315  0032BC  A4D8               	btfss	status,2,c
  3316  0032BE  EF63  F019         	goto	u1871
  3317  0032C2  EF65  F019         	goto	u1870
  3318  0032C6                     u1871:
  3319  0032C6  EF57  F019         	goto	l2200
  3320  0032CA                     u1870:
  3321  0032CA  5003               	movf	strlen@a^0,w,c
  3322  0032CC  5C01               	subwf	strlen@s^0,w,c
  3323  0032CE  6E01               	movwf	?_strlen^0,c
  3324  0032D0  5004               	movf	(strlen@a+1)^0,w,c
  3325  0032D2  5802               	subwfb	(strlen@s+1)^0,w,c
  3326  0032D4  6E02               	movwf	(?_strlen+1)^0,c
  3327  0032D6  0012               	return		;funcret
  3328  0032D8                     __end_of_strlen:
  3329                           	callstack 0
  3330                           
  3331 ;; *************** function _fputs *****************
  3332 ;; Defined at:
  3333 ;;		line 8 in file "C:\Program Files\Microchip\xc8\v2.32\pic\sources\c99\common\nf_fputs.c"
  3334 ;; Parameters:    Size  Location     Type
  3335 ;;  s               2    9[COMRAM] PTR const unsigned char 
  3336 ;;		 -> dbuf(32), 
  3337 ;;  fp              2   11[COMRAM] PTR struct _IO_FILE
  3338 ;;		 -> sprintf@f(6), 
  3339 ;; Auto vars:     Size  Location     Type
  3340 ;;  i               2   14[COMRAM] int 
  3341 ;;  c               1   13[COMRAM] unsigned char 
  3342 ;; Return value:  Size  Location     Type
  3343 ;;                  2    9[COMRAM] int 
  3344 ;; Registers used:
  3345 ;;		wreg, fsr1l, fsr1h, fsr2l, fsr2h, status,2, status,0, cstack
  3346 ;; Tracked objects:
  3347 ;;		On entry : 0/0
  3348 ;;		On exit  : 0/0
  3349 ;;		Unchanged: 0/0
  3350 ;; Data sizes:     COMRAM   BANK0   BANK1   BANK2   BANK3   BANK4   BANK5   BANK6   BANK7
  3351 ;;      Params:         4       0       0       0       0       0       0       0       0
  3352 ;;      Locals:         3       0       0       0       0       0       0       0       0
  3353 ;;      Temps:          0       0       0       0       0       0       0       0       0
  3354 ;;      Totals:         7       0       0       0       0       0       0       0       0
  3355 ;;Total ram usage:        7 bytes
  3356 ;; Hardware stack levels used: 1
  3357 ;; Hardware stack levels required when called: 2
  3358 ;; This function calls:
  3359 ;;		_fputc
  3360 ;; This function is called by:
  3361 ;;		_pad
  3362 ;; This function uses a non-reentrant model
  3363 ;;
  3364                           
  3365                           	psect	text11
  3366  0031E6                     __ptext11:
  3367                           	callstack 0
  3368  0031E6                     _fputs:
  3369                           	callstack 22
  3370  0031E6  0E00               	movlw	0
  3371  0031E8  6E10               	movwf	(fputs@i+1)^0,c
  3372  0031EA  0E00               	movlw	0
  3373  0031EC  6E0F               	movwf	fputs@i^0,c
  3374  0031EE  EF04  F019         	goto	l2196
  3375  0031F2                     l2192:
  3376  0031F2  C00E  F001         	movff	fputs@c,fputc@c
  3377  0031F6  6A02               	clrf	(fputc@c+1)^0,c
  3378  0031F8  C00C  F003         	movff	fputs@fp,fputc@fp
  3379  0031FC  C00D  F004         	movff	fputs@fp+1,fputc@fp+1
  3380  003200  EC6E  F015         	call	_fputc	;wreg free
  3381  003204  4A0F               	infsnz	fputs@i^0,f,c
  3382  003206  2A10               	incf	(fputs@i+1)^0,f,c
  3383  003208                     l2196:
  3384  003208  500F               	movf	fputs@i^0,w,c
  3385  00320A  240A               	addwf	fputs@s^0,w,c
  3386  00320C  6ED9               	movwf	fsr2l,c
  3387  00320E  5010               	movf	(fputs@i+1)^0,w,c
  3388  003210  200B               	addwfc	(fputs@s+1)^0,w,c
  3389  003212  6EDA               	movwf	fsr2h,c
  3390  003214  50DF               	movf	indf2,w,c
  3391  003216  6E0E               	movwf	fputs@c^0,c
  3392  003218  500E               	movf	fputs@c^0,w,c
  3393  00321A  A4D8               	btfss	status,2,c
  3394  00321C  EF12  F019         	goto	u1861
  3395  003220  EF14  F019         	goto	u1860
  3396  003224                     u1861:
  3397  003224  EFF9  F018         	goto	l2192
  3398  003228                     u1860:
  3399  003228  0012               	return		;funcret
  3400  00322A                     __end_of_fputs:
  3401                           	callstack 0
  3402                           
  3403 ;; *************** function _fputc *****************
  3404 ;; Defined at:
  3405 ;;		line 8 in file "C:\Program Files\Microchip\xc8\v2.32\pic\sources\c99\common\nf_fputc.c"
  3406 ;; Parameters:    Size  Location     Type
  3407 ;;  c               2    0[COMRAM] int 
  3408 ;;  fp              2    2[COMRAM] PTR struct _IO_FILE
  3409 ;;		 -> sprintf@f(6), 
  3410 ;; Auto vars:     Size  Location     Type
  3411 ;;		None
  3412 ;; Return value:  Size  Location     Type
  3413 ;;                  2    0[COMRAM] int 
  3414 ;; Registers used:
  3415 ;;		wreg, fsr1l, fsr1h, fsr2l, fsr2h, status,2, status,0, cstack
  3416 ;; Tracked objects:
  3417 ;;		On entry : 0/0
  3418 ;;		On exit  : 0/0
  3419 ;;		Unchanged: 0/0
  3420 ;; Data sizes:     COMRAM   BANK0   BANK1   BANK2   BANK3   BANK4   BANK5   BANK6   BANK7
  3421 ;;      Params:         4       0       0       0       0       0       0       0       0
  3422 ;;      Locals:         0       0       0       0       0       0       0       0       0
  3423 ;;      Temps:          5       0       0       0       0       0       0       0       0
  3424 ;;      Totals:         9       0       0       0       0       0       0       0       0
  3425 ;;Total ram usage:        9 bytes
  3426 ;; Hardware stack levels used: 1
  3427 ;; Hardware stack levels required when called: 1
  3428 ;; This function calls:
  3429 ;;		_putch
  3430 ;; This function is called by:
  3431 ;;		_pad
  3432 ;;		_vfpfcnvrt
  3433 ;;		_fputs
  3434 ;; This function uses a non-reentrant model
  3435 ;;
  3436                           
  3437                           	psect	text12
  3438  002ADC                     __ptext12:
  3439                           	callstack 0
  3440  002ADC                     _fputc:
  3441                           	callstack 25
  3442  002ADC  5003               	movf	fputc@fp^0,w,c
  3443  002ADE  1004               	iorwf	(fputc@fp+1)^0,w,c
  3444  002AE0  B4D8               	btfsc	status,2,c
  3445  002AE2  EF75  F015         	goto	u1821
  3446  002AE6  EF77  F015         	goto	u1820
  3447  002AEA                     u1821:
  3448  002AEA  EF80  F015         	goto	l2180
  3449  002AEE                     u1820:
  3450  002AEE  5003               	movf	fputc@fp^0,w,c
  3451  002AF0  1004               	iorwf	(fputc@fp+1)^0,w,c
  3452  002AF2  A4D8               	btfss	status,2,c
  3453  002AF4  EF7E  F015         	goto	u1831
  3454  002AF8  EF80  F015         	goto	u1830
  3455  002AFC                     u1831:
  3456  002AFC  EF85  F015         	goto	l2182
  3457  002B00                     u1830:
  3458  002B00                     l2180:
  3459  002B00  5001               	movf	fputc@c^0,w,c
  3460  002B02  ECC2  F019         	call	_putch
  3461  002B06  EFD2  F015         	goto	l935
  3462  002B0A                     l2182:
  3463  002B0A  EE20 F004          	lfsr	2,4
  3464  002B0E  5003               	movf	fputc@fp^0,w,c
  3465  002B10  26D9               	addwf	fsr2l,f,c
  3466  002B12  5004               	movf	(fputc@fp+1)^0,w,c
  3467  002B14  22DA               	addwfc	fsr2h,f,c
  3468  002B16  50DE               	movf	postinc2,w,c
  3469  002B18  10DE               	iorwf	postinc2,w,c
  3470  002B1A  B4D8               	btfsc	status,2,c
  3471  002B1C  EF92  F015         	goto	u1841
  3472  002B20  EF94  F015         	goto	u1840
  3473  002B24                     u1841:
  3474  002B24  EFAF  F015         	goto	l2186
  3475  002B28                     u1840:
  3476  002B28  EE20 F004          	lfsr	2,4
  3477  002B2C  5003               	movf	fputc@fp^0,w,c
  3478  002B2E  26D9               	addwf	fsr2l,f,c
  3479  002B30  5004               	movf	(fputc@fp+1)^0,w,c
  3480  002B32  22DA               	addwfc	fsr2h,f,c
  3481  002B34  EE10 F002          	lfsr	1,2
  3482  002B38  5003               	movf	fputc@fp^0,w,c
  3483  002B3A  26E1               	addwf	fsr1l,f,c
  3484  002B3C  5004               	movf	(fputc@fp+1)^0,w,c
  3485  002B3E  22E2               	addwfc	fsr1h,f,c
  3486  002B40  50DE               	movf	postinc2,w,c
  3487  002B42  5CE6               	subwf	postinc1,w,c
  3488  002B44  50E6               	movf	postinc1,w,c
  3489  002B46  0A80               	xorlw	128
  3490  002B48  6E09               	movwf	(??_fputc+4)^0,c
  3491  002B4A  50DE               	movf	postinc2,w,c
  3492  002B4C  0A80               	xorlw	128
  3493  002B4E  5809               	subwfb	(??_fputc+4)^0,w,c
  3494  002B50  B0D8               	btfsc	status,0,c
  3495  002B52  EFAD  F015         	goto	u1851
  3496  002B56  EFAF  F015         	goto	u1850
  3497  002B5A                     u1851:
  3498  002B5A  EFD2  F015         	goto	l935
  3499  002B5E                     u1850:
  3500  002B5E                     l2186:
  3501  002B5E  EE20 F002          	lfsr	2,2
  3502  002B62  5003               	movf	fputc@fp^0,w,c
  3503  002B64  26D9               	addwf	fsr2l,f,c
  3504  002B66  5004               	movf	(fputc@fp+1)^0,w,c
  3505  002B68  22DA               	addwfc	fsr2h,f,c
  3506  002B6A  CFDE F005          	movff	postinc2,??_fputc
  3507  002B6E  CFDD F006          	movff	postdec2,??_fputc+1
  3508  002B72  C003  FFD9         	movff	fputc@fp,fsr2l
  3509  002B76  C004  FFDA         	movff	fputc@fp+1,fsr2h
  3510  002B7A  CFDE F007          	movff	postinc2,??_fputc+2
  3511  002B7E  CFDD F008          	movff	postdec2,??_fputc+3
  3512  002B82  5005               	movf	??_fputc^0,w,c
  3513  002B84  2407               	addwf	(??_fputc+2)^0,w,c
  3514  002B86  6ED9               	movwf	fsr2l,c
  3515  002B88  5006               	movf	(??_fputc+1)^0,w,c
  3516  002B8A  2008               	addwfc	(??_fputc+3)^0,w,c
  3517  002B8C  6EDA               	movwf	fsr2h,c
  3518  002B8E  C001  FFDF         	movff	fputc@c,indf2
  3519  002B92  EE20 F002          	lfsr	2,2
  3520  002B96  5003               	movf	fputc@fp^0,w,c
  3521  002B98  26D9               	addwf	fsr2l,f,c
  3522  002B9A  5004               	movf	(fputc@fp+1)^0,w,c
  3523  002B9C  22DA               	addwfc	fsr2h,f,c
  3524  002B9E  2ADE               	incf	postinc2,f,c
  3525  002BA0  0E00               	movlw	0
  3526  002BA2  22DD               	addwfc	postdec2,f,c
  3527  002BA4                     l935:
  3528  002BA4  0012               	return		;funcret
  3529  002BA6                     __end_of_fputc:
  3530                           	callstack 0
  3531                           
  3532 ;; *************** function _putch *****************
  3533 ;; Defined at:
  3534 ;;		line 7 in file "C:\Program Files\Microchip\xc8\v2.32\pic\sources\c99\common\putch.c"
  3535 ;; Parameters:    Size  Location     Type
  3536 ;;  c               1    wreg     unsigned char 
  3537 ;; Auto vars:     Size  Location     Type
  3538 ;;  c               1    0[COMRAM] unsigned char 
  3539 ;; Return value:  Size  Location     Type
  3540 ;;                  1    wreg      void 
  3541 ;; Registers used:
  3542 ;;		wreg
  3543 ;; Tracked objects:
  3544 ;;		On entry : 0/0
  3545 ;;		On exit  : 0/0
  3546 ;;		Unchanged: 0/0
  3547 ;; Data sizes:     COMRAM   BANK0   BANK1   BANK2   BANK3   BANK4   BANK5   BANK6   BANK7
  3548 ;;      Params:         0       0       0       0       0       0       0       0       0
  3549 ;;      Locals:         0       0       0       0       0       0       0       0       0
  3550 ;;      Temps:          0       0       0       0       0       0       0       0       0
  3551 ;;      Totals:         0       0       0       0       0       0       0       0       0
  3552 ;;Total ram usage:        0 bytes
  3553 ;; Hardware stack levels used: 1
  3554 ;; This function calls:
  3555 ;;		Nothing
  3556 ;; This function is called by:
  3557 ;;		_fputc
  3558 ;; This function uses a non-reentrant model
  3559 ;;
  3560                           
  3561                           	psect	text13
  3562  003384                     __ptext13:
  3563                           	callstack 0
  3564  003384                     _putch:
  3565                           	callstack 25
  3566  003384  0012               	return		;funcret
  3567  003386                     __end_of_putch:
  3568                           	callstack 0
  3569                           
  3570 ;; *************** function _abs *****************
  3571 ;; Defined at:
  3572 ;;		line 1 in file "C:\Program Files\Microchip\xc8\v2.32\pic\sources\c99\common\abs.c"
  3573 ;; Parameters:    Size  Location     Type
  3574 ;;  a               2   18[COMRAM] int 
  3575 ;; Auto vars:     Size  Location     Type
  3576 ;;		None
  3577 ;; Return value:  Size  Location     Type
  3578 ;;                  2   18[COMRAM] int 
  3579 ;; Registers used:
  3580 ;;		wreg, status,2, status,0
  3581 ;; Tracked objects:
  3582 ;;		On entry : 0/0
  3583 ;;		On exit  : 0/0
  3584 ;;		Unchanged: 0/0
  3585 ;; Data sizes:     COMRAM   BANK0   BANK1   BANK2   BANK3   BANK4   BANK5   BANK6   BANK7
  3586 ;;      Params:         2       0       0       0       0       0       0       0       0
  3587 ;;      Locals:         0       0       0       0       0       0       0       0       0
  3588 ;;      Temps:          2       0       0       0       0       0       0       0       0
  3589 ;;      Totals:         4       0       0       0       0       0       0       0       0
  3590 ;;Total ram usage:        4 bytes
  3591 ;; Hardware stack levels used: 1
  3592 ;; This function calls:
  3593 ;;		Nothing
  3594 ;; This function is called by:
  3595 ;;		_dtoa
  3596 ;; This function uses a non-reentrant model
  3597 ;;
  3598                           
  3599                           	psect	text14
  3600  00322A                     __ptext14:
  3601                           	callstack 0
  3602  00322A                     _abs:
  3603                           	callstack 25
  3604  00322A  BE14               	btfsc	(abs@a+1)^0,7,c
  3605  00322C  EF22  F019         	goto	u2050
  3606  003230  5014               	movf	(abs@a+1)^0,w,c
  3607  003232  E106               	bnz	u2051
  3608  003234  0413               	decf	abs@a^0,w,c
  3609  003236  B0D8               	btfsc	status,0,c
  3610  003238  EF20  F019         	goto	u2051
  3611  00323C  EF22  F019         	goto	u2050
  3612  003240                     u2051:
  3613  003240  EF30  F019         	goto	l920
  3614  003244                     u2050:
  3615  003244  C013  F015         	movff	abs@a,??_abs
  3616  003248  C014  F016         	movff	abs@a+1,??_abs+1
  3617  00324C  1E15               	comf	??_abs^0,f,c
  3618  00324E  1E16               	comf	(??_abs+1)^0,f,c
  3619  003250  4A15               	infsnz	??_abs^0,f,c
  3620  003252  2A16               	incf	(??_abs+1)^0,f,c
  3621  003254  C015  F013         	movff	??_abs,?_abs
  3622  003258  C016  F014         	movff	??_abs+1,?_abs+1
  3623  00325C  EF34  F019         	goto	l923
  3624  003260                     l920:
  3625  003260  C013  F013         	movff	abs@a,?_abs
  3626  003264  C014  F014         	movff	abs@a+1,?_abs+1
  3627  003268                     l923:
  3628  003268  0012               	return		;funcret
  3629  00326A                     __end_of_abs:
  3630                           	callstack 0
  3631                           
  3632 ;; *************** function ___aomod *****************
  3633 ;; Defined at:
  3634 ;;		line 9 in file "C:\Program Files\Microchip\xc8\v2.32\pic\sources\c99\common\aomod.c"
  3635 ;; Parameters:    Size  Location     Type
  3636 ;;  dividend        8    0[COMRAM] long long 
  3637 ;;  divisor         8    8[COMRAM] long long 
  3638 ;; Auto vars:     Size  Location     Type
  3639 ;;  sign            1   17[COMRAM] unsigned char 
  3640 ;;  counter         1   16[COMRAM] unsigned char 
  3641 ;; Return value:  Size  Location     Type
  3642 ;;                  8    0[COMRAM] long long 
  3643 ;; Registers used:
  3644 ;;		wreg, status,2, status,0
  3645 ;; Tracked objects:
  3646 ;;		On entry : 0/0
  3647 ;;		On exit  : 0/0
  3648 ;;		Unchanged: 0/0
  3649 ;; Data sizes:     COMRAM   BANK0   BANK1   BANK2   BANK3   BANK4   BANK5   BANK6   BANK7
  3650 ;;      Params:        16       0       0       0       0       0       0       0       0
  3651 ;;      Locals:         2       0       0       0       0       0       0       0       0
  3652 ;;      Temps:          0       0       0       0       0       0       0       0       0
  3653 ;;      Totals:        18       0       0       0       0       0       0       0       0
  3654 ;;Total ram usage:       18 bytes
  3655 ;; Hardware stack levels used: 1
  3656 ;; This function calls:
  3657 ;;		Nothing
  3658 ;; This function is called by:
  3659 ;;		_dtoa
  3660 ;; This function uses a non-reentrant model
  3661 ;;
  3662                           
  3663                           	psect	text15
  3664  002872                     __ptext15:
  3665                           	callstack 0
  3666  002872                     ___aomod:
  3667                           	callstack 25
  3668  002872  0E00               	movlw	0
  3669  002874  6E12               	movwf	___aomod@sign^0,c
  3670  002876  BE08               	btfsc	(___aomod@dividend+7)^0,7,c
  3671  002878  EF42  F014         	goto	u1950
  3672  00287C  EF40  F014         	goto	u1951
  3673  002880                     u1951:
  3674  002880  EF54  F014         	goto	l2260
  3675  002884                     u1950:
  3676  002884  1E08               	comf	(___aomod@dividend+7)^0,f,c
  3677  002886  1E07               	comf	(___aomod@dividend+6)^0,f,c
  3678  002888  1E06               	comf	(___aomod@dividend+5)^0,f,c
  3679  00288A  1E05               	comf	(___aomod@dividend+4)^0,f,c
  3680  00288C  1E04               	comf	(___aomod@dividend+3)^0,f,c
  3681  00288E  1E03               	comf	(___aomod@dividend+2)^0,f,c
  3682  002890  1E02               	comf	(___aomod@dividend+1)^0,f,c
  3683  002892  6C01               	negf	___aomod@dividend^0,c
  3684  002894  0E00               	movlw	0
  3685  002896  2202               	addwfc	(___aomod@dividend+1)^0,f,c
  3686  002898  2203               	addwfc	(___aomod@dividend+2)^0,f,c
  3687  00289A  2204               	addwfc	(___aomod@dividend+3)^0,f,c
  3688  00289C  2205               	addwfc	(___aomod@dividend+4)^0,f,c
  3689  00289E  2206               	addwfc	(___aomod@dividend+5)^0,f,c
  3690  0028A0  2207               	addwfc	(___aomod@dividend+6)^0,f,c
  3691  0028A2  2208               	addwfc	(___aomod@dividend+7)^0,f,c
  3692  0028A4  0E01               	movlw	1
  3693  0028A6  6E12               	movwf	___aomod@sign^0,c
  3694  0028A8                     l2260:
  3695  0028A8  BE10               	btfsc	(___aomod@divisor+7)^0,7,c
  3696  0028AA  EF5B  F014         	goto	u1960
  3697  0028AE  EF59  F014         	goto	u1961
  3698  0028B2                     u1961:
  3699  0028B2  EF6B  F014         	goto	l2264
  3700  0028B6                     u1960:
  3701  0028B6  1E10               	comf	(___aomod@divisor+7)^0,f,c
  3702  0028B8  1E0F               	comf	(___aomod@divisor+6)^0,f,c
  3703  0028BA  1E0E               	comf	(___aomod@divisor+5)^0,f,c
  3704  0028BC  1E0D               	comf	(___aomod@divisor+4)^0,f,c
  3705  0028BE  1E0C               	comf	(___aomod@divisor+3)^0,f,c
  3706  0028C0  1E0B               	comf	(___aomod@divisor+2)^0,f,c
  3707  0028C2  1E0A               	comf	(___aomod@divisor+1)^0,f,c
  3708  0028C4  6C09               	negf	___aomod@divisor^0,c
  3709  0028C6  0E00               	movlw	0
  3710  0028C8  220A               	addwfc	(___aomod@divisor+1)^0,f,c
  3711  0028CA  220B               	addwfc	(___aomod@divisor+2)^0,f,c
  3712  0028CC  220C               	addwfc	(___aomod@divisor+3)^0,f,c
  3713  0028CE  220D               	addwfc	(___aomod@divisor+4)^0,f,c
  3714  0028D0  220E               	addwfc	(___aomod@divisor+5)^0,f,c
  3715  0028D2  220F               	addwfc	(___aomod@divisor+6)^0,f,c
  3716  0028D4  2210               	addwfc	(___aomod@divisor+7)^0,f,c
  3717  0028D6                     l2264:
  3718  0028D6  5009               	movf	___aomod@divisor^0,w,c
  3719  0028D8  100A               	iorwf	(___aomod@divisor+1)^0,w,c
  3720  0028DA  100B               	iorwf	(___aomod@divisor+2)^0,w,c
  3721  0028DC  100C               	iorwf	(___aomod@divisor+3)^0,w,c
  3722  0028DE  100D               	iorwf	(___aomod@divisor+4)^0,w,c
  3723  0028E0  100E               	iorwf	(___aomod@divisor+5)^0,w,c
  3724  0028E2  100F               	iorwf	(___aomod@divisor+6)^0,w,c
  3725  0028E4  1010               	iorwf	(___aomod@divisor+7)^0,w,c
  3726  0028E6  B4D8               	btfsc	status,2,c
  3727  0028E8  EF78  F014         	goto	u1971
  3728  0028EC  EF7A  F014         	goto	u1970
  3729  0028F0                     u1971:
  3730  0028F0  EFC2  F014         	goto	l2280
  3731  0028F4                     u1970:
  3732  0028F4  0E01               	movlw	1
  3733  0028F6  6E11               	movwf	___aomod@counter^0,c
  3734  0028F8  EF88  F014         	goto	l2270
  3735  0028FC                     l2268:
  3736  0028FC  90D8               	bcf	status,0,c
  3737  0028FE  3609               	rlcf	___aomod@divisor^0,f,c
  3738  002900  360A               	rlcf	(___aomod@divisor+1)^0,f,c
  3739  002902  360B               	rlcf	(___aomod@divisor+2)^0,f,c
  3740  002904  360C               	rlcf	(___aomod@divisor+3)^0,f,c
  3741  002906  360D               	rlcf	(___aomod@divisor+4)^0,f,c
  3742  002908  360E               	rlcf	(___aomod@divisor+5)^0,f,c
  3743  00290A  360F               	rlcf	(___aomod@divisor+6)^0,f,c
  3744  00290C  3610               	rlcf	(___aomod@divisor+7)^0,f,c
  3745  00290E  2A11               	incf	___aomod@counter^0,f,c
  3746  002910                     l2270:
  3747  002910  AE10               	btfss	(___aomod@divisor+7)^0,7,c
  3748  002912  EF8D  F014         	goto	u1981
  3749  002916  EF8F  F014         	goto	u1980
  3750  00291A                     u1981:
  3751  00291A  EF7E  F014         	goto	l2268
  3752  00291E                     u1980:
  3753  00291E                     l2272:
  3754  00291E  5009               	movf	___aomod@divisor^0,w,c
  3755  002920  5C01               	subwf	___aomod@dividend^0,w,c
  3756  002922  500A               	movf	(___aomod@divisor+1)^0,w,c
  3757  002924  5802               	subwfb	(___aomod@dividend+1)^0,w,c
  3758  002926  500B               	movf	(___aomod@divisor+2)^0,w,c
  3759  002928  5803               	subwfb	(___aomod@dividend+2)^0,w,c
  3760  00292A  500C               	movf	(___aomod@divisor+3)^0,w,c
  3761  00292C  5804               	subwfb	(___aomod@dividend+3)^0,w,c
  3762  00292E  500D               	movf	(___aomod@divisor+4)^0,w,c
  3763  002930  5805               	subwfb	(___aomod@dividend+4)^0,w,c
  3764  002932  500E               	movf	(___aomod@divisor+5)^0,w,c
  3765  002934  5806               	subwfb	(___aomod@dividend+5)^0,w,c
  3766  002936  500F               	movf	(___aomod@divisor+6)^0,w,c
  3767  002938  5807               	subwfb	(___aomod@dividend+6)^0,w,c
  3768  00293A  5010               	movf	(___aomod@divisor+7)^0,w,c
  3769  00293C  5808               	subwfb	(___aomod@dividend+7)^0,w,c
  3770  00293E  A0D8               	btfss	status,0,c
  3771  002940  EFA4  F014         	goto	u1991
  3772  002944  EFA6  F014         	goto	u1990
  3773  002948                     u1991:
  3774  002948  EFB6  F014         	goto	l2276
  3775  00294C                     u1990:
  3776  00294C  5009               	movf	___aomod@divisor^0,w,c
  3777  00294E  5E01               	subwf	___aomod@dividend^0,f,c
  3778  002950  500A               	movf	(___aomod@divisor+1)^0,w,c
  3779  002952  5A02               	subwfb	(___aomod@dividend+1)^0,f,c
  3780  002954  500B               	movf	(___aomod@divisor+2)^0,w,c
  3781  002956  5A03               	subwfb	(___aomod@dividend+2)^0,f,c
  3782  002958  500C               	movf	(___aomod@divisor+3)^0,w,c
  3783  00295A  5A04               	subwfb	(___aomod@dividend+3)^0,f,c
  3784  00295C  500D               	movf	(___aomod@divisor+4)^0,w,c
  3785  00295E  5A05               	subwfb	(___aomod@dividend+4)^0,f,c
  3786  002960  500E               	movf	(___aomod@divisor+5)^0,w,c
  3787  002962  5A06               	subwfb	(___aomod@dividend+5)^0,f,c
  3788  002964  500F               	movf	(___aomod@divisor+6)^0,w,c
  3789  002966  5A07               	subwfb	(___aomod@dividend+6)^0,f,c
  3790  002968  5010               	movf	(___aomod@divisor+7)^0,w,c
  3791  00296A  5A08               	subwfb	(___aomod@dividend+7)^0,f,c
  3792  00296C                     l2276:
  3793  00296C  90D8               	bcf	status,0,c
  3794  00296E  3210               	rrcf	(___aomod@divisor+7)^0,f,c
  3795  002970  320F               	rrcf	(___aomod@divisor+6)^0,f,c
  3796  002972  320E               	rrcf	(___aomod@divisor+5)^0,f,c
  3797  002974  320D               	rrcf	(___aomod@divisor+4)^0,f,c
  3798  002976  320C               	rrcf	(___aomod@divisor+3)^0,f,c
  3799  002978  320B               	rrcf	(___aomod@divisor+2)^0,f,c
  3800  00297A  320A               	rrcf	(___aomod@divisor+1)^0,f,c
  3801  00297C  3209               	rrcf	___aomod@divisor^0,f,c
  3802  00297E  2E11               	decfsz	___aomod@counter^0,f,c
  3803  002980  EF8F  F014         	goto	l2272
  3804  002984                     l2280:
  3805  002984  5012               	movf	___aomod@sign^0,w,c
  3806  002986  B4D8               	btfsc	status,2,c
  3807  002988  EFC8  F014         	goto	u2001
  3808  00298C  EFCA  F014         	goto	u2000
  3809  002990                     u2001:
  3810  002990  EFDA  F014         	goto	l2284
  3811  002994                     u2000:
  3812  002994  1E08               	comf	(___aomod@dividend+7)^0,f,c
  3813  002996  1E07               	comf	(___aomod@dividend+6)^0,f,c
  3814  002998  1E06               	comf	(___aomod@dividend+5)^0,f,c
  3815  00299A  1E05               	comf	(___aomod@dividend+4)^0,f,c
  3816  00299C  1E04               	comf	(___aomod@dividend+3)^0,f,c
  3817  00299E  1E03               	comf	(___aomod@dividend+2)^0,f,c
  3818  0029A0  1E02               	comf	(___aomod@dividend+1)^0,f,c
  3819  0029A2  6C01               	negf	___aomod@dividend^0,c
  3820  0029A4  0E00               	movlw	0
  3821  0029A6  2202               	addwfc	(___aomod@dividend+1)^0,f,c
  3822  0029A8  2203               	addwfc	(___aomod@dividend+2)^0,f,c
  3823  0029AA  2204               	addwfc	(___aomod@dividend+3)^0,f,c
  3824  0029AC  2205               	addwfc	(___aomod@dividend+4)^0,f,c
  3825  0029AE  2206               	addwfc	(___aomod@dividend+5)^0,f,c
  3826  0029B0  2207               	addwfc	(___aomod@dividend+6)^0,f,c
  3827  0029B2  2208               	addwfc	(___aomod@dividend+7)^0,f,c
  3828  0029B4                     l2284:
  3829  0029B4  C001  F001         	movff	___aomod@dividend,?___aomod
  3830  0029B8  C002  F002         	movff	___aomod@dividend+1,?___aomod+1
  3831  0029BC  C003  F003         	movff	___aomod@dividend+2,?___aomod+2
  3832  0029C0  C004  F004         	movff	___aomod@dividend+3,?___aomod+3
  3833  0029C4  C005  F005         	movff	___aomod@dividend+4,?___aomod+4
  3834  0029C8  C006  F006         	movff	___aomod@dividend+5,?___aomod+5
  3835  0029CC  C007  F007         	movff	___aomod@dividend+6,?___aomod+6
  3836  0029D0  C008  F008         	movff	___aomod@dividend+7,?___aomod+7
  3837  0029D4  0012               	return		;funcret
  3838  0029D6                     __end_of___aomod:
  3839                           	callstack 0
  3840                           
  3841 ;; *************** function ___aodiv *****************
  3842 ;; Defined at:
  3843 ;;		line 9 in file "C:\Program Files\Microchip\xc8\v2.32\pic\sources\c99\common\aodiv.c"
  3844 ;; Parameters:    Size  Location     Type
  3845 ;;  dividend        8    0[COMRAM] long long 
  3846 ;;  divisor         8    8[COMRAM] long long 
  3847 ;; Auto vars:     Size  Location     Type
  3848 ;;  quotient        8   18[COMRAM] long long 
  3849 ;;  sign            1   17[COMRAM] unsigned char 
  3850 ;;  counter         1   16[COMRAM] unsigned char 
  3851 ;; Return value:  Size  Location     Type
  3852 ;;                  8    0[COMRAM] long long 
  3853 ;; Registers used:
  3854 ;;		wreg, fsr2l, fsr2h, status,2, status,0
  3855 ;; Tracked objects:
  3856 ;;		On entry : 0/0
  3857 ;;		On exit  : 0/0
  3858 ;;		Unchanged: 0/0
  3859 ;; Data sizes:     COMRAM   BANK0   BANK1   BANK2   BANK3   BANK4   BANK5   BANK6   BANK7
  3860 ;;      Params:        16       0       0       0       0       0       0       0       0
  3861 ;;      Locals:        10       0       0       0       0       0       0       0       0
  3862 ;;      Temps:          0       0       0       0       0       0       0       0       0
  3863 ;;      Totals:        26       0       0       0       0       0       0       0       0
  3864 ;;Total ram usage:       26 bytes
  3865 ;; Hardware stack levels used: 1
  3866 ;; This function calls:
  3867 ;;		Nothing
  3868 ;; This function is called by:
  3869 ;;		_dtoa
  3870 ;; This function uses a non-reentrant model
  3871 ;;
  3872                           
  3873                           	psect	text16
  3874  0026EA                     __ptext16:
  3875                           	callstack 0
  3876  0026EA                     ___aodiv:
  3877                           	callstack 25
  3878  0026EA  0E00               	movlw	0
  3879  0026EC  6E12               	movwf	___aodiv@sign^0,c
  3880  0026EE  BE10               	btfsc	(___aodiv@divisor+7)^0,7,c
  3881  0026F0  EF7E  F013         	goto	u1880
  3882  0026F4  EF7C  F013         	goto	u1881
  3883  0026F8                     u1881:
  3884  0026F8  EF90  F013         	goto	l2216
  3885  0026FC                     u1880:
  3886  0026FC  1E10               	comf	(___aodiv@divisor+7)^0,f,c
  3887  0026FE  1E0F               	comf	(___aodiv@divisor+6)^0,f,c
  3888  002700  1E0E               	comf	(___aodiv@divisor+5)^0,f,c
  3889  002702  1E0D               	comf	(___aodiv@divisor+4)^0,f,c
  3890  002704  1E0C               	comf	(___aodiv@divisor+3)^0,f,c
  3891  002706  1E0B               	comf	(___aodiv@divisor+2)^0,f,c
  3892  002708  1E0A               	comf	(___aodiv@divisor+1)^0,f,c
  3893  00270A  6C09               	negf	___aodiv@divisor^0,c
  3894  00270C  0E00               	movlw	0
  3895  00270E  220A               	addwfc	(___aodiv@divisor+1)^0,f,c
  3896  002710  220B               	addwfc	(___aodiv@divisor+2)^0,f,c
  3897  002712  220C               	addwfc	(___aodiv@divisor+3)^0,f,c
  3898  002714  220D               	addwfc	(___aodiv@divisor+4)^0,f,c
  3899  002716  220E               	addwfc	(___aodiv@divisor+5)^0,f,c
  3900  002718  220F               	addwfc	(___aodiv@divisor+6)^0,f,c
  3901  00271A  2210               	addwfc	(___aodiv@divisor+7)^0,f,c
  3902  00271C  0E01               	movlw	1
  3903  00271E  6E12               	movwf	___aodiv@sign^0,c
  3904  002720                     l2216:
  3905  002720  BE08               	btfsc	(___aodiv@dividend+7)^0,7,c
  3906  002722  EF97  F013         	goto	u1890
  3907  002726  EF95  F013         	goto	u1891
  3908  00272A                     u1891:
  3909  00272A  EFA9  F013         	goto	l2222
  3910  00272E                     u1890:
  3911  00272E  1E08               	comf	(___aodiv@dividend+7)^0,f,c
  3912  002730  1E07               	comf	(___aodiv@dividend+6)^0,f,c
  3913  002732  1E06               	comf	(___aodiv@dividend+5)^0,f,c
  3914  002734  1E05               	comf	(___aodiv@dividend+4)^0,f,c
  3915  002736  1E04               	comf	(___aodiv@dividend+3)^0,f,c
  3916  002738  1E03               	comf	(___aodiv@dividend+2)^0,f,c
  3917  00273A  1E02               	comf	(___aodiv@dividend+1)^0,f,c
  3918  00273C  6C01               	negf	___aodiv@dividend^0,c
  3919  00273E  0E00               	movlw	0
  3920  002740  2202               	addwfc	(___aodiv@dividend+1)^0,f,c
  3921  002742  2203               	addwfc	(___aodiv@dividend+2)^0,f,c
  3922  002744  2204               	addwfc	(___aodiv@dividend+3)^0,f,c
  3923  002746  2205               	addwfc	(___aodiv@dividend+4)^0,f,c
  3924  002748  2206               	addwfc	(___aodiv@dividend+5)^0,f,c
  3925  00274A  2207               	addwfc	(___aodiv@dividend+6)^0,f,c
  3926  00274C  2208               	addwfc	(___aodiv@dividend+7)^0,f,c
  3927  00274E  0E01               	movlw	1
  3928  002750  1A12               	xorwf	___aodiv@sign^0,f,c
  3929  002752                     l2222:
  3930  002752  EE20  F013         	lfsr	2,___aodiv@quotient
  3931  002756  0E07               	movlw	7
  3932  002758                     u1901:
  3933  002758  6ADE               	clrf	postinc2,c
  3934  00275A  06E8               	decf	wreg,f,c
  3935  00275C  E2FD               	bc	u1901
  3936  00275E  5009               	movf	___aodiv@divisor^0,w,c
  3937  002760  100A               	iorwf	(___aodiv@divisor+1)^0,w,c
  3938  002762  100B               	iorwf	(___aodiv@divisor+2)^0,w,c
  3939  002764  100C               	iorwf	(___aodiv@divisor+3)^0,w,c
  3940  002766  100D               	iorwf	(___aodiv@divisor+4)^0,w,c
  3941  002768  100E               	iorwf	(___aodiv@divisor+5)^0,w,c
  3942  00276A  100F               	iorwf	(___aodiv@divisor+6)^0,w,c
  3943  00276C  1010               	iorwf	(___aodiv@divisor+7)^0,w,c
  3944  00276E  B4D8               	btfsc	status,2,c
  3945  002770  EFBC  F013         	goto	u1911
  3946  002774  EFBE  F013         	goto	u1910
  3947  002778                     u1911:
  3948  002778  EF10  F014         	goto	l2244
  3949  00277C                     u1910:
  3950  00277C  0E01               	movlw	1
  3951  00277E  6E11               	movwf	___aodiv@counter^0,c
  3952  002780  EFCC  F013         	goto	l2230
  3953  002784                     l2228:
  3954  002784  90D8               	bcf	status,0,c
  3955  002786  3609               	rlcf	___aodiv@divisor^0,f,c
  3956  002788  360A               	rlcf	(___aodiv@divisor+1)^0,f,c
  3957  00278A  360B               	rlcf	(___aodiv@divisor+2)^0,f,c
  3958  00278C  360C               	rlcf	(___aodiv@divisor+3)^0,f,c
  3959  00278E  360D               	rlcf	(___aodiv@divisor+4)^0,f,c
  3960  002790  360E               	rlcf	(___aodiv@divisor+5)^0,f,c
  3961  002792  360F               	rlcf	(___aodiv@divisor+6)^0,f,c
  3962  002794  3610               	rlcf	(___aodiv@divisor+7)^0,f,c
  3963  002796  2A11               	incf	___aodiv@counter^0,f,c
  3964  002798                     l2230:
  3965  002798  AE10               	btfss	(___aodiv@divisor+7)^0,7,c
  3966  00279A  EFD1  F013         	goto	u1921
  3967  00279E  EFD3  F013         	goto	u1920
  3968  0027A2                     u1921:
  3969  0027A2  EFC2  F013         	goto	l2228
  3970  0027A6                     u1920:
  3971  0027A6                     l2232:
  3972  0027A6  90D8               	bcf	status,0,c
  3973  0027A8  3613               	rlcf	___aodiv@quotient^0,f,c
  3974  0027AA  3614               	rlcf	(___aodiv@quotient+1)^0,f,c
  3975  0027AC  3615               	rlcf	(___aodiv@quotient+2)^0,f,c
  3976  0027AE  3616               	rlcf	(___aodiv@quotient+3)^0,f,c
  3977  0027B0  3617               	rlcf	(___aodiv@quotient+4)^0,f,c
  3978  0027B2  3618               	rlcf	(___aodiv@quotient+5)^0,f,c
  3979  0027B4  3619               	rlcf	(___aodiv@quotient+6)^0,f,c
  3980  0027B6  361A               	rlcf	(___aodiv@quotient+7)^0,f,c
  3981  0027B8  5009               	movf	___aodiv@divisor^0,w,c
  3982  0027BA  5C01               	subwf	___aodiv@dividend^0,w,c
  3983  0027BC  500A               	movf	(___aodiv@divisor+1)^0,w,c
  3984  0027BE  5802               	subwfb	(___aodiv@dividend+1)^0,w,c
  3985  0027C0  500B               	movf	(___aodiv@divisor+2)^0,w,c
  3986  0027C2  5803               	subwfb	(___aodiv@dividend+2)^0,w,c
  3987  0027C4  500C               	movf	(___aodiv@divisor+3)^0,w,c
  3988  0027C6  5804               	subwfb	(___aodiv@dividend+3)^0,w,c
  3989  0027C8  500D               	movf	(___aodiv@divisor+4)^0,w,c
  3990  0027CA  5805               	subwfb	(___aodiv@dividend+4)^0,w,c
  3991  0027CC  500E               	movf	(___aodiv@divisor+5)^0,w,c
  3992  0027CE  5806               	subwfb	(___aodiv@dividend+5)^0,w,c
  3993  0027D0  500F               	movf	(___aodiv@divisor+6)^0,w,c
  3994  0027D2  5807               	subwfb	(___aodiv@dividend+6)^0,w,c
  3995  0027D4  5010               	movf	(___aodiv@divisor+7)^0,w,c
  3996  0027D6  5808               	subwfb	(___aodiv@dividend+7)^0,w,c
  3997  0027D8  A0D8               	btfss	status,0,c
  3998  0027DA  EFF1  F013         	goto	u1931
  3999  0027DE  EFF3  F013         	goto	u1930
  4000  0027E2                     u1931:
  4001  0027E2  EF04  F014         	goto	l2240
  4002  0027E6                     u1930:
  4003  0027E6  5009               	movf	___aodiv@divisor^0,w,c
  4004  0027E8  5E01               	subwf	___aodiv@dividend^0,f,c
  4005  0027EA  500A               	movf	(___aodiv@divisor+1)^0,w,c
  4006  0027EC  5A02               	subwfb	(___aodiv@dividend+1)^0,f,c
  4007  0027EE  500B               	movf	(___aodiv@divisor+2)^0,w,c
  4008  0027F0  5A03               	subwfb	(___aodiv@dividend+2)^0,f,c
  4009  0027F2  500C               	movf	(___aodiv@divisor+3)^0,w,c
  4010  0027F4  5A04               	subwfb	(___aodiv@dividend+3)^0,f,c
  4011  0027F6  500D               	movf	(___aodiv@divisor+4)^0,w,c
  4012  0027F8  5A05               	subwfb	(___aodiv@dividend+4)^0,f,c
  4013  0027FA  500E               	movf	(___aodiv@divisor+5)^0,w,c
  4014  0027FC  5A06               	subwfb	(___aodiv@dividend+5)^0,f,c
  4015  0027FE  500F               	movf	(___aodiv@divisor+6)^0,w,c
  4016  002800  5A07               	subwfb	(___aodiv@dividend+6)^0,f,c
  4017  002802  5010               	movf	(___aodiv@divisor+7)^0,w,c
  4018  002804  5A08               	subwfb	(___aodiv@dividend+7)^0,f,c
  4019  002806  8013               	bsf	___aodiv@quotient^0,0,c
  4020  002808                     l2240:
  4021  002808  90D8               	bcf	status,0,c
  4022  00280A  3210               	rrcf	(___aodiv@divisor+7)^0,f,c
  4023  00280C  320F               	rrcf	(___aodiv@divisor+6)^0,f,c
  4024  00280E  320E               	rrcf	(___aodiv@divisor+5)^0,f,c
  4025  002810  320D               	rrcf	(___aodiv@divisor+4)^0,f,c
  4026  002812  320C               	rrcf	(___aodiv@divisor+3)^0,f,c
  4027  002814  320B               	rrcf	(___aodiv@divisor+2)^0,f,c
  4028  002816  320A               	rrcf	(___aodiv@divisor+1)^0,f,c
  4029  002818  3209               	rrcf	___aodiv@divisor^0,f,c
  4030  00281A  2E11               	decfsz	___aodiv@counter^0,f,c
  4031  00281C  EFD3  F013         	goto	l2232
  4032  002820                     l2244:
  4033  002820  5012               	movf	___aodiv@sign^0,w,c
  4034  002822  B4D8               	btfsc	status,2,c
  4035  002824  EF16  F014         	goto	u1941
  4036  002828  EF18  F014         	goto	u1940
  4037  00282C                     u1941:
  4038  00282C  EF28  F014         	goto	l2248
  4039  002830                     u1940:
  4040  002830  1E1A               	comf	(___aodiv@quotient+7)^0,f,c
  4041  002832  1E19               	comf	(___aodiv@quotient+6)^0,f,c
  4042  002834  1E18               	comf	(___aodiv@quotient+5)^0,f,c
  4043  002836  1E17               	comf	(___aodiv@quotient+4)^0,f,c
  4044  002838  1E16               	comf	(___aodiv@quotient+3)^0,f,c
  4045  00283A  1E15               	comf	(___aodiv@quotient+2)^0,f,c
  4046  00283C  1E14               	comf	(___aodiv@quotient+1)^0,f,c
  4047  00283E  6C13               	negf	___aodiv@quotient^0,c
  4048  002840  0E00               	movlw	0
  4049  002842  2214               	addwfc	(___aodiv@quotient+1)^0,f,c
  4050  002844  2215               	addwfc	(___aodiv@quotient+2)^0,f,c
  4051  002846  2216               	addwfc	(___aodiv@quotient+3)^0,f,c
  4052  002848  2217               	addwfc	(___aodiv@quotient+4)^0,f,c
  4053  00284A  2218               	addwfc	(___aodiv@quotient+5)^0,f,c
  4054  00284C  2219               	addwfc	(___aodiv@quotient+6)^0,f,c
  4055  00284E  221A               	addwfc	(___aodiv@quotient+7)^0,f,c
  4056  002850                     l2248:
  4057  002850  C013  F001         	movff	___aodiv@quotient,?___aodiv
  4058  002854  C014  F002         	movff	___aodiv@quotient+1,?___aodiv+1
  4059  002858  C015  F003         	movff	___aodiv@quotient+2,?___aodiv+2
  4060  00285C  C016  F004         	movff	___aodiv@quotient+3,?___aodiv+3
  4061  002860  C017  F005         	movff	___aodiv@quotient+4,?___aodiv+4
  4062  002864  C018  F006         	movff	___aodiv@quotient+5,?___aodiv+5
  4063  002868  C019  F007         	movff	___aodiv@quotient+6,?___aodiv+6
  4064  00286C  C01A  F008         	movff	___aodiv@quotient+7,?___aodiv+7
  4065  002870  0012               	return		;funcret
  4066  002872                     __end_of___aodiv:
  4067                           	callstack 0
  4068                           
  4069 ;; *************** function _silencio *****************
  4070 ;; Defined at:
  4071 ;;		line 78 in file "main.c"
  4072 ;; Parameters:    Size  Location     Type
  4073 ;;  duracion        2   49[COMRAM] int 
  4074 ;;  tfrec           4   51[COMRAM] float 
  4075 ;; Auto vars:     Size  Location     Type
  4076 ;;		None
  4077 ;; Return value:  Size  Location     Type
  4078 ;;                  1    wreg      void 
  4079 ;; Registers used:
  4080 ;;		wreg, status,2, status,0, cstack
  4081 ;; Tracked objects:
  4082 ;;		On entry : 0/0
  4083 ;;		On exit  : 0/0
  4084 ;;		Unchanged: 0/0
  4085 ;; Data sizes:     COMRAM   BANK0   BANK1   BANK2   BANK3   BANK4   BANK5   BANK6   BANK7
  4086 ;;      Params:         6       0       0       0       0       0       0       0       0
  4087 ;;      Locals:         4       0       0       0       0       0       0       0       0
  4088 ;;      Temps:          1       0       0       0       0       0       0       0       0
  4089 ;;      Totals:        11       0       0       0       0       0       0       0       0
  4090 ;;Total ram usage:       11 bytes
  4091 ;; Hardware stack levels used: 1
  4092 ;; Hardware stack levels required when called: 2
  4093 ;; This function calls:
  4094 ;;		___fldiv
  4095 ;;		___flsub
  4096 ;;		___fltol
  4097 ;;		___xxtofl
  4098 ;; This function is called by:
  4099 ;;		_cancion1
  4100 ;; This function uses a non-reentrant model
  4101 ;;
  4102                           
  4103                           	psect	text17
  4104  002554                     __ptext17:
  4105                           	callstack 0
  4106  002554                     _silencio:
  4107                           	callstack 27
  4108  002554                     
  4109                           ;main.c: 80:      duracion = duracion/tfrec;
  4110  002554  C034  F013         	movff	silencio@tfrec,___fldiv@a
  4111  002558  C035  F014         	movff	silencio@tfrec+1,___fldiv@a+1
  4112  00255C  C036  F015         	movff	silencio@tfrec+2,___fldiv@a+2
  4113  002560  C037  F016         	movff	silencio@tfrec+3,___fldiv@a+3
  4114  002564  C032  F001         	movff	silencio@duracion,___xxtofl@val
  4115  002568  C033  F002         	movff	silencio@duracion+1,___xxtofl@val+1
  4116  00256C  0E00               	movlw	0
  4117  00256E  BE02               	btfsc	(___xxtofl@val+1)^0,7,c
  4118  002570  0EFF               	movlw	-1
  4119  002572  6E03               	movwf	(___xxtofl@val+2)^0,c
  4120  002574  6E04               	movwf	(___xxtofl@val+3)^0,c
  4121  002576  0E01               	movlw	1
  4122  002578  EC05  F011         	call	___xxtofl
  4123  00257C  C001  F00F         	movff	?___xxtofl,___fldiv@b
  4124  002580  C002  F010         	movff	?___xxtofl+1,___fldiv@b+1
  4125  002584  C003  F011         	movff	?___xxtofl+2,___fldiv@b+2
  4126  002588  C004  F012         	movff	?___xxtofl+3,___fldiv@b+3
  4127  00258C  ECE7  F00B         	call	___fldiv	;wreg free
  4128  002590  C00F  F028         	movff	?___fldiv,___fltol@f1
  4129  002594  C010  F029         	movff	?___fldiv+1,___fltol@f1+1
  4130  002598  C011  F02A         	movff	?___fldiv+2,___fltol@f1+2
  4131  00259C  C012  F02B         	movff	?___fldiv+3,___fltol@f1+3
  4132  0025A0  ECEB  F014         	call	___fltol	;wreg free
  4133  0025A4  C028  F032         	movff	?___fltol,silencio@duracion
  4134  0025A8  C029  F033         	movff	?___fltol+1,silencio@duracion+1
  4135                           
  4136                           ;main.c: 81:      tfrec = 255-((tfrec/2)/(.0002*128));
  4137  0025AC  0E00               	movlw	0
  4138  0025AE  6E13               	movwf	___fldiv@a^0,c
  4139  0025B0  0E00               	movlw	0
  4140  0025B2  6E14               	movwf	(___fldiv@a+1)^0,c
  4141  0025B4  0E00               	movlw	0
  4142  0025B6  6E15               	movwf	(___fldiv@a+2)^0,c
  4143  0025B8  0E40               	movlw	64
  4144  0025BA  6E16               	movwf	(___fldiv@a+3)^0,c
  4145  0025BC  C034  F00F         	movff	silencio@tfrec,___fldiv@b
  4146  0025C0  C035  F010         	movff	silencio@tfrec+1,___fldiv@b+1
  4147  0025C4  C036  F011         	movff	silencio@tfrec+2,___fldiv@b+2
  4148  0025C8  C037  F012         	movff	silencio@tfrec+3,___fldiv@b+3
  4149  0025CC  ECE7  F00B         	call	___fldiv	;wreg free
  4150  0025D0  C00F  F039         	movff	?___fldiv,_silencio$1192
  4151  0025D4  C010  F03A         	movff	?___fldiv+1,_silencio$1192+1
  4152  0025D8  C011  F03B         	movff	?___fldiv+2,_silencio$1192+2
  4153  0025DC  C012  F03C         	movff	?___fldiv+3,_silencio$1192+3
  4154                           
  4155                           ;main.c: 81:      tfrec = 255-((tfrec/2)/(.0002*128));
  4156  0025E0  0E00               	movlw	0
  4157  0025E2  6E28               	movwf	___flsub@b^0,c
  4158  0025E4  0E00               	movlw	0
  4159  0025E6  6E29               	movwf	(___flsub@b+1)^0,c
  4160  0025E8  0E7F               	movlw	127
  4161  0025EA  6E2A               	movwf	(___flsub@b+2)^0,c
  4162  0025EC  0E43               	movlw	67
  4163  0025EE  6E2B               	movwf	(___flsub@b+3)^0,c
  4164  0025F0  0E17               	movlw	23
  4165  0025F2  6E13               	movwf	___fldiv@a^0,c
  4166  0025F4  0EB7               	movlw	183
  4167  0025F6  6E14               	movwf	(___fldiv@a+1)^0,c
  4168  0025F8  0ED1               	movlw	209
  4169  0025FA  6E15               	movwf	(___fldiv@a+2)^0,c
  4170  0025FC  0E3C               	movlw	60
  4171  0025FE  6E16               	movwf	(___fldiv@a+3)^0,c
  4172  002600  C039  F00F         	movff	_silencio$1192,___fldiv@b
  4173  002604  C03A  F010         	movff	_silencio$1192+1,___fldiv@b+1
  4174  002608  C03B  F011         	movff	_silencio$1192+2,___fldiv@b+2
  4175  00260C  C03C  F012         	movff	_silencio$1192+3,___fldiv@b+3
  4176  002610  ECE7  F00B         	call	___fldiv	;wreg free
  4177  002614  C00F  F02C         	movff	?___fldiv,___flsub@a
  4178  002618  C010  F02D         	movff	?___fldiv+1,___flsub@a+1
  4179  00261C  C011  F02E         	movff	?___fldiv+2,___flsub@a+2
  4180  002620  C012  F02F         	movff	?___fldiv+3,___flsub@a+3
  4181  002624  ECD0  F018         	call	___flsub	;wreg free
  4182  002628  C028  F034         	movff	?___flsub,silencio@tfrec
  4183  00262C  C029  F035         	movff	?___flsub+1,silencio@tfrec+1
  4184  002630  C02A  F036         	movff	?___flsub+2,silencio@tfrec+2
  4185  002634  C02B  F037         	movff	?___flsub+3,silencio@tfrec+3
  4186  002638                     
  4187                           ;main.c: 83:        for(b=0;b<duracion;b++){
  4188  002638  0E00               	movlw	0
  4189  00263A  0100               	movlb	0	; () banked
  4190  00263C  6F7D               	movwf	(_b+1)& (0+255),b
  4191  00263E  0E00               	movlw	0
  4192  002640  6F7C               	movwf	_b& (0+255),b
  4193  002642  EF65  F013         	goto	l3016
  4194  002646                     l115:
  4195                           
  4196                           ; BSR set to: 0
  4197                           ;main.c: 84:                        if(PORTBbits.RB0 == 1){
  4198  002646  A081               	btfss	129,0,c	;volatile
  4199  002648  EF28  F013         	goto	u3171
  4200  00264C  EF2A  F013         	goto	u3170
  4201  002650                     u3171:
  4202  002650  EF30  F013         	goto	l3006
  4203  002654                     u3170:
  4204  002654                     
  4205                           ; BSR set to: 0
  4206                           ;main.c: 85:                                     k = 0;
  4207  002654  0E00               	movlw	0
  4208  002656  6FD0               	movwf	(_k+1)& (0+255),b
  4209  002658  0E00               	movlw	0
  4210  00265A  6FCF               	movwf	_k& (0+255),b
  4211                           
  4212                           ;main.c: 86:                                 }
  4213  00265C  EF34  F013         	goto	l3008
  4214  002660                     l3006:
  4215                           
  4216                           ; BSR set to: 0
  4217                           ;main.c: 88:                                     k = 1;
  4218  002660  0E00               	movlw	0
  4219  002662  6FD0               	movwf	(_k+1)& (0+255),b
  4220  002664  0E01               	movlw	1
  4221  002666  6FCF               	movwf	_k& (0+255),b
  4222  002668                     l3008:
  4223                           
  4224                           ; BSR set to: 0
  4225                           ;main.c: 90:             PORTBbits.RB1 = 0;
  4226  002668  9281               	bcf	129,1,c	;volatile
  4227  00266A                     
  4228                           ; BSR set to: 0
  4229                           ;main.c: 91:            TMR0 = tfrec;
  4230  00266A  C034  F028         	movff	silencio@tfrec,___fltol@f1
  4231  00266E  C035  F029         	movff	silencio@tfrec+1,___fltol@f1+1
  4232  002672  C036  F02A         	movff	silencio@tfrec+2,___fltol@f1+2
  4233  002676  C037  F02B         	movff	silencio@tfrec+3,___fltol@f1+3
  4234  00267A  ECEB  F014         	call	___fltol	;wreg free
  4235  00267E  C028  FFD6         	movff	?___fltol,4054	;volatile
  4236  002682  C029  FFD7         	movff	?___fltol+1,4055	;volatile
  4237  002686                     l118:
  4238  002686  A4F2               	btfss	242,2,c	;volatile
  4239  002688  EF48  F013         	goto	u3181
  4240  00268C  EF4A  F013         	goto	u3180
  4241  002690                     u3181:
  4242  002690  EF43  F013         	goto	l118
  4243  002694                     u3180:
  4244  002694                     
  4245                           ;main.c: 93:            INTCONbits.TMR0IF=0;
  4246  002694  94F2               	bcf	242,2,c	;volatile
  4247                           
  4248                           ;main.c: 95:         PORTBbits.RB1=0;
  4249  002696  9281               	bcf	129,1,c	;volatile
  4250  002698                     
  4251                           ;main.c: 96:          TMR0 = tfrec;
  4252  002698  C034  F028         	movff	silencio@tfrec,___fltol@f1
  4253  00269C  C035  F029         	movff	silencio@tfrec+1,___fltol@f1+1
  4254  0026A0  C036  F02A         	movff	silencio@tfrec+2,___fltol@f1+2
  4255  0026A4  C037  F02B         	movff	silencio@tfrec+3,___fltol@f1+3
  4256  0026A8  ECEB  F014         	call	___fltol	;wreg free
  4257  0026AC  C028  FFD6         	movff	?___fltol,4054	;volatile
  4258  0026B0  C029  FFD7         	movff	?___fltol+1,4055	;volatile
  4259  0026B4                     l121:
  4260  0026B4  A4F2               	btfss	242,2,c	;volatile
  4261  0026B6  EF5F  F013         	goto	u3191
  4262  0026BA  EF61  F013         	goto	u3190
  4263  0026BE                     u3191:
  4264  0026BE  EF5A  F013         	goto	l121
  4265  0026C2                     u3190:
  4266  0026C2                     
  4267                           ;main.c: 98:          INTCONbits.TMR0IF=0;
  4268  0026C2  94F2               	bcf	242,2,c	;volatile
  4269  0026C4                     
  4270                           ;main.c: 99: }
  4271  0026C4  0100               	movlb	0	; () banked
  4272  0026C6  4B7C               	infsnz	_b& (0+255),f,b
  4273  0026C8  2B7D               	incf	(_b+1)& (0+255),f,b
  4274  0026CA                     l3016:
  4275                           
  4276                           ; BSR set to: 0
  4277  0026CA  5032               	movf	silencio@duracion^0,w,c
  4278  0026CC  5D7C               	subwf	_b& (0+255),w,b
  4279  0026CE  517D               	movf	(_b+1)& (0+255),w,b
  4280  0026D0  0A80               	xorlw	128
  4281  0026D2  6E38               	movwf	??_silencio^0,c
  4282  0026D4  5033               	movf	(silencio@duracion+1)^0,w,c
  4283  0026D6  0A80               	xorlw	128
  4284  0026D8  5838               	subwfb	??_silencio^0,w,c
  4285  0026DA  A0D8               	btfss	status,0,c
  4286  0026DC  EF72  F013         	goto	u3201
  4287  0026E0  EF74  F013         	goto	u3200
  4288  0026E4                     u3201:
  4289  0026E4  EF23  F013         	goto	l115
  4290  0026E8                     u3200:
  4291  0026E8                     
  4292                           ; BSR set to: 0
  4293  0026E8  0012               	return		;funcret
  4294  0026EA                     __end_of_silencio:
  4295                           	callstack 0
  4296                           
  4297 ;; *************** function ___xxtofl *****************
  4298 ;; Defined at:
  4299 ;;		line 10 in file "C:\Program Files\Microchip\xc8\v2.32\pic\sources\c99\common\xxtofl.c"
  4300 ;; Parameters:    Size  Location     Type
  4301 ;;  sign            1    wreg     unsigned char 
  4302 ;;  val             4    0[COMRAM] long 
  4303 ;; Auto vars:     Size  Location     Type
  4304 ;;  sign            1    8[COMRAM] unsigned char 
  4305 ;;  arg             4   10[COMRAM] unsigned long 
  4306 ;;  exp             1    9[COMRAM] unsigned char 
  4307 ;; Return value:  Size  Location     Type
  4308 ;;                  4    0[COMRAM] unsigned char 
  4309 ;; Registers used:
  4310 ;;		wreg, status,2, status,0
  4311 ;; Tracked objects:
  4312 ;;		On entry : 0/0
  4313 ;;		On exit  : 0/0
  4314 ;;		Unchanged: 0/0
  4315 ;; Data sizes:     COMRAM   BANK0   BANK1   BANK2   BANK3   BANK4   BANK5   BANK6   BANK7
  4316 ;;      Params:         4       0       0       0       0       0       0       0       0
  4317 ;;      Locals:         6       0       0       0       0       0       0       0       0
  4318 ;;      Temps:          4       0       0       0       0       0       0       0       0
  4319 ;;      Totals:        14       0       0       0       0       0       0       0       0
  4320 ;;Total ram usage:       14 bytes
  4321 ;; Hardware stack levels used: 1
  4322 ;; This function calls:
  4323 ;;		Nothing
  4324 ;; This function is called by:
  4325 ;;		_tocar_nota
  4326 ;;		_silencio
  4327 ;;		_cancion1
  4328 ;; This function uses a non-reentrant model
  4329 ;;
  4330                           
  4331                           	psect	text18
  4332  00220A                     __ptext18:
  4333                           	callstack 0
  4334  00220A                     ___xxtofl:
  4335                           	callstack 28
  4336                           
  4337                           ; BSR set to: 0
  4338                           ;incstack = 0
  4339                           ;___xxtofl@sign stored from wreg
  4340  00220A  6E09               	movwf	___xxtofl@sign^0,c
  4341  00220C  5009               	movf	___xxtofl@sign^0,w,c
  4342  00220E  B4D8               	btfsc	status,2,c
  4343  002210  EF0C  F011         	goto	u3001
  4344  002214  EF0E  F011         	goto	u3000
  4345  002218                     u3001:
  4346  002218  EF30  F011         	goto	l821
  4347  00221C                     u3000:
  4348  00221C  BE04               	btfsc	(___xxtofl@val+3)^0,7,c
  4349  00221E  EF15  F011         	goto	u3010
  4350  002222  EF13  F011         	goto	u3011
  4351  002226                     u3011:
  4352  002226  EF30  F011         	goto	l821
  4353  00222A                     u3010:
  4354  00222A  C001  F005         	movff	___xxtofl@val,??___xxtofl
  4355  00222E  C002  F006         	movff	___xxtofl@val+1,??___xxtofl+1
  4356  002232  C003  F007         	movff	___xxtofl@val+2,??___xxtofl+2
  4357  002236  C004  F008         	movff	___xxtofl@val+3,??___xxtofl+3
  4358  00223A  1E05               	comf	??___xxtofl^0,f,c
  4359  00223C  1E06               	comf	(??___xxtofl+1)^0,f,c
  4360  00223E  1E07               	comf	(??___xxtofl+2)^0,f,c
  4361  002240  1E08               	comf	(??___xxtofl+3)^0,f,c
  4362  002242  2A05               	incf	??___xxtofl^0,f,c
  4363  002244  0E00               	movlw	0
  4364  002246  2206               	addwfc	(??___xxtofl+1)^0,f,c
  4365  002248  2207               	addwfc	(??___xxtofl+2)^0,f,c
  4366  00224A  2208               	addwfc	(??___xxtofl+3)^0,f,c
  4367  00224C  C005  F00B         	movff	??___xxtofl,___xxtofl@arg
  4368  002250  C006  F00C         	movff	??___xxtofl+1,___xxtofl@arg+1
  4369  002254  C007  F00D         	movff	??___xxtofl+2,___xxtofl@arg+2
  4370  002258  C008  F00E         	movff	??___xxtofl+3,___xxtofl@arg+3
  4371  00225C  EF38  F011         	goto	l2918
  4372  002260                     l821:
  4373  002260  C001  F00B         	movff	___xxtofl@val,___xxtofl@arg
  4374  002264  C002  F00C         	movff	___xxtofl@val+1,___xxtofl@arg+1
  4375  002268  C003  F00D         	movff	___xxtofl@val+2,___xxtofl@arg+2
  4376  00226C  C004  F00E         	movff	___xxtofl@val+3,___xxtofl@arg+3
  4377  002270                     l2918:
  4378  002270  5001               	movf	___xxtofl@val^0,w,c
  4379  002272  1002               	iorwf	(___xxtofl@val+1)^0,w,c
  4380  002274  1003               	iorwf	(___xxtofl@val+2)^0,w,c
  4381  002276  1004               	iorwf	(___xxtofl@val+3)^0,w,c
  4382  002278  A4D8               	btfss	status,2,c
  4383  00227A  EF41  F011         	goto	u3021
  4384  00227E  EF43  F011         	goto	u3020
  4385  002282                     u3021:
  4386  002282  EF4D  F011         	goto	l2924
  4387  002286                     u3020:
  4388  002286  0E00               	movlw	0
  4389  002288  6E01               	movwf	?___xxtofl^0,c
  4390  00228A  0E00               	movlw	0
  4391  00228C  6E02               	movwf	(?___xxtofl+1)^0,c
  4392  00228E  0E00               	movlw	0
  4393  002290  6E03               	movwf	(?___xxtofl+2)^0,c
  4394  002292  0E00               	movlw	0
  4395  002294  6E04               	movwf	(?___xxtofl+3)^0,c
  4396  002296  EFDE  F011         	goto	l824
  4397  00229A                     l2924:
  4398  00229A  0E96               	movlw	150
  4399  00229C  6E0A               	movwf	___xxtofl@exp^0,c
  4400  00229E  EF57  F011         	goto	l2928
  4401  0022A2                     l2926:
  4402  0022A2  2A0A               	incf	___xxtofl@exp^0,f,c
  4403  0022A4  90D8               	bcf	status,0,c
  4404  0022A6  320E               	rrcf	(___xxtofl@arg+3)^0,f,c
  4405  0022A8  320D               	rrcf	(___xxtofl@arg+2)^0,f,c
  4406  0022AA  320C               	rrcf	(___xxtofl@arg+1)^0,f,c
  4407  0022AC  320B               	rrcf	___xxtofl@arg^0,f,c
  4408  0022AE                     l2928:
  4409  0022AE  0E00               	movlw	0
  4410  0022B0  140B               	andwf	___xxtofl@arg^0,w,c
  4411  0022B2  6E05               	movwf	??___xxtofl^0,c
  4412  0022B4  0E00               	movlw	0
  4413  0022B6  140C               	andwf	(___xxtofl@arg+1)^0,w,c
  4414  0022B8  6E06               	movwf	(??___xxtofl+1)^0,c
  4415  0022BA  0E00               	movlw	0
  4416  0022BC  140D               	andwf	(___xxtofl@arg+2)^0,w,c
  4417  0022BE  6E07               	movwf	(??___xxtofl+2)^0,c
  4418  0022C0  0EFE               	movlw	254
  4419  0022C2  140E               	andwf	(___xxtofl@arg+3)^0,w,c
  4420  0022C4  6E08               	movwf	(??___xxtofl+3)^0,c
  4421  0022C6  5005               	movf	??___xxtofl^0,w,c
  4422  0022C8  1006               	iorwf	(??___xxtofl+1)^0,w,c
  4423  0022CA  1007               	iorwf	(??___xxtofl+2)^0,w,c
  4424  0022CC  1008               	iorwf	(??___xxtofl+3)^0,w,c
  4425  0022CE  A4D8               	btfss	status,2,c
  4426  0022D0  EF6C  F011         	goto	u3031
  4427  0022D4  EF6E  F011         	goto	u3030
  4428  0022D8                     u3031:
  4429  0022D8  EF51  F011         	goto	l2926
  4430  0022DC                     u3030:
  4431  0022DC  EF7C  F011         	goto	l828
  4432  0022E0                     l2930:
  4433  0022E0  2A0A               	incf	___xxtofl@exp^0,f,c
  4434  0022E2  0E01               	movlw	1
  4435  0022E4  260B               	addwf	___xxtofl@arg^0,f,c
  4436  0022E6  0E00               	movlw	0
  4437  0022E8  220C               	addwfc	(___xxtofl@arg+1)^0,f,c
  4438  0022EA  220D               	addwfc	(___xxtofl@arg+2)^0,f,c
  4439  0022EC  220E               	addwfc	(___xxtofl@arg+3)^0,f,c
  4440  0022EE  90D8               	bcf	status,0,c
  4441  0022F0  320E               	rrcf	(___xxtofl@arg+3)^0,f,c
  4442  0022F2  320D               	rrcf	(___xxtofl@arg+2)^0,f,c
  4443  0022F4  320C               	rrcf	(___xxtofl@arg+1)^0,f,c
  4444  0022F6  320B               	rrcf	___xxtofl@arg^0,f,c
  4445  0022F8                     l828:
  4446  0022F8  0E00               	movlw	0
  4447  0022FA  140B               	andwf	___xxtofl@arg^0,w,c
  4448  0022FC  6E05               	movwf	??___xxtofl^0,c
  4449  0022FE  0E00               	movlw	0
  4450  002300  140C               	andwf	(___xxtofl@arg+1)^0,w,c
  4451  002302  6E06               	movwf	(??___xxtofl+1)^0,c
  4452  002304  0E00               	movlw	0
  4453  002306  140D               	andwf	(___xxtofl@arg+2)^0,w,c
  4454  002308  6E07               	movwf	(??___xxtofl+2)^0,c
  4455  00230A  0EFF               	movlw	255
  4456  00230C  140E               	andwf	(___xxtofl@arg+3)^0,w,c
  4457  00230E  6E08               	movwf	(??___xxtofl+3)^0,c
  4458  002310  5005               	movf	??___xxtofl^0,w,c
  4459  002312  1006               	iorwf	(??___xxtofl+1)^0,w,c
  4460  002314  1007               	iorwf	(??___xxtofl+2)^0,w,c
  4461  002316  1008               	iorwf	(??___xxtofl+3)^0,w,c
  4462  002318  A4D8               	btfss	status,2,c
  4463  00231A  EF91  F011         	goto	u3041
  4464  00231E  EF93  F011         	goto	u3040
  4465  002322                     u3041:
  4466  002322  EF70  F011         	goto	l2930
  4467  002326                     u3040:
  4468  002326  EF9B  F011         	goto	l2938
  4469  00232A                     l2936:
  4470  00232A  060A               	decf	___xxtofl@exp^0,f,c
  4471  00232C  90D8               	bcf	status,0,c
  4472  00232E  360B               	rlcf	___xxtofl@arg^0,f,c
  4473  002330  360C               	rlcf	(___xxtofl@arg+1)^0,f,c
  4474  002332  360D               	rlcf	(___xxtofl@arg+2)^0,f,c
  4475  002334  360E               	rlcf	(___xxtofl@arg+3)^0,f,c
  4476  002336                     l2938:
  4477  002336  BE0D               	btfsc	(___xxtofl@arg+2)^0,7,c
  4478  002338  EFA0  F011         	goto	u3051
  4479  00233C  EFA2  F011         	goto	u3050
  4480  002340                     u3051:
  4481  002340  EFAA  F011         	goto	l835
  4482  002344                     u3050:
  4483  002344  0E02               	movlw	2
  4484  002346  600A               	cpfslt	___xxtofl@exp^0,c
  4485  002348  EFA8  F011         	goto	u3061
  4486  00234C  EFAA  F011         	goto	u3060
  4487  002350                     u3061:
  4488  002350  EF95  F011         	goto	l2936
  4489  002354                     u3060:
  4490  002354                     l835:
  4491  002354  B00A               	btfsc	___xxtofl@exp^0,0,c
  4492  002356  EFAF  F011         	goto	u3071
  4493  00235A  EFB1  F011         	goto	u3070
  4494  00235E                     u3071:
  4495  00235E  EFB2  F011         	goto	l2944
  4496  002362                     u3070:
  4497  002362  9E0D               	bcf	(___xxtofl@arg+2)^0,7,c
  4498  002364                     l2944:
  4499  002364  90D8               	bcf	status,0,c
  4500  002366  320A               	rrcf	___xxtofl@exp^0,f,c
  4501  002368  C00A  F005         	movff	___xxtofl@exp,??___xxtofl
  4502  00236C  6A06               	clrf	(??___xxtofl+1)^0,c
  4503  00236E  6A07               	clrf	(??___xxtofl+2)^0,c
  4504  002370  6A08               	clrf	(??___xxtofl+3)^0,c
  4505  002372  C005  F008         	movff	??___xxtofl,??___xxtofl+3
  4506  002376  6A07               	clrf	(??___xxtofl+2)^0,c
  4507  002378  6A06               	clrf	(??___xxtofl+1)^0,c
  4508  00237A  6A05               	clrf	??___xxtofl^0,c
  4509  00237C  5005               	movf	??___xxtofl^0,w,c
  4510  00237E  120B               	iorwf	___xxtofl@arg^0,f,c
  4511  002380  5006               	movf	(??___xxtofl+1)^0,w,c
  4512  002382  120C               	iorwf	(___xxtofl@arg+1)^0,f,c
  4513  002384  5007               	movf	(??___xxtofl+2)^0,w,c
  4514  002386  120D               	iorwf	(___xxtofl@arg+2)^0,f,c
  4515  002388  5008               	movf	(??___xxtofl+3)^0,w,c
  4516  00238A  120E               	iorwf	(___xxtofl@arg+3)^0,f,c
  4517  00238C  5009               	movf	___xxtofl@sign^0,w,c
  4518  00238E  B4D8               	btfsc	status,2,c
  4519  002390  EFCC  F011         	goto	u3081
  4520  002394  EFCE  F011         	goto	u3080
  4521  002398                     u3081:
  4522  002398  EFD6  F011         	goto	l2954
  4523  00239C                     u3080:
  4524  00239C  BE04               	btfsc	(___xxtofl@val+3)^0,7,c
  4525  00239E  EFD5  F011         	goto	u3090
  4526  0023A2  EFD3  F011         	goto	u3091
  4527  0023A6                     u3091:
  4528  0023A6  EFD6  F011         	goto	l2954
  4529  0023AA                     u3090:
  4530  0023AA  8E0E               	bsf	(___xxtofl@arg+3)^0,7,c
  4531  0023AC                     l2954:
  4532  0023AC  C00B  F001         	movff	___xxtofl@arg,?___xxtofl
  4533  0023B0  C00C  F002         	movff	___xxtofl@arg+1,?___xxtofl+1
  4534  0023B4  C00D  F003         	movff	___xxtofl@arg+2,?___xxtofl+2
  4535  0023B8  C00E  F004         	movff	___xxtofl@arg+3,?___xxtofl+3
  4536  0023BC                     l824:
  4537  0023BC  0012               	return		;funcret
  4538  0023BE                     __end_of___xxtofl:
  4539                           	callstack 0
  4540                           
  4541 ;; *************** function ___fltol *****************
  4542 ;; Defined at:
  4543 ;;		line 43 in file "C:\Program Files\Microchip\xc8\v2.32\pic\sources\c99\common\fltol.c"
  4544 ;; Parameters:    Size  Location     Type
  4545 ;;  f1              4   39[COMRAM] unsigned char 
  4546 ;; Auto vars:     Size  Location     Type
  4547 ;;  exp1            1   48[COMRAM] unsigned char 
  4548 ;;  sign1           1   47[COMRAM] unsigned char 
  4549 ;; Return value:  Size  Location     Type
  4550 ;;                  4   39[COMRAM] long 
  4551 ;; Registers used:
  4552 ;;		wreg, status,2, status,0
  4553 ;; Tracked objects:
  4554 ;;		On entry : 0/0
  4555 ;;		On exit  : 0/0
  4556 ;;		Unchanged: 0/0
  4557 ;; Data sizes:     COMRAM   BANK0   BANK1   BANK2   BANK3   BANK4   BANK5   BANK6   BANK7
  4558 ;;      Params:         4       0       0       0       0       0       0       0       0
  4559 ;;      Locals:         2       0       0       0       0       0       0       0       0
  4560 ;;      Temps:          4       0       0       0       0       0       0       0       0
  4561 ;;      Totals:        10       0       0       0       0       0       0       0       0
  4562 ;;Total ram usage:       10 bytes
  4563 ;; Hardware stack levels used: 1
  4564 ;; This function calls:
  4565 ;;		Nothing
  4566 ;; This function is called by:
  4567 ;;		_tocar_nota
  4568 ;;		_silencio
  4569 ;;		_cancion1
  4570 ;; This function uses a non-reentrant model
  4571 ;;
  4572                           
  4573                           	psect	text19
  4574  0029D6                     __ptext19:
  4575                           	callstack 0
  4576  0029D6                     ___fltol:
  4577                           	callstack 28
  4578  0029D6  342A               	rlcf	(___fltol@f1+2)^0,w,c
  4579  0029D8  342B               	rlcf	(___fltol@f1+3)^0,w,c
  4580  0029DA  6E31               	movwf	___fltol@exp1^0,c
  4581  0029DC  5031               	movf	___fltol@exp1^0,w,c
  4582  0029DE  A4D8               	btfss	status,2,c
  4583  0029E0  EFF4  F014         	goto	u2931
  4584  0029E4  EFF6  F014         	goto	u2930
  4585  0029E8                     u2931:
  4586  0029E8  EF00  F015         	goto	l2874
  4587  0029EC                     u2930:
  4588  0029EC                     l2870:
  4589  0029EC  0E00               	movlw	0
  4590  0029EE  6E28               	movwf	?___fltol^0,c
  4591  0029F0  0E00               	movlw	0
  4592  0029F2  6E29               	movwf	(?___fltol+1)^0,c
  4593  0029F4  0E00               	movlw	0
  4594  0029F6  6E2A               	movwf	(?___fltol+2)^0,c
  4595  0029F8  0E00               	movlw	0
  4596  0029FA  6E2B               	movwf	(?___fltol+3)^0,c
  4597  0029FC  EF6D  F015         	goto	l463
  4598  002A00                     l2874:
  4599  002A00  C028  F02C         	movff	___fltol@f1,??___fltol
  4600  002A04  C029  F02D         	movff	___fltol@f1+1,??___fltol+1
  4601  002A08  C02A  F02E         	movff	___fltol@f1+2,??___fltol+2
  4602  002A0C  C02B  F02F         	movff	___fltol@f1+3,??___fltol+3
  4603  002A10  0E20               	movlw	32
  4604  002A12  EF10  F015         	goto	u2940
  4605  002A16                     u2945:
  4606  002A16  90D8               	bcf	status,0,c
  4607  002A18  322F               	rrcf	(??___fltol+3)^0,f,c
  4608  002A1A  322E               	rrcf	(??___fltol+2)^0,f,c
  4609  002A1C  322D               	rrcf	(??___fltol+1)^0,f,c
  4610  002A1E  322C               	rrcf	??___fltol^0,f,c
  4611  002A20                     u2940:
  4612  002A20  2EE8               	decfsz	wreg,f,c
  4613  002A22  EF0B  F015         	goto	u2945
  4614  002A26  502C               	movf	??___fltol^0,w,c
  4615  002A28  6E30               	movwf	___fltol@sign1^0,c
  4616  002A2A  8E2A               	bsf	(___fltol@f1+2)^0,7,c
  4617  002A2C  0EFF               	movlw	255
  4618  002A2E  1628               	andwf	___fltol@f1^0,f,c
  4619  002A30  0EFF               	movlw	255
  4620  002A32  1629               	andwf	(___fltol@f1+1)^0,f,c
  4621  002A34  0EFF               	movlw	255
  4622  002A36  162A               	andwf	(___fltol@f1+2)^0,f,c
  4623  002A38  0E00               	movlw	0
  4624  002A3A  162B               	andwf	(___fltol@f1+3)^0,f,c
  4625  002A3C  0E96               	movlw	150
  4626  002A3E  5E31               	subwf	___fltol@exp1^0,f,c
  4627  002A40  BE31               	btfsc	___fltol@exp1^0,7,c
  4628  002A42  EF27  F015         	goto	u2950
  4629  002A46  EF25  F015         	goto	u2951
  4630  002A4A                     u2951:
  4631  002A4A  EF3D  F015         	goto	l2894
  4632  002A4E                     u2950:
  4633  002A4E  5031               	movf	___fltol@exp1^0,w,c
  4634  002A50  0A80               	xorlw	128
  4635  002A52  0F97               	addlw	151
  4636  002A54  B0D8               	btfsc	status,0,c
  4637  002A56  EF2F  F015         	goto	u2961
  4638  002A5A  EF31  F015         	goto	u2960
  4639  002A5E                     u2961:
  4640  002A5E  EF33  F015         	goto	l2890
  4641  002A62                     u2960:
  4642  002A62  EFF6  F014         	goto	l2870
  4643  002A66                     l2890:
  4644  002A66  90D8               	bcf	status,0,c
  4645  002A68  322B               	rrcf	(___fltol@f1+3)^0,f,c
  4646  002A6A  322A               	rrcf	(___fltol@f1+2)^0,f,c
  4647  002A6C  3229               	rrcf	(___fltol@f1+1)^0,f,c
  4648  002A6E  3228               	rrcf	___fltol@f1^0,f,c
  4649  002A70  3E31               	incfsz	___fltol@exp1^0,f,c
  4650  002A72  EF33  F015         	goto	l2890
  4651  002A76  EF55  F015         	goto	l2904
  4652  002A7A                     l2894:
  4653  002A7A  0E1F               	movlw	31
  4654  002A7C  6431               	cpfsgt	___fltol@exp1^0,c
  4655  002A7E  EF43  F015         	goto	u2971
  4656  002A82  EF45  F015         	goto	u2970
  4657  002A86                     u2971:
  4658  002A86  EF4D  F015         	goto	l2902
  4659  002A8A                     u2970:
  4660  002A8A  EFF6  F014         	goto	l2870
  4661  002A8E                     l2900:
  4662  002A8E  90D8               	bcf	status,0,c
  4663  002A90  3628               	rlcf	___fltol@f1^0,f,c
  4664  002A92  3629               	rlcf	(___fltol@f1+1)^0,f,c
  4665  002A94  362A               	rlcf	(___fltol@f1+2)^0,f,c
  4666  002A96  362B               	rlcf	(___fltol@f1+3)^0,f,c
  4667  002A98  0631               	decf	___fltol@exp1^0,f,c
  4668  002A9A                     l2902:
  4669  002A9A  5031               	movf	___fltol@exp1^0,w,c
  4670  002A9C  A4D8               	btfss	status,2,c
  4671  002A9E  EF53  F015         	goto	u2981
  4672  002AA2  EF55  F015         	goto	u2980
  4673  002AA6                     u2981:
  4674  002AA6  EF47  F015         	goto	l2900
  4675  002AAA                     u2980:
  4676  002AAA                     l2904:
  4677  002AAA  5030               	movf	___fltol@sign1^0,w,c
  4678  002AAC  B4D8               	btfsc	status,2,c
  4679  002AAE  EF5B  F015         	goto	u2991
  4680  002AB2  EF5D  F015         	goto	u2990
  4681  002AB6                     u2991:
  4682  002AB6  EF65  F015         	goto	l2908
  4683  002ABA                     u2990:
  4684  002ABA  1E2B               	comf	(___fltol@f1+3)^0,f,c
  4685  002ABC  1E2A               	comf	(___fltol@f1+2)^0,f,c
  4686  002ABE  1E29               	comf	(___fltol@f1+1)^0,f,c
  4687  002AC0  6C28               	negf	___fltol@f1^0,c
  4688  002AC2  0E00               	movlw	0
  4689  002AC4  2229               	addwfc	(___fltol@f1+1)^0,f,c
  4690  002AC6  222A               	addwfc	(___fltol@f1+2)^0,f,c
  4691  002AC8  222B               	addwfc	(___fltol@f1+3)^0,f,c
  4692  002ACA                     l2908:
  4693  002ACA  C028  F028         	movff	___fltol@f1,?___fltol
  4694  002ACE  C029  F029         	movff	___fltol@f1+1,?___fltol+1
  4695  002AD2  C02A  F02A         	movff	___fltol@f1+2,?___fltol+2
  4696  002AD6  C02B  F02B         	movff	___fltol@f1+3,?___fltol+3
  4697  002ADA                     l463:
  4698  002ADA  0012               	return		;funcret
  4699  002ADC                     __end_of___fltol:
  4700                           	callstack 0
  4701                           
  4702 ;; *************** function ___flsub *****************
  4703 ;; Defined at:
  4704 ;;		line 245 in file "C:\Program Files\Microchip\xc8\v2.32\pic\sources\c99\common\sprcadd.c"
  4705 ;; Parameters:    Size  Location     Type
  4706 ;;  b               4   39[COMRAM] long 
  4707 ;;  a               4   43[COMRAM] long 
  4708 ;; Auto vars:     Size  Location     Type
  4709 ;;		None
  4710 ;; Return value:  Size  Location     Type
  4711 ;;                  4   39[COMRAM] long 
  4712 ;; Registers used:
  4713 ;;		wreg, status,2, status,0, cstack
  4714 ;; Tracked objects:
  4715 ;;		On entry : 0/0
  4716 ;;		On exit  : 0/0
  4717 ;;		Unchanged: 0/0
  4718 ;; Data sizes:     COMRAM   BANK0   BANK1   BANK2   BANK3   BANK4   BANK5   BANK6   BANK7
  4719 ;;      Params:         8       0       0       0       0       0       0       0       0
  4720 ;;      Locals:         0       0       0       0       0       0       0       0       0
  4721 ;;      Temps:          0       0       0       0       0       0       0       0       0
  4722 ;;      Totals:         8       0       0       0       0       0       0       0       0
  4723 ;;Total ram usage:        8 bytes
  4724 ;; Hardware stack levels used: 1
  4725 ;; Hardware stack levels required when called: 1
  4726 ;; This function calls:
  4727 ;;		___fladd
  4728 ;; This function is called by:
  4729 ;;		_tocar_nota
  4730 ;;		_silencio
  4731 ;; This function uses a non-reentrant model
  4732 ;;
  4733                           
  4734                           	psect	text20
  4735  0031A0                     __ptext20:
  4736                           	callstack 0
  4737  0031A0                     ___flsub:
  4738                           	callstack 27
  4739  0031A0  0E00               	movlw	0
  4740  0031A2  1A2C               	xorwf	___flsub@a^0,f,c
  4741  0031A4  0E00               	movlw	0
  4742  0031A6  1A2D               	xorwf	(___flsub@a+1)^0,f,c
  4743  0031A8  0E00               	movlw	0
  4744  0031AA  1A2E               	xorwf	(___flsub@a+2)^0,f,c
  4745  0031AC  0E80               	movlw	128
  4746  0031AE  1A2F               	xorwf	(___flsub@a+3)^0,f,c
  4747  0031B0  C028  F001         	movff	___flsub@b,___fladd@b
  4748  0031B4  C029  F002         	movff	___flsub@b+1,___fladd@b+1
  4749  0031B8  C02A  F003         	movff	___flsub@b+2,___fladd@b+2
  4750  0031BC  C02B  F004         	movff	___flsub@b+3,___fladd@b+3
  4751  0031C0  C02C  F005         	movff	___flsub@a,___fladd@a
  4752  0031C4  C02D  F006         	movff	___flsub@a+1,___fladd@a+1
  4753  0031C8  C02E  F007         	movff	___flsub@a+2,___fladd@a+2
  4754  0031CC  C02F  F008         	movff	___flsub@a+3,___fladd@a+3
  4755  0031D0  EC72  F007         	call	___fladd	;wreg free
  4756  0031D4  C001  F028         	movff	?___fladd,?___flsub
  4757  0031D8  C002  F029         	movff	?___fladd+1,?___flsub+1
  4758  0031DC  C003  F02A         	movff	?___fladd+2,?___flsub+2
  4759  0031E0  C004  F02B         	movff	?___fladd+3,?___flsub+3
  4760  0031E4  0012               	return		;funcret
  4761  0031E6                     __end_of___flsub:
  4762                           	callstack 0
  4763                           
  4764 ;; *************** function ___fladd *****************
  4765 ;; Defined at:
  4766 ;;		line 10 in file "C:\Program Files\Microchip\xc8\v2.32\pic\sources\c99\common\sprcadd.c"
  4767 ;; Parameters:    Size  Location     Type
  4768 ;;  b               4    0[COMRAM] long 
  4769 ;;  a               4    4[COMRAM] long 
  4770 ;; Auto vars:     Size  Location     Type
  4771 ;;  grs             1   15[COMRAM] unsigned char 
  4772 ;;  bexp            1   14[COMRAM] unsigned char 
  4773 ;;  aexp            1   13[COMRAM] unsigned char 
  4774 ;;  signs           1   12[COMRAM] unsigned char 
  4775 ;; Return value:  Size  Location     Type
  4776 ;;                  4    0[COMRAM] unsigned char 
  4777 ;; Registers used:
  4778 ;;		wreg, status,2, status,0
  4779 ;; Tracked objects:
  4780 ;;		On entry : 0/0
  4781 ;;		On exit  : 0/0
  4782 ;;		Unchanged: 0/0
  4783 ;; Data sizes:     COMRAM   BANK0   BANK1   BANK2   BANK3   BANK4   BANK5   BANK6   BANK7
  4784 ;;      Params:         8       0       0       0       0       0       0       0       0
  4785 ;;      Locals:         4       0       0       0       0       0       0       0       0
  4786 ;;      Temps:          4       0       0       0       0       0       0       0       0
  4787 ;;      Totals:        16       0       0       0       0       0       0       0       0
  4788 ;;Total ram usage:       16 bytes
  4789 ;; Hardware stack levels used: 1
  4790 ;; This function calls:
  4791 ;;		Nothing
  4792 ;; This function is called by:
  4793 ;;		___flsub
  4794 ;; This function uses a non-reentrant model
  4795 ;;
  4796                           
  4797                           	psect	text21
  4798  000EE4                     __ptext21:
  4799                           	callstack 0
  4800  000EE4                     ___fladd:
  4801                           	callstack 27
  4802  000EE4  5004               	movf	(___fladd@b+3)^0,w,c
  4803  000EE6  0B80               	andlw	128
  4804  000EE8  6E0D               	movwf	___fladd@signs^0,c
  4805  000EEA  5004               	movf	(___fladd@b+3)^0,w,c
  4806  000EEC  2404               	addwf	(___fladd@b+3)^0,w,c
  4807  000EEE  6E0F               	movwf	___fladd@bexp^0,c
  4808  000EF0  AE03               	btfss	(___fladd@b+2)^0,7,c
  4809  000EF2  EF7D  F007         	goto	u2211
  4810  000EF6  EF7F  F007         	goto	u2210
  4811  000EFA                     u2211:
  4812  000EFA  EF80  F007         	goto	l2382
  4813  000EFE                     u2210:
  4814  000EFE  800F               	bsf	___fladd@bexp^0,0,c
  4815  000F00                     l2382:
  4816  000F00  500F               	movf	___fladd@bexp^0,w,c
  4817  000F02  B4D8               	btfsc	status,2,c
  4818  000F04  EF86  F007         	goto	u2221
  4819  000F08  EF88  F007         	goto	u2220
  4820  000F0C                     u2221:
  4821  000F0C  EF9D  F007         	goto	l2392
  4822  000F10                     u2220:
  4823  000F10  280F               	incf	___fladd@bexp^0,w,c
  4824  000F12  A4D8               	btfss	status,2,c
  4825  000F14  EF8E  F007         	goto	u2231
  4826  000F18  EF90  F007         	goto	u2230
  4827  000F1C                     u2231:
  4828  000F1C  EF98  F007         	goto	l2388
  4829  000F20                     u2230:
  4830  000F20  0E00               	movlw	0
  4831  000F22  6E01               	movwf	___fladd@b^0,c
  4832  000F24  0E00               	movlw	0
  4833  000F26  6E02               	movwf	(___fladd@b+1)^0,c
  4834  000F28  0E00               	movlw	0
  4835  000F2A  6E03               	movwf	(___fladd@b+2)^0,c
  4836  000F2C  0E00               	movlw	0
  4837  000F2E  6E04               	movwf	(___fladd@b+3)^0,c
  4838  000F30                     l2388:
  4839  000F30  8E03               	bsf	(___fladd@b+2)^0,7,c
  4840  000F32  0E00               	movlw	0
  4841  000F34  6E04               	movwf	(___fladd@b+3)^0,c
  4842  000F36  EFA5  F007         	goto	l2394
  4843  000F3A                     l2392:
  4844  000F3A  0E00               	movlw	0
  4845  000F3C  6E01               	movwf	___fladd@b^0,c
  4846  000F3E  0E00               	movlw	0
  4847  000F40  6E02               	movwf	(___fladd@b+1)^0,c
  4848  000F42  0E00               	movlw	0
  4849  000F44  6E03               	movwf	(___fladd@b+2)^0,c
  4850  000F46  0E00               	movlw	0
  4851  000F48  6E04               	movwf	(___fladd@b+3)^0,c
  4852  000F4A                     l2394:
  4853  000F4A  5008               	movf	(___fladd@a+3)^0,w,c
  4854  000F4C  0B80               	andlw	128
  4855  000F4E  6E0E               	movwf	___fladd@aexp^0,c
  4856  000F50  500D               	movf	___fladd@signs^0,w,c
  4857  000F52  180E               	xorwf	___fladd@aexp^0,w,c
  4858  000F54  B4D8               	btfsc	status,2,c
  4859  000F56  EFAF  F007         	goto	u2241
  4860  000F5A  EFB1  F007         	goto	u2240
  4861  000F5E                     u2241:
  4862  000F5E  EFB2  F007         	goto	l2400
  4863  000F62                     u2240:
  4864  000F62  8C0D               	bsf	___fladd@signs^0,6,c
  4865  000F64                     l2400:
  4866  000F64  5008               	movf	(___fladd@a+3)^0,w,c
  4867  000F66  2408               	addwf	(___fladd@a+3)^0,w,c
  4868  000F68  6E0E               	movwf	___fladd@aexp^0,c
  4869  000F6A  AE07               	btfss	(___fladd@a+2)^0,7,c
  4870  000F6C  EFBA  F007         	goto	u2251
  4871  000F70  EFBC  F007         	goto	u2250
  4872  000F74                     u2251:
  4873  000F74  EFBD  F007         	goto	l2406
  4874  000F78                     u2250:
  4875  000F78  800E               	bsf	___fladd@aexp^0,0,c
  4876  000F7A                     l2406:
  4877  000F7A  500E               	movf	___fladd@aexp^0,w,c
  4878  000F7C  B4D8               	btfsc	status,2,c
  4879  000F7E  EFC3  F007         	goto	u2261
  4880  000F82  EFC5  F007         	goto	u2260
  4881  000F86                     u2261:
  4882  000F86  EFDA  F007         	goto	l2416
  4883  000F8A                     u2260:
  4884  000F8A  280E               	incf	___fladd@aexp^0,w,c
  4885  000F8C  A4D8               	btfss	status,2,c
  4886  000F8E  EFCB  F007         	goto	u2271
  4887  000F92  EFCD  F007         	goto	u2270
  4888  000F96                     u2271:
  4889  000F96  EFD5  F007         	goto	l2412
  4890  000F9A                     u2270:
  4891  000F9A  0E00               	movlw	0
  4892  000F9C  6E05               	movwf	___fladd@a^0,c
  4893  000F9E  0E00               	movlw	0
  4894  000FA0  6E06               	movwf	(___fladd@a+1)^0,c
  4895  000FA2  0E00               	movlw	0
  4896  000FA4  6E07               	movwf	(___fladd@a+2)^0,c
  4897  000FA6  0E00               	movlw	0
  4898  000FA8  6E08               	movwf	(___fladd@a+3)^0,c
  4899  000FAA                     l2412:
  4900  000FAA  8E07               	bsf	(___fladd@a+2)^0,7,c
  4901  000FAC  0E00               	movlw	0
  4902  000FAE  6E08               	movwf	(___fladd@a+3)^0,c
  4903  000FB0  EFE2  F007         	goto	l2418
  4904  000FB4                     l2416:
  4905  000FB4  0E00               	movlw	0
  4906  000FB6  6E05               	movwf	___fladd@a^0,c
  4907  000FB8  0E00               	movlw	0
  4908  000FBA  6E06               	movwf	(___fladd@a+1)^0,c
  4909  000FBC  0E00               	movlw	0
  4910  000FBE  6E07               	movwf	(___fladd@a+2)^0,c
  4911  000FC0  0E00               	movlw	0
  4912  000FC2  6E08               	movwf	(___fladd@a+3)^0,c
  4913  000FC4                     l2418:
  4914  000FC4  500F               	movf	___fladd@bexp^0,w,c
  4915  000FC6  5C0E               	subwf	___fladd@aexp^0,w,c
  4916  000FC8  B0D8               	btfsc	status,0,c
  4917  000FCA  EFE9  F007         	goto	u2281
  4918  000FCE  EFEB  F007         	goto	u2280
  4919  000FD2                     u2281:
  4920  000FD2  EF12  F008         	goto	l2454
  4921  000FD6                     u2280:
  4922  000FD6  AC0D               	btfss	___fladd@signs^0,6,c
  4923  000FD8  EFF0  F007         	goto	u2291
  4924  000FDC  EFF2  F007         	goto	u2290
  4925  000FE0                     u2291:
  4926  000FE0  EFF4  F007         	goto	l2424
  4927  000FE4                     u2290:
  4928  000FE4  0E80               	movlw	128
  4929  000FE6  1A0D               	xorwf	___fladd@signs^0,f,c
  4930  000FE8                     l2424:
  4931  000FE8  C00F  F010         	movff	___fladd@bexp,___fladd@grs
  4932  000FEC  C00E  F00F         	movff	___fladd@aexp,___fladd@bexp
  4933  000FF0  C010  F00E         	movff	___fladd@grs,___fladd@aexp
  4934  000FF4  C001  F010         	movff	___fladd@b,___fladd@grs
  4935  000FF8  C005  F001         	movff	___fladd@a,___fladd@b
  4936  000FFC  C010  F005         	movff	___fladd@grs,___fladd@a
  4937  001000  C002  F010         	movff	___fladd@b+1,___fladd@grs
  4938  001004  C006  F002         	movff	___fladd@a+1,___fladd@b+1
  4939  001008  C010  F006         	movff	___fladd@grs,___fladd@a+1
  4940  00100C  C003  F010         	movff	___fladd@b+2,___fladd@grs
  4941  001010  C007  F003         	movff	___fladd@a+2,___fladd@b+2
  4942  001014  C010  F007         	movff	___fladd@grs,___fladd@a+2
  4943  001018  C004  F010         	movff	___fladd@b+3,___fladd@grs
  4944  00101C  C008  F004         	movff	___fladd@a+3,___fladd@b+3
  4945  001020  C010  F008         	movff	___fladd@grs,___fladd@a+3
  4946  001024                     l2454:
  4947  001024  0E00               	movlw	0
  4948  001026  6E10               	movwf	___fladd@grs^0,c
  4949  001028  500F               	movf	___fladd@bexp^0,w,c
  4950  00102A  C00E  F009         	movff	___fladd@aexp,??___fladd
  4951  00102E  6A0A               	clrf	(??___fladd+1)^0,c
  4952  001030  5E09               	subwf	??___fladd^0,f,c
  4953  001032  0E00               	movlw	0
  4954  001034  5A0A               	subwfb	(??___fladd+1)^0,f,c
  4955  001036  BE0A               	btfsc	(??___fladd+1)^0,7,c
  4956  001038  EF27  F008         	goto	u2301
  4957  00103C  500A               	movf	(??___fladd+1)^0,w,c
  4958  00103E  E109               	bnz	u2300
  4959  001040  0E1A               	movlw	26
  4960  001042  5C09               	subwf	??___fladd^0,w,c
  4961  001044  A0D8               	btfss	status,0,c
  4962  001046  EF27  F008         	goto	u2301
  4963  00104A  EF29  F008         	goto	u2300
  4964  00104E                     u2301:
  4965  00104E  EF60  F008         	goto	l695
  4966  001052                     u2300:
  4967  001052  5001               	movf	___fladd@b^0,w,c
  4968  001054  1002               	iorwf	(___fladd@b+1)^0,w,c
  4969  001056  1003               	iorwf	(___fladd@b+2)^0,w,c
  4970  001058  1004               	iorwf	(___fladd@b+3)^0,w,c
  4971  00105A  A4D8               	btfss	status,2,c
  4972  00105C  EF32  F008         	goto	u2311
  4973  001060  EF35  F008         	goto	u2310
  4974  001064                     u2311:
  4975  001064  0E01               	movlw	1
  4976  001066  EF36  F008         	goto	u2320
  4977  00106A                     u2310:
  4978  00106A  0E00               	movlw	0
  4979  00106C                     u2320:
  4980  00106C  6E10               	movwf	___fladd@grs^0,c
  4981  00106E  0E00               	movlw	0
  4982  001070  6E01               	movwf	___fladd@b^0,c
  4983  001072  0E00               	movlw	0
  4984  001074  6E02               	movwf	(___fladd@b+1)^0,c
  4985  001076  0E00               	movlw	0
  4986  001078  6E03               	movwf	(___fladd@b+2)^0,c
  4987  00107A  0E00               	movlw	0
  4988  00107C  6E04               	movwf	(___fladd@b+3)^0,c
  4989  00107E  C00E  F00F         	movff	___fladd@aexp,___fladd@bexp
  4990  001082  EF69  F008         	goto	l694
  4991  001086                     l696:
  4992  001086  A010               	btfss	___fladd@grs^0,0,c
  4993  001088  EF48  F008         	goto	u2331
  4994  00108C  EF4A  F008         	goto	u2330
  4995  001090                     u2331:
  4996  001090  EF50  F008         	goto	l2466
  4997  001094                     u2330:
  4998  001094  90D8               	bcf	status,0,c
  4999  001096  3010               	rrcf	___fladd@grs^0,w,c
  5000  001098  0901               	iorlw	1
  5001  00109A  6E10               	movwf	___fladd@grs^0,c
  5002  00109C  EF52  F008         	goto	l2468
  5003  0010A0                     l2466:
  5004  0010A0  90D8               	bcf	status,0,c
  5005  0010A2  3210               	rrcf	___fladd@grs^0,f,c
  5006  0010A4                     l2468:
  5007  0010A4  A001               	btfss	___fladd@b^0,0,c
  5008  0010A6  EF57  F008         	goto	u2341
  5009  0010AA  EF59  F008         	goto	u2340
  5010  0010AE                     u2341:
  5011  0010AE  EF5A  F008         	goto	l2472
  5012  0010B2                     u2340:
  5013  0010B2  8E10               	bsf	___fladd@grs^0,7,c
  5014  0010B4                     l2472:
  5015  0010B4  3404               	rlcf	(___fladd@b+3)^0,w,c
  5016  0010B6  3204               	rrcf	(___fladd@b+3)^0,f,c
  5017  0010B8  3203               	rrcf	(___fladd@b+2)^0,f,c
  5018  0010BA  3202               	rrcf	(___fladd@b+1)^0,f,c
  5019  0010BC  3201               	rrcf	___fladd@b^0,f,c
  5020  0010BE  2A0F               	incf	___fladd@bexp^0,f,c
  5021  0010C0                     l695:
  5022  0010C0  500E               	movf	___fladd@aexp^0,w,c
  5023  0010C2  5C0F               	subwf	___fladd@bexp^0,w,c
  5024  0010C4  A0D8               	btfss	status,0,c
  5025  0010C6  EF67  F008         	goto	u2351
  5026  0010CA  EF69  F008         	goto	u2350
  5027  0010CE                     u2351:
  5028  0010CE  EF43  F008         	goto	l696
  5029  0010D2                     u2350:
  5030  0010D2                     l694:
  5031  0010D2  BC0D               	btfsc	___fladd@signs^0,6,c
  5032  0010D4  EF6E  F008         	goto	u2361
  5033  0010D8  EF70  F008         	goto	u2360
  5034  0010DC                     u2361:
  5035  0010DC  EFB0  F008         	goto	l2500
  5036  0010E0                     u2360:
  5037  0010E0  500F               	movf	___fladd@bexp^0,w,c
  5038  0010E2  A4D8               	btfss	status,2,c
  5039  0010E4  EF76  F008         	goto	u2371
  5040  0010E8  EF78  F008         	goto	u2370
  5041  0010EC                     u2371:
  5042  0010EC  EF82  F008         	goto	l2482
  5043  0010F0                     u2370:
  5044  0010F0  0E00               	movlw	0
  5045  0010F2  6E01               	movwf	?___fladd^0,c
  5046  0010F4  0E00               	movlw	0
  5047  0010F6  6E02               	movwf	(?___fladd+1)^0,c
  5048  0010F8  0E00               	movlw	0
  5049  0010FA  6E03               	movwf	(?___fladd+2)^0,c
  5050  0010FC  0E00               	movlw	0
  5051  0010FE  6E04               	movwf	(?___fladd+3)^0,c
  5052  001100  EFD1  F009         	goto	l703
  5053  001104                     l2482:
  5054  001104  5005               	movf	___fladd@a^0,w,c
  5055  001106  2601               	addwf	___fladd@b^0,f,c
  5056  001108  5006               	movf	(___fladd@a+1)^0,w,c
  5057  00110A  2202               	addwfc	(___fladd@b+1)^0,f,c
  5058  00110C  5007               	movf	(___fladd@a+2)^0,w,c
  5059  00110E  2203               	addwfc	(___fladd@b+2)^0,f,c
  5060  001110  5008               	movf	(___fladd@a+3)^0,w,c
  5061  001112  2204               	addwfc	(___fladd@b+3)^0,f,c
  5062  001114  A004               	btfss	(___fladd@b+3)^0,0,c
  5063  001116  EF8F  F008         	goto	u2381
  5064  00111A  EF91  F008         	goto	u2380
  5065  00111E                     u2381:
  5066  00111E  EF3D  F009         	goto	l2536
  5067  001122                     u2380:
  5068  001122  A010               	btfss	___fladd@grs^0,0,c
  5069  001124  EF96  F008         	goto	u2391
  5070  001128  EF98  F008         	goto	u2390
  5071  00112C                     u2391:
  5072  00112C  EF9E  F008         	goto	l2490
  5073  001130                     u2390:
  5074  001130  90D8               	bcf	status,0,c
  5075  001132  3010               	rrcf	___fladd@grs^0,w,c
  5076  001134  0901               	iorlw	1
  5077  001136  6E10               	movwf	___fladd@grs^0,c
  5078  001138  EFA0  F008         	goto	l2492
  5079  00113C                     l2490:
  5080  00113C  90D8               	bcf	status,0,c
  5081  00113E  3210               	rrcf	___fladd@grs^0,f,c
  5082  001140                     l2492:
  5083  001140  A001               	btfss	___fladd@b^0,0,c
  5084  001142  EFA5  F008         	goto	u2401
  5085  001146  EFA7  F008         	goto	u2400
  5086  00114A                     u2401:
  5087  00114A  EFA8  F008         	goto	l2496
  5088  00114E                     u2400:
  5089  00114E  8E10               	bsf	___fladd@grs^0,7,c
  5090  001150                     l2496:
  5091  001150  3404               	rlcf	(___fladd@b+3)^0,w,c
  5092  001152  3204               	rrcf	(___fladd@b+3)^0,f,c
  5093  001154  3203               	rrcf	(___fladd@b+2)^0,f,c
  5094  001156  3202               	rrcf	(___fladd@b+1)^0,f,c
  5095  001158  3201               	rrcf	___fladd@b^0,f,c
  5096  00115A  2A0F               	incf	___fladd@bexp^0,f,c
  5097  00115C  EF3D  F009         	goto	l2536
  5098  001160                     l2500:
  5099  001160  5005               	movf	___fladd@a^0,w,c
  5100  001162  5C01               	subwf	___fladd@b^0,w,c
  5101  001164  5006               	movf	(___fladd@a+1)^0,w,c
  5102  001166  5802               	subwfb	(___fladd@b+1)^0,w,c
  5103  001168  5007               	movf	(___fladd@a+2)^0,w,c
  5104  00116A  5803               	subwfb	(___fladd@b+2)^0,w,c
  5105  00116C  5004               	movf	(___fladd@b+3)^0,w,c
  5106  00116E  0A80               	xorlw	128
  5107  001170  6E09               	movwf	??___fladd^0,c
  5108  001172  5008               	movf	(___fladd@a+3)^0,w,c
  5109  001174  0A80               	xorlw	128
  5110  001176  5809               	subwfb	??___fladd^0,w,c
  5111  001178  B0D8               	btfsc	status,0,c
  5112  00117A  EFC1  F008         	goto	u2411
  5113  00117E  EFC3  F008         	goto	u2410
  5114  001182                     u2411:
  5115  001182  EFEE  F008         	goto	l2510
  5116  001186                     u2410:
  5117  001186  5001               	movf	___fladd@b^0,w,c
  5118  001188  5C05               	subwf	___fladd@a^0,w,c
  5119  00118A  6E09               	movwf	??___fladd^0,c
  5120  00118C  5002               	movf	(___fladd@b+1)^0,w,c
  5121  00118E  5806               	subwfb	(___fladd@a+1)^0,w,c
  5122  001190  6E0A               	movwf	(??___fladd+1)^0,c
  5123  001192  5003               	movf	(___fladd@b+2)^0,w,c
  5124  001194  5807               	subwfb	(___fladd@a+2)^0,w,c
  5125  001196  6E0B               	movwf	(??___fladd+2)^0,c
  5126  001198  5004               	movf	(___fladd@b+3)^0,w,c
  5127  00119A  5808               	subwfb	(___fladd@a+3)^0,w,c
  5128  00119C  6E0C               	movwf	(??___fladd+3)^0,c
  5129  00119E  0EFF               	movlw	255
  5130  0011A0  2409               	addwf	??___fladd^0,w,c
  5131  0011A2  6E01               	movwf	___fladd@b^0,c
  5132  0011A4  0EFF               	movlw	255
  5133  0011A6  200A               	addwfc	(??___fladd+1)^0,w,c
  5134  0011A8  6E02               	movwf	(___fladd@b+1)^0,c
  5135  0011AA  0EFF               	movlw	255
  5136  0011AC  200B               	addwfc	(??___fladd+2)^0,w,c
  5137  0011AE  6E03               	movwf	(___fladd@b+2)^0,c
  5138  0011B0  0EFF               	movlw	255
  5139  0011B2  200C               	addwfc	(??___fladd+3)^0,w,c
  5140  0011B4  6E04               	movwf	(___fladd@b+3)^0,c
  5141  0011B6  0E80               	movlw	128
  5142  0011B8  1A0D               	xorwf	___fladd@signs^0,f,c
  5143  0011BA  6C10               	negf	___fladd@grs^0,c
  5144  0011BC  5010               	movf	___fladd@grs^0,w,c
  5145  0011BE  A4D8               	btfss	status,2,c
  5146  0011C0  EFE4  F008         	goto	u2421
  5147  0011C4  EFE6  F008         	goto	u2420
  5148  0011C8                     u2421:
  5149  0011C8  EFF6  F008         	goto	l711
  5150  0011CC                     u2420:
  5151  0011CC  0E01               	movlw	1
  5152  0011CE  2601               	addwf	___fladd@b^0,f,c
  5153  0011D0  0E00               	movlw	0
  5154  0011D2  2202               	addwfc	(___fladd@b+1)^0,f,c
  5155  0011D4  2203               	addwfc	(___fladd@b+2)^0,f,c
  5156  0011D6  2204               	addwfc	(___fladd@b+3)^0,f,c
  5157  0011D8  EFF6  F008         	goto	l711
  5158  0011DC                     l2510:
  5159  0011DC  5005               	movf	___fladd@a^0,w,c
  5160  0011DE  5E01               	subwf	___fladd@b^0,f,c
  5161  0011E0  5006               	movf	(___fladd@a+1)^0,w,c
  5162  0011E2  5A02               	subwfb	(___fladd@b+1)^0,f,c
  5163  0011E4  5007               	movf	(___fladd@a+2)^0,w,c
  5164  0011E6  5A03               	subwfb	(___fladd@b+2)^0,f,c
  5165  0011E8  5008               	movf	(___fladd@a+3)^0,w,c
  5166  0011EA  5A04               	subwfb	(___fladd@b+3)^0,f,c
  5167  0011EC                     l711:
  5168  0011EC  5001               	movf	___fladd@b^0,w,c
  5169  0011EE  1002               	iorwf	(___fladd@b+1)^0,w,c
  5170  0011F0  1003               	iorwf	(___fladd@b+2)^0,w,c
  5171  0011F2  1004               	iorwf	(___fladd@b+3)^0,w,c
  5172  0011F4  A4D8               	btfss	status,2,c
  5173  0011F6  EFFF  F008         	goto	u2431
  5174  0011FA  EF01  F009         	goto	u2430
  5175  0011FE                     u2431:
  5176  0011FE  EF36  F009         	goto	l2534
  5177  001202                     u2430:
  5178  001202  5010               	movf	___fladd@grs^0,w,c
  5179  001204  A4D8               	btfss	status,2,c
  5180  001206  EF07  F009         	goto	u2441
  5181  00120A  EF09  F009         	goto	u2440
  5182  00120E                     u2441:
  5183  00120E  EF36  F009         	goto	l2534
  5184  001212                     u2440:
  5185  001212  0E00               	movlw	0
  5186  001214  6E01               	movwf	?___fladd^0,c
  5187  001216  0E00               	movlw	0
  5188  001218  6E02               	movwf	(?___fladd+1)^0,c
  5189  00121A  0E00               	movlw	0
  5190  00121C  6E03               	movwf	(?___fladd+2)^0,c
  5191  00121E  0E00               	movlw	0
  5192  001220  6E04               	movwf	(?___fladd+3)^0,c
  5193  001222  EFD1  F009         	goto	l703
  5194  001226                     l2518:
  5195  001226  90D8               	bcf	status,0,c
  5196  001228  3601               	rlcf	___fladd@b^0,f,c
  5197  00122A  3602               	rlcf	(___fladd@b+1)^0,f,c
  5198  00122C  3603               	rlcf	(___fladd@b+2)^0,f,c
  5199  00122E  3604               	rlcf	(___fladd@b+3)^0,f,c
  5200  001230  AE10               	btfss	___fladd@grs^0,7,c
  5201  001232  EF1D  F009         	goto	u2451
  5202  001236  EF1F  F009         	goto	u2450
  5203  00123A                     u2451:
  5204  00123A  EF20  F009         	goto	l2524
  5205  00123E                     u2450:
  5206  00123E  8001               	bsf	___fladd@b^0,0,c
  5207  001240                     l2524:
  5208  001240  A010               	btfss	___fladd@grs^0,0,c
  5209  001242  EF25  F009         	goto	u2461
  5210  001246  EF27  F009         	goto	u2460
  5211  00124A                     u2461:
  5212  00124A  EF2B  F009         	goto	l2528
  5213  00124E                     u2460:
  5214  00124E  80D8               	bsf	status,0,c
  5215  001250  3610               	rlcf	___fladd@grs^0,f,c
  5216  001252  EF2D  F009         	goto	l2530
  5217  001256                     l2528:
  5218  001256  90D8               	bcf	status,0,c
  5219  001258  3610               	rlcf	___fladd@grs^0,f,c
  5220  00125A                     l2530:
  5221  00125A  500F               	movf	___fladd@bexp^0,w,c
  5222  00125C  B4D8               	btfsc	status,2,c
  5223  00125E  EF33  F009         	goto	u2471
  5224  001262  EF35  F009         	goto	u2470
  5225  001266                     u2471:
  5226  001266  EF36  F009         	goto	l2534
  5227  00126A                     u2470:
  5228  00126A  060F               	decf	___fladd@bexp^0,f,c
  5229  00126C                     l2534:
  5230  00126C  AE03               	btfss	(___fladd@b+2)^0,7,c
  5231  00126E  EF3B  F009         	goto	u2481
  5232  001272  EF3D  F009         	goto	u2480
  5233  001276                     u2481:
  5234  001276  EF13  F009         	goto	l2518
  5235  00127A                     u2480:
  5236  00127A                     l2536:
  5237  00127A  0E00               	movlw	0
  5238  00127C  6E0E               	movwf	___fladd@aexp^0,c
  5239  00127E  AE10               	btfss	___fladd@grs^0,7,c
  5240  001280  EF44  F009         	goto	u2491
  5241  001284  EF46  F009         	goto	u2490
  5242  001288                     u2491:
  5243  001288  EF5E  F009         	goto	l720
  5244  00128C                     u2490:
  5245  00128C  C010  F009         	movff	___fladd@grs,??___fladd
  5246  001290  0E7F               	movlw	127
  5247  001292  1609               	andwf	??___fladd^0,f,c
  5248  001294  B4D8               	btfsc	status,2,c
  5249  001296  EF4F  F009         	goto	u2501
  5250  00129A  EF51  F009         	goto	u2500
  5251  00129E                     u2501:
  5252  00129E  EF55  F009         	goto	l721
  5253  0012A2                     u2500:
  5254  0012A2                     l2542:
  5255  0012A2  0E01               	movlw	1
  5256  0012A4  6E0E               	movwf	___fladd@aexp^0,c
  5257  0012A6  EF5E  F009         	goto	l720
  5258  0012AA                     l721:
  5259  0012AA  A001               	btfss	___fladd@b^0,0,c
  5260  0012AC  EF5A  F009         	goto	u2511
  5261  0012B0  EF5C  F009         	goto	u2510
  5262  0012B4                     u2511:
  5263  0012B4  EF5E  F009         	goto	l720
  5264  0012B8                     u2510:
  5265  0012B8  EF51  F009         	goto	l2542
  5266  0012BC                     l720:
  5267  0012BC  500E               	movf	___fladd@aexp^0,w,c
  5268  0012BE  B4D8               	btfsc	status,2,c
  5269  0012C0  EF64  F009         	goto	u2521
  5270  0012C4  EF66  F009         	goto	u2520
  5271  0012C8                     u2521:
  5272  0012C8  EF91  F009         	goto	l2554
  5273  0012CC                     u2520:
  5274  0012CC  0E01               	movlw	1
  5275  0012CE  2601               	addwf	___fladd@b^0,f,c
  5276  0012D0  0E00               	movlw	0
  5277  0012D2  2202               	addwfc	(___fladd@b+1)^0,f,c
  5278  0012D4  2203               	addwfc	(___fladd@b+2)^0,f,c
  5279  0012D6  2204               	addwfc	(___fladd@b+3)^0,f,c
  5280  0012D8  A004               	btfss	(___fladd@b+3)^0,0,c
  5281  0012DA  EF71  F009         	goto	u2531
  5282  0012DE  EF73  F009         	goto	u2530
  5283  0012E2                     u2531:
  5284  0012E2  EF91  F009         	goto	l2554
  5285  0012E6                     u2530:
  5286  0012E6  C001  F009         	movff	___fladd@b,??___fladd
  5287  0012EA  C002  F00A         	movff	___fladd@b+1,??___fladd+1
  5288  0012EE  C003  F00B         	movff	___fladd@b+2,??___fladd+2
  5289  0012F2  C004  F00C         	movff	___fladd@b+3,??___fladd+3
  5290  0012F6  340C               	rlcf	(??___fladd+3)^0,w,c
  5291  0012F8  320C               	rrcf	(??___fladd+3)^0,f,c
  5292  0012FA  320B               	rrcf	(??___fladd+2)^0,f,c
  5293  0012FC  320A               	rrcf	(??___fladd+1)^0,f,c
  5294  0012FE  3209               	rrcf	??___fladd^0,f,c
  5295  001300  C009  F001         	movff	??___fladd,___fladd@b
  5296  001304  C00A  F002         	movff	??___fladd+1,___fladd@b+1
  5297  001308  C00B  F003         	movff	??___fladd+2,___fladd@b+2
  5298  00130C  C00C  F004         	movff	??___fladd+3,___fladd@b+3
  5299  001310  280F               	incf	___fladd@bexp^0,w,c
  5300  001312  B4D8               	btfsc	status,2,c
  5301  001314  EF8E  F009         	goto	u2541
  5302  001318  EF90  F009         	goto	u2540
  5303  00131C                     u2541:
  5304  00131C  EF91  F009         	goto	l2554
  5305  001320                     u2540:
  5306  001320  2A0F               	incf	___fladd@bexp^0,f,c
  5307  001322                     l2554:
  5308  001322  280F               	incf	___fladd@bexp^0,w,c
  5309  001324  B4D8               	btfsc	status,2,c
  5310  001326  EF97  F009         	goto	u2551
  5311  00132A  EF99  F009         	goto	u2550
  5312  00132E                     u2551:
  5313  00132E  EFA1  F009         	goto	l2558
  5314  001332                     u2550:
  5315  001332  500F               	movf	___fladd@bexp^0,w,c
  5316  001334  A4D8               	btfss	status,2,c
  5317  001336  EF9F  F009         	goto	u2561
  5318  00133A  EFA1  F009         	goto	u2560
  5319  00133E                     u2561:
  5320  00133E  EFB3  F009         	goto	l2562
  5321  001342                     u2560:
  5322  001342                     l2558:
  5323  001342  0E00               	movlw	0
  5324  001344  6E01               	movwf	___fladd@b^0,c
  5325  001346  0E00               	movlw	0
  5326  001348  6E02               	movwf	(___fladd@b+1)^0,c
  5327  00134A  0E00               	movlw	0
  5328  00134C  6E03               	movwf	(___fladd@b+2)^0,c
  5329  00134E  0E00               	movlw	0
  5330  001350  6E04               	movwf	(___fladd@b+3)^0,c
  5331  001352  500F               	movf	___fladd@bexp^0,w,c
  5332  001354  A4D8               	btfss	status,2,c
  5333  001356  EFAF  F009         	goto	u2571
  5334  00135A  EFB1  F009         	goto	u2570
  5335  00135E                     u2571:
  5336  00135E  EFB3  F009         	goto	l2562
  5337  001362                     u2570:
  5338  001362  0E00               	movlw	0
  5339  001364  6E0D               	movwf	___fladd@signs^0,c
  5340  001366                     l2562:
  5341  001366  A00F               	btfss	___fladd@bexp^0,0,c
  5342  001368  EFB8  F009         	goto	u2581
  5343  00136C  EFBA  F009         	goto	u2580
  5344  001370                     u2581:
  5345  001370  EFBD  F009         	goto	l2566
  5346  001374                     u2580:
  5347  001374  8E03               	bsf	(___fladd@b+2)^0,7,c
  5348  001376  EFBE  F009         	goto	l2568
  5349  00137A                     l2566:
  5350  00137A  9E03               	bcf	(___fladd@b+2)^0,7,c
  5351  00137C                     l2568:
  5352  00137C  90D8               	bcf	status,0,c
  5353  00137E  300F               	rrcf	___fladd@bexp^0,w,c
  5354  001380  6E04               	movwf	(___fladd@b+3)^0,c
  5355  001382  AE0D               	btfss	___fladd@signs^0,7,c
  5356  001384  EFC6  F009         	goto	u2591
  5357  001388  EFC8  F009         	goto	u2590
  5358  00138C                     u2591:
  5359  00138C  EFC9  F009         	goto	l2574
  5360  001390                     u2590:
  5361  001390  8E04               	bsf	(___fladd@b+3)^0,7,c
  5362  001392                     l2574:
  5363  001392  C001  F001         	movff	___fladd@b,?___fladd
  5364  001396  C002  F002         	movff	___fladd@b+1,?___fladd+1
  5365  00139A  C003  F003         	movff	___fladd@b+2,?___fladd+2
  5366  00139E  C004  F004         	movff	___fladd@b+3,?___fladd+3
  5367  0013A2                     l703:
  5368  0013A2  0012               	return		;funcret
  5369  0013A4                     __end_of___fladd:
  5370                           	callstack 0
  5371                           
  5372 ;; *************** function ___fldiv *****************
  5373 ;; Defined at:
  5374 ;;		line 11 in file "C:\Program Files\Microchip\xc8\v2.32\pic\sources\c99\common\sprcdiv.c"
  5375 ;; Parameters:    Size  Location     Type
  5376 ;;  b               4   14[COMRAM] unsigned char 
  5377 ;;  a               4   18[COMRAM] unsigned char 
  5378 ;; Auto vars:     Size  Location     Type
  5379 ;;  grs             4   33[COMRAM] unsigned long 
  5380 ;;  rem             4   26[COMRAM] unsigned long 
  5381 ;;  new_exp         2   31[COMRAM] short 
  5382 ;;  aexp            1   38[COMRAM] unsigned char 
  5383 ;;  bexp            1   37[COMRAM] unsigned char 
  5384 ;;  sign            1   30[COMRAM] unsigned char 
  5385 ;; Return value:  Size  Location     Type
  5386 ;;                  4   14[COMRAM] unsigned char 
  5387 ;; Registers used:
  5388 ;;		wreg, status,2, status,0
  5389 ;; Tracked objects:
  5390 ;;		On entry : 0/0
  5391 ;;		On exit  : 0/0
  5392 ;;		Unchanged: 0/0
  5393 ;; Data sizes:     COMRAM   BANK0   BANK1   BANK2   BANK3   BANK4   BANK5   BANK6   BANK7
  5394 ;;      Params:         8       0       0       0       0       0       0       0       0
  5395 ;;      Locals:        13       0       0       0       0       0       0       0       0
  5396 ;;      Temps:          4       0       0       0       0       0       0       0       0
  5397 ;;      Totals:        25       0       0       0       0       0       0       0       0
  5398 ;;Total ram usage:       25 bytes
  5399 ;; Hardware stack levels used: 1
  5400 ;; This function calls:
  5401 ;;		Nothing
  5402 ;; This function is called by:
  5403 ;;		_tocar_nota
  5404 ;;		_silencio
  5405 ;; This function uses a non-reentrant model
  5406 ;;
  5407                           
  5408                           	psect	text22
  5409  0017CE                     __ptext22:
  5410                           	callstack 0
  5411  0017CE                     ___fldiv:
  5412                           	callstack 28
  5413  0017CE  5012               	movf	(___fldiv@b+3)^0,w,c
  5414  0017D0  0B80               	andlw	128
  5415  0017D2  6E1F               	movwf	___fldiv@sign^0,c
  5416  0017D4  5012               	movf	(___fldiv@b+3)^0,w,c
  5417  0017D6  2412               	addwf	(___fldiv@b+3)^0,w,c
  5418  0017D8  6E26               	movwf	___fldiv@bexp^0,c
  5419  0017DA  AE11               	btfss	(___fldiv@b+2)^0,7,c
  5420  0017DC  EFF2  F00B         	goto	u2641
  5421  0017E0  EFF4  F00B         	goto	u2640
  5422  0017E4                     u2641:
  5423  0017E4  EFF5  F00B         	goto	l2686
  5424  0017E8                     u2640:
  5425  0017E8  8026               	bsf	___fldiv@bexp^0,0,c
  5426  0017EA                     l2686:
  5427  0017EA  5026               	movf	___fldiv@bexp^0,w,c
  5428  0017EC  B4D8               	btfsc	status,2,c
  5429  0017EE  EFFB  F00B         	goto	u2651
  5430  0017F2  EFFD  F00B         	goto	u2650
  5431  0017F6                     u2651:
  5432  0017F6  EF12  F00C         	goto	l2696
  5433  0017FA                     u2650:
  5434  0017FA  2826               	incf	___fldiv@bexp^0,w,c
  5435  0017FC  A4D8               	btfss	status,2,c
  5436  0017FE  EF03  F00C         	goto	u2661
  5437  001802  EF05  F00C         	goto	u2660
  5438  001806                     u2661:
  5439  001806  EF0D  F00C         	goto	l2692
  5440  00180A                     u2660:
  5441  00180A  0E00               	movlw	0
  5442  00180C  6E0F               	movwf	___fldiv@b^0,c
  5443  00180E  0E00               	movlw	0
  5444  001810  6E10               	movwf	(___fldiv@b+1)^0,c
  5445  001812  0E00               	movlw	0
  5446  001814  6E11               	movwf	(___fldiv@b+2)^0,c
  5447  001816  0E00               	movlw	0
  5448  001818  6E12               	movwf	(___fldiv@b+3)^0,c
  5449  00181A                     l2692:
  5450  00181A  8E11               	bsf	(___fldiv@b+2)^0,7,c
  5451  00181C  0E00               	movlw	0
  5452  00181E  6E12               	movwf	(___fldiv@b+3)^0,c
  5453  001820  EF1A  F00C         	goto	l2698
  5454  001824                     l2696:
  5455  001824  0E00               	movlw	0
  5456  001826  6E0F               	movwf	___fldiv@b^0,c
  5457  001828  0E00               	movlw	0
  5458  00182A  6E10               	movwf	(___fldiv@b+1)^0,c
  5459  00182C  0E00               	movlw	0
  5460  00182E  6E11               	movwf	(___fldiv@b+2)^0,c
  5461  001830  0E00               	movlw	0
  5462  001832  6E12               	movwf	(___fldiv@b+3)^0,c
  5463  001834                     l2698:
  5464  001834  5016               	movf	(___fldiv@a+3)^0,w,c
  5465  001836  0B80               	andlw	128
  5466  001838  1A1F               	xorwf	___fldiv@sign^0,f,c
  5467  00183A  5016               	movf	(___fldiv@a+3)^0,w,c
  5468  00183C  2416               	addwf	(___fldiv@a+3)^0,w,c
  5469  00183E  6E27               	movwf	___fldiv@aexp^0,c
  5470  001840  AE15               	btfss	(___fldiv@a+2)^0,7,c
  5471  001842  EF25  F00C         	goto	u2671
  5472  001846  EF27  F00C         	goto	u2670
  5473  00184A                     u2671:
  5474  00184A  EF28  F00C         	goto	l2706
  5475  00184E                     u2670:
  5476  00184E  8027               	bsf	___fldiv@aexp^0,0,c
  5477  001850                     l2706:
  5478  001850  5027               	movf	___fldiv@aexp^0,w,c
  5479  001852  B4D8               	btfsc	status,2,c
  5480  001854  EF2E  F00C         	goto	u2681
  5481  001858  EF30  F00C         	goto	u2680
  5482  00185C                     u2681:
  5483  00185C  EF45  F00C         	goto	l2716
  5484  001860                     u2680:
  5485  001860  2827               	incf	___fldiv@aexp^0,w,c
  5486  001862  A4D8               	btfss	status,2,c
  5487  001864  EF36  F00C         	goto	u2691
  5488  001868  EF38  F00C         	goto	u2690
  5489  00186C                     u2691:
  5490  00186C  EF40  F00C         	goto	l2712
  5491  001870                     u2690:
  5492  001870  0E00               	movlw	0
  5493  001872  6E13               	movwf	___fldiv@a^0,c
  5494  001874  0E00               	movlw	0
  5495  001876  6E14               	movwf	(___fldiv@a+1)^0,c
  5496  001878  0E00               	movlw	0
  5497  00187A  6E15               	movwf	(___fldiv@a+2)^0,c
  5498  00187C  0E00               	movlw	0
  5499  00187E  6E16               	movwf	(___fldiv@a+3)^0,c
  5500  001880                     l2712:
  5501  001880  8E15               	bsf	(___fldiv@a+2)^0,7,c
  5502  001882  0E00               	movlw	0
  5503  001884  6E16               	movwf	(___fldiv@a+3)^0,c
  5504  001886  EF4D  F00C         	goto	l2718
  5505  00188A                     l2716:
  5506  00188A  0E00               	movlw	0
  5507  00188C  6E13               	movwf	___fldiv@a^0,c
  5508  00188E  0E00               	movlw	0
  5509  001890  6E14               	movwf	(___fldiv@a+1)^0,c
  5510  001892  0E00               	movlw	0
  5511  001894  6E15               	movwf	(___fldiv@a+2)^0,c
  5512  001896  0E00               	movlw	0
  5513  001898  6E16               	movwf	(___fldiv@a+3)^0,c
  5514  00189A                     l2718:
  5515  00189A  5013               	movf	___fldiv@a^0,w,c
  5516  00189C  1014               	iorwf	(___fldiv@a+1)^0,w,c
  5517  00189E  1015               	iorwf	(___fldiv@a+2)^0,w,c
  5518  0018A0  1016               	iorwf	(___fldiv@a+3)^0,w,c
  5519  0018A2  A4D8               	btfss	status,2,c
  5520  0018A4  EF56  F00C         	goto	u2701
  5521  0018A8  EF58  F00C         	goto	u2700
  5522  0018AC                     u2701:
  5523  0018AC  EF70  F00C         	goto	l2730
  5524  0018B0                     u2700:
  5525  0018B0  0E00               	movlw	0
  5526  0018B2  6E0F               	movwf	___fldiv@b^0,c
  5527  0018B4  0E00               	movlw	0
  5528  0018B6  6E10               	movwf	(___fldiv@b+1)^0,c
  5529  0018B8  0E00               	movlw	0
  5530  0018BA  6E11               	movwf	(___fldiv@b+2)^0,c
  5531  0018BC  0E00               	movlw	0
  5532  0018BE  6E12               	movwf	(___fldiv@b+3)^0,c
  5533  0018C0  0E80               	movlw	128
  5534  0018C2  1211               	iorwf	(___fldiv@b+2)^0,f,c
  5535  0018C4  0E7F               	movlw	127
  5536  0018C6  1212               	iorwf	(___fldiv@b+3)^0,f,c
  5537  0018C8                     l2724:
  5538  0018C8  501F               	movf	___fldiv@sign^0,w,c
  5539  0018CA  1212               	iorwf	(___fldiv@b+3)^0,f,c
  5540  0018CC  C00F  F00F         	movff	___fldiv@b,?___fldiv
  5541  0018D0  C010  F010         	movff	___fldiv@b+1,?___fldiv+1
  5542  0018D4  C011  F011         	movff	___fldiv@b+2,?___fldiv+2
  5543  0018D8  C012  F012         	movff	___fldiv@b+3,?___fldiv+3
  5544  0018DC  EFB3  F00D         	goto	l748
  5545  0018E0                     l2730:
  5546  0018E0  5026               	movf	___fldiv@bexp^0,w,c
  5547  0018E2  A4D8               	btfss	status,2,c
  5548  0018E4  EF76  F00C         	goto	u2711
  5549  0018E8  EF78  F00C         	goto	u2710
  5550  0018EC                     u2711:
  5551  0018EC  EF82  F00C         	goto	l2738
  5552  0018F0                     u2710:
  5553  0018F0  0E00               	movlw	0
  5554  0018F2  6E0F               	movwf	?___fldiv^0,c
  5555  0018F4  0E00               	movlw	0
  5556  0018F6  6E10               	movwf	(?___fldiv+1)^0,c
  5557  0018F8  0E00               	movlw	0
  5558  0018FA  6E11               	movwf	(?___fldiv+2)^0,c
  5559  0018FC  0E00               	movlw	0
  5560  0018FE  6E12               	movwf	(?___fldiv+3)^0,c
  5561  001900  EFB3  F00D         	goto	l748
  5562  001904                     l2738:
  5563  001904  5027               	movf	___fldiv@aexp^0,w,c
  5564  001906  C026  F017         	movff	___fldiv@bexp,??___fldiv
  5565  00190A  6A18               	clrf	(??___fldiv+1)^0,c
  5566  00190C  5E17               	subwf	??___fldiv^0,f,c
  5567  00190E  0E00               	movlw	0
  5568  001910  5A18               	subwfb	(??___fldiv+1)^0,f,c
  5569  001912  0E7F               	movlw	127
  5570  001914  2417               	addwf	??___fldiv^0,w,c
  5571  001916  6E20               	movwf	___fldiv@new_exp^0,c
  5572  001918  0E00               	movlw	0
  5573  00191A  2018               	addwfc	(??___fldiv+1)^0,w,c
  5574  00191C  6E21               	movwf	(___fldiv@new_exp+1)^0,c
  5575  00191E  C00F  F01B         	movff	___fldiv@b,___fldiv@rem
  5576  001922  C010  F01C         	movff	___fldiv@b+1,___fldiv@rem+1
  5577  001926  C011  F01D         	movff	___fldiv@b+2,___fldiv@rem+2
  5578  00192A  C012  F01E         	movff	___fldiv@b+3,___fldiv@rem+3
  5579  00192E  0E00               	movlw	0
  5580  001930  6E0F               	movwf	___fldiv@b^0,c
  5581  001932  0E00               	movlw	0
  5582  001934  6E10               	movwf	(___fldiv@b+1)^0,c
  5583  001936  0E00               	movlw	0
  5584  001938  6E11               	movwf	(___fldiv@b+2)^0,c
  5585  00193A  0E00               	movlw	0
  5586  00193C  6E12               	movwf	(___fldiv@b+3)^0,c
  5587  00193E  0E00               	movlw	0
  5588  001940  6E22               	movwf	___fldiv@grs^0,c
  5589  001942  0E00               	movlw	0
  5590  001944  6E23               	movwf	(___fldiv@grs+1)^0,c
  5591  001946  0E00               	movlw	0
  5592  001948  6E24               	movwf	(___fldiv@grs+2)^0,c
  5593  00194A  0E00               	movlw	0
  5594  00194C  6E25               	movwf	(___fldiv@grs+3)^0,c
  5595  00194E  0E00               	movlw	0
  5596  001950  6E27               	movwf	___fldiv@aexp^0,c
  5597  001952  EFE3  F00C         	goto	l750
  5598  001956                     l2748:
  5599  001956  5027               	movf	___fldiv@aexp^0,w,c
  5600  001958  B4D8               	btfsc	status,2,c
  5601  00195A  EFB1  F00C         	goto	u2721
  5602  00195E  EFB3  F00C         	goto	u2720
  5603  001962                     u2721:
  5604  001962  EFCA  F00C         	goto	l2756
  5605  001966                     u2720:
  5606  001966  90D8               	bcf	status,0,c
  5607  001968  361B               	rlcf	___fldiv@rem^0,f,c
  5608  00196A  361C               	rlcf	(___fldiv@rem+1)^0,f,c
  5609  00196C  361D               	rlcf	(___fldiv@rem+2)^0,f,c
  5610  00196E  361E               	rlcf	(___fldiv@rem+3)^0,f,c
  5611  001970  90D8               	bcf	status,0,c
  5612  001972  360F               	rlcf	___fldiv@b^0,f,c
  5613  001974  3610               	rlcf	(___fldiv@b+1)^0,f,c
  5614  001976  3611               	rlcf	(___fldiv@b+2)^0,f,c
  5615  001978  3612               	rlcf	(___fldiv@b+3)^0,f,c
  5616  00197A  AE25               	btfss	(___fldiv@grs+3)^0,7,c
  5617  00197C  EFC2  F00C         	goto	u2731
  5618  001980  EFC4  F00C         	goto	u2730
  5619  001984                     u2731:
  5620  001984  EFC5  F00C         	goto	l753
  5621  001988                     u2730:
  5622  001988  800F               	bsf	___fldiv@b^0,0,c
  5623  00198A                     l753:
  5624  00198A  90D8               	bcf	status,0,c
  5625  00198C  3622               	rlcf	___fldiv@grs^0,f,c
  5626  00198E  3623               	rlcf	(___fldiv@grs+1)^0,f,c
  5627  001990  3624               	rlcf	(___fldiv@grs+2)^0,f,c
  5628  001992  3625               	rlcf	(___fldiv@grs+3)^0,f,c
  5629  001994                     l2756:
  5630  001994  5013               	movf	___fldiv@a^0,w,c
  5631  001996  5C1B               	subwf	___fldiv@rem^0,w,c
  5632  001998  5014               	movf	(___fldiv@a+1)^0,w,c
  5633  00199A  581C               	subwfb	(___fldiv@rem+1)^0,w,c
  5634  00199C  5015               	movf	(___fldiv@a+2)^0,w,c
  5635  00199E  581D               	subwfb	(___fldiv@rem+2)^0,w,c
  5636  0019A0  5016               	movf	(___fldiv@a+3)^0,w,c
  5637  0019A2  581E               	subwfb	(___fldiv@rem+3)^0,w,c
  5638  0019A4  A0D8               	btfss	status,0,c
  5639  0019A6  EFD7  F00C         	goto	u2741
  5640  0019AA  EFD9  F00C         	goto	u2740
  5641  0019AE                     u2741:
  5642  0019AE  EFE2  F00C         	goto	l2762
  5643  0019B2                     u2740:
  5644  0019B2  8C25               	bsf	(___fldiv@grs+3)^0,6,c
  5645  0019B4  5013               	movf	___fldiv@a^0,w,c
  5646  0019B6  5E1B               	subwf	___fldiv@rem^0,f,c
  5647  0019B8  5014               	movf	(___fldiv@a+1)^0,w,c
  5648  0019BA  5A1C               	subwfb	(___fldiv@rem+1)^0,f,c
  5649  0019BC  5015               	movf	(___fldiv@a+2)^0,w,c
  5650  0019BE  5A1D               	subwfb	(___fldiv@rem+2)^0,f,c
  5651  0019C0  5016               	movf	(___fldiv@a+3)^0,w,c
  5652  0019C2  5A1E               	subwfb	(___fldiv@rem+3)^0,f,c
  5653  0019C4                     l2762:
  5654  0019C4  2A27               	incf	___fldiv@aexp^0,f,c
  5655  0019C6                     l750:
  5656  0019C6  0E19               	movlw	25
  5657  0019C8  6427               	cpfsgt	___fldiv@aexp^0,c
  5658  0019CA  EFE9  F00C         	goto	u2751
  5659  0019CE  EFEB  F00C         	goto	u2750
  5660  0019D2                     u2751:
  5661  0019D2  EFAB  F00C         	goto	l2748
  5662  0019D6                     u2750:
  5663  0019D6  501B               	movf	___fldiv@rem^0,w,c
  5664  0019D8  101C               	iorwf	(___fldiv@rem+1)^0,w,c
  5665  0019DA  101D               	iorwf	(___fldiv@rem+2)^0,w,c
  5666  0019DC  101E               	iorwf	(___fldiv@rem+3)^0,w,c
  5667  0019DE  B4D8               	btfsc	status,2,c
  5668  0019E0  EFF4  F00C         	goto	u2761
  5669  0019E4  EFF6  F00C         	goto	u2760
  5670  0019E8                     u2761:
  5671  0019E8  EF0E  F00D         	goto	l2774
  5672  0019EC                     u2760:
  5673  0019EC  8022               	bsf	___fldiv@grs^0,0,c
  5674  0019EE  EF0E  F00D         	goto	l2774
  5675  0019F2                     l2768:
  5676  0019F2  90D8               	bcf	status,0,c
  5677  0019F4  360F               	rlcf	___fldiv@b^0,f,c
  5678  0019F6  3610               	rlcf	(___fldiv@b+1)^0,f,c
  5679  0019F8  3611               	rlcf	(___fldiv@b+2)^0,f,c
  5680  0019FA  3612               	rlcf	(___fldiv@b+3)^0,f,c
  5681  0019FC  AE25               	btfss	(___fldiv@grs+3)^0,7,c
  5682  0019FE  EF03  F00D         	goto	u2771
  5683  001A02  EF05  F00D         	goto	u2770
  5684  001A06                     u2771:
  5685  001A06  EF06  F00D         	goto	l759
  5686  001A0A                     u2770:
  5687  001A0A  800F               	bsf	___fldiv@b^0,0,c
  5688  001A0C                     l759:
  5689  001A0C  90D8               	bcf	status,0,c
  5690  001A0E  3622               	rlcf	___fldiv@grs^0,f,c
  5691  001A10  3623               	rlcf	(___fldiv@grs+1)^0,f,c
  5692  001A12  3624               	rlcf	(___fldiv@grs+2)^0,f,c
  5693  001A14  3625               	rlcf	(___fldiv@grs+3)^0,f,c
  5694  001A16  0620               	decf	___fldiv@new_exp^0,f,c
  5695  001A18  A0D8               	btfss	status,0,c
  5696  001A1A  0621               	decf	(___fldiv@new_exp+1)^0,f,c
  5697  001A1C                     l2774:
  5698  001A1C  AE11               	btfss	(___fldiv@b+2)^0,7,c
  5699  001A1E  EF13  F00D         	goto	u2781
  5700  001A22  EF15  F00D         	goto	u2780
  5701  001A26                     u2781:
  5702  001A26  EFF9  F00C         	goto	l2768
  5703  001A2A                     u2780:
  5704  001A2A  0E00               	movlw	0
  5705  001A2C  6E27               	movwf	___fldiv@aexp^0,c
  5706  001A2E  AE25               	btfss	(___fldiv@grs+3)^0,7,c
  5707  001A30  EF1C  F00D         	goto	u2791
  5708  001A34  EF1E  F00D         	goto	u2790
  5709  001A38                     u2791:
  5710  001A38  EF42  F00D         	goto	l761
  5711  001A3C                     u2790:
  5712  001A3C  0EFF               	movlw	255
  5713  001A3E  1422               	andwf	___fldiv@grs^0,w,c
  5714  001A40  6E17               	movwf	??___fldiv^0,c
  5715  001A42  0EFF               	movlw	255
  5716  001A44  1423               	andwf	(___fldiv@grs+1)^0,w,c
  5717  001A46  6E18               	movwf	(??___fldiv+1)^0,c
  5718  001A48  0EFF               	movlw	255
  5719  001A4A  1424               	andwf	(___fldiv@grs+2)^0,w,c
  5720  001A4C  6E19               	movwf	(??___fldiv+2)^0,c
  5721  001A4E  0E7F               	movlw	127
  5722  001A50  1425               	andwf	(___fldiv@grs+3)^0,w,c
  5723  001A52  6E1A               	movwf	(??___fldiv+3)^0,c
  5724  001A54  5017               	movf	??___fldiv^0,w,c
  5725  001A56  1018               	iorwf	(??___fldiv+1)^0,w,c
  5726  001A58  1019               	iorwf	(??___fldiv+2)^0,w,c
  5727  001A5A  101A               	iorwf	(??___fldiv+3)^0,w,c
  5728  001A5C  B4D8               	btfsc	status,2,c
  5729  001A5E  EF33  F00D         	goto	u2801
  5730  001A62  EF35  F00D         	goto	u2800
  5731  001A66                     u2801:
  5732  001A66  EF39  F00D         	goto	l762
  5733  001A6A                     u2800:
  5734  001A6A                     l2782:
  5735  001A6A  0E01               	movlw	1
  5736  001A6C  6E27               	movwf	___fldiv@aexp^0,c
  5737  001A6E  EF42  F00D         	goto	l761
  5738  001A72                     l762:
  5739  001A72  A00F               	btfss	___fldiv@b^0,0,c
  5740  001A74  EF3E  F00D         	goto	u2811
  5741  001A78  EF40  F00D         	goto	u2810
  5742  001A7C                     u2811:
  5743  001A7C  EF42  F00D         	goto	l761
  5744  001A80                     u2810:
  5745  001A80  EF35  F00D         	goto	l2782
  5746  001A84                     l761:
  5747  001A84  5027               	movf	___fldiv@aexp^0,w,c
  5748  001A86  B4D8               	btfsc	status,2,c
  5749  001A88  EF48  F00D         	goto	u2821
  5750  001A8C  EF4A  F00D         	goto	u2820
  5751  001A90                     u2821:
  5752  001A90  EF6E  F00D         	goto	l2794
  5753  001A94                     u2820:
  5754  001A94  0E01               	movlw	1
  5755  001A96  260F               	addwf	___fldiv@b^0,f,c
  5756  001A98  0E00               	movlw	0
  5757  001A9A  2210               	addwfc	(___fldiv@b+1)^0,f,c
  5758  001A9C  2211               	addwfc	(___fldiv@b+2)^0,f,c
  5759  001A9E  2212               	addwfc	(___fldiv@b+3)^0,f,c
  5760  001AA0  A012               	btfss	(___fldiv@b+3)^0,0,c
  5761  001AA2  EF55  F00D         	goto	u2831
  5762  001AA6  EF57  F00D         	goto	u2830
  5763  001AAA                     u2831:
  5764  001AAA  EF6E  F00D         	goto	l2794
  5765  001AAE                     u2830:
  5766  001AAE  C00F  F017         	movff	___fldiv@b,??___fldiv
  5767  001AB2  C010  F018         	movff	___fldiv@b+1,??___fldiv+1
  5768  001AB6  C011  F019         	movff	___fldiv@b+2,??___fldiv+2
  5769  001ABA  C012  F01A         	movff	___fldiv@b+3,??___fldiv+3
  5770  001ABE  341A               	rlcf	(??___fldiv+3)^0,w,c
  5771  001AC0  321A               	rrcf	(??___fldiv+3)^0,f,c
  5772  001AC2  3219               	rrcf	(??___fldiv+2)^0,f,c
  5773  001AC4  3218               	rrcf	(??___fldiv+1)^0,f,c
  5774  001AC6  3217               	rrcf	??___fldiv^0,f,c
  5775  001AC8  C017  F00F         	movff	??___fldiv,___fldiv@b
  5776  001ACC  C018  F010         	movff	??___fldiv+1,___fldiv@b+1
  5777  001AD0  C019  F011         	movff	??___fldiv+2,___fldiv@b+2
  5778  001AD4  C01A  F012         	movff	??___fldiv+3,___fldiv@b+3
  5779  001AD8  4A20               	infsnz	___fldiv@new_exp^0,f,c
  5780  001ADA  2A21               	incf	(___fldiv@new_exp+1)^0,f,c
  5781  001ADC                     l2794:
  5782  001ADC  BE21               	btfsc	(___fldiv@new_exp+1)^0,7,c
  5783  001ADE  EF79  F00D         	goto	u2841
  5784  001AE2  5021               	movf	(___fldiv@new_exp+1)^0,w,c
  5785  001AE4  E108               	bnz	u2840
  5786  001AE6  2820               	incf	___fldiv@new_exp^0,w,c
  5787  001AE8  A0D8               	btfss	status,0,c
  5788  001AEA  EF79  F00D         	goto	u2841
  5789  001AEE  EF7B  F00D         	goto	u2840
  5790  001AF2                     u2841:
  5791  001AF2  EF86  F00D         	goto	l2798
  5792  001AF6                     u2840:
  5793  001AF6  0E00               	movlw	0
  5794  001AF8  6E21               	movwf	(___fldiv@new_exp+1)^0,c
  5795  001AFA  6820               	setf	___fldiv@new_exp^0,c
  5796  001AFC  0E00               	movlw	0
  5797  001AFE  6E0F               	movwf	___fldiv@b^0,c
  5798  001B00  0E00               	movlw	0
  5799  001B02  6E10               	movwf	(___fldiv@b+1)^0,c
  5800  001B04  0E00               	movlw	0
  5801  001B06  6E11               	movwf	(___fldiv@b+2)^0,c
  5802  001B08  0E00               	movlw	0
  5803  001B0A  6E12               	movwf	(___fldiv@b+3)^0,c
  5804  001B0C                     l2798:
  5805  001B0C  BE21               	btfsc	(___fldiv@new_exp+1)^0,7,c
  5806  001B0E  EF93  F00D         	goto	u2850
  5807  001B12  5021               	movf	(___fldiv@new_exp+1)^0,w,c
  5808  001B14  E106               	bnz	u2851
  5809  001B16  0420               	decf	___fldiv@new_exp^0,w,c
  5810  001B18  B0D8               	btfsc	status,0,c
  5811  001B1A  EF91  F00D         	goto	u2851
  5812  001B1E  EF93  F00D         	goto	u2850
  5813  001B22                     u2851:
  5814  001B22  EFA1  F00D         	goto	l2802
  5815  001B26                     u2850:
  5816  001B26  0E00               	movlw	0
  5817  001B28  6E21               	movwf	(___fldiv@new_exp+1)^0,c
  5818  001B2A  0E00               	movlw	0
  5819  001B2C  6E20               	movwf	___fldiv@new_exp^0,c
  5820  001B2E  0E00               	movlw	0
  5821  001B30  6E0F               	movwf	___fldiv@b^0,c
  5822  001B32  0E00               	movlw	0
  5823  001B34  6E10               	movwf	(___fldiv@b+1)^0,c
  5824  001B36  0E00               	movlw	0
  5825  001B38  6E11               	movwf	(___fldiv@b+2)^0,c
  5826  001B3A  0E00               	movlw	0
  5827  001B3C  6E12               	movwf	(___fldiv@b+3)^0,c
  5828  001B3E  0E00               	movlw	0
  5829  001B40  6E1F               	movwf	___fldiv@sign^0,c
  5830  001B42                     l2802:
  5831  001B42  C020  F026         	movff	___fldiv@new_exp,___fldiv@bexp
  5832  001B46  A026               	btfss	___fldiv@bexp^0,0,c
  5833  001B48  EFA8  F00D         	goto	u2861
  5834  001B4C  EFAA  F00D         	goto	u2860
  5835  001B50                     u2861:
  5836  001B50  EFAD  F00D         	goto	l2808
  5837  001B54                     u2860:
  5838  001B54  8E11               	bsf	(___fldiv@b+2)^0,7,c
  5839  001B56  EFAE  F00D         	goto	l2810
  5840  001B5A                     l2808:
  5841  001B5A  9E11               	bcf	(___fldiv@b+2)^0,7,c
  5842  001B5C                     l2810:
  5843  001B5C  90D8               	bcf	status,0,c
  5844  001B5E  3026               	rrcf	___fldiv@bexp^0,w,c
  5845  001B60  6E12               	movwf	(___fldiv@b+3)^0,c
  5846  001B62  EF64  F00C         	goto	l2724
  5847  001B66                     l748:
  5848  001B66  0012               	return		;funcret
  5849  001B68                     __end_of___fldiv:
  5850                           	callstack 0
  5851                           
  5852 ;; *************** function _leerADC *****************
  5853 ;; Defined at:
  5854 ;;		line 123 in file "main.c"
  5855 ;; Parameters:    Size  Location     Type
  5856 ;;  canal           2    8[COMRAM] int 
  5857 ;; Auto vars:     Size  Location     Type
  5858 ;;  final           2   16[COMRAM] int 
  5859 ;;  digital         2   14[COMRAM] int 
  5860 ;; Return value:  Size  Location     Type
  5861 ;;                  2    8[COMRAM] int 
  5862 ;; Registers used:
  5863 ;;		wreg, status,2, status,0, cstack
  5864 ;; Tracked objects:
  5865 ;;		On entry : 0/0
  5866 ;;		On exit  : 0/0
  5867 ;;		Unchanged: 0/0
  5868 ;; Data sizes:     COMRAM   BANK0   BANK1   BANK2   BANK3   BANK4   BANK5   BANK6   BANK7
  5869 ;;      Params:         2       0       0       0       0       0       0       0       0
  5870 ;;      Locals:         4       0       0       0       0       0       0       0       0
  5871 ;;      Temps:          4       0       0       0       0       0       0       0       0
  5872 ;;      Totals:        10       0       0       0       0       0       0       0       0
  5873 ;;Total ram usage:       10 bytes
  5874 ;; Hardware stack levels used: 1
  5875 ;; Hardware stack levels required when called: 1
  5876 ;; This function calls:
  5877 ;;		___awdiv
  5878 ;; This function is called by:
  5879 ;;		_cancion1
  5880 ;; This function uses a non-reentrant model
  5881 ;;
  5882                           
  5883                           	psect	text23
  5884  002DE6                     __ptext23:
  5885                           	callstack 0
  5886  002DE6                     _leerADC:
  5887                           	callstack 28
  5888  002DE6                     
  5889                           ;main.c: 124:     int digital;;main.c: 125:     int final;;main.c: 126:     ADCON0 =(ADC
      +                          ON0 & 0b11000011)|((canal<<2) & 0b00111100);
  5890  002DE6  C009  F00B         	movff	leerADC@canal,??_leerADC
  5891  002DEA  90D8               	bcf	status,0,c
  5892  002DEC  360B               	rlcf	??_leerADC^0,f,c
  5893  002DEE  90D8               	bcf	status,0,c
  5894  002DF0  360B               	rlcf	??_leerADC^0,f,c
  5895  002DF2  0E3C               	movlw	60
  5896  002DF4  160B               	andwf	??_leerADC^0,f,c
  5897  002DF6  50C2               	movf	194,w,c	;volatile
  5898  002DF8  0BC3               	andlw	195
  5899  002DFA  100B               	iorwf	??_leerADC^0,w,c
  5900  002DFC  6EC2               	movwf	194,c	;volatile
  5901                           
  5902                           ;main.c: 127:     ADCON0 |= ((1<<ADON)|(1<<GO));
  5903  002DFE  B2C2               	btfsc	4034,1,c	;volatile
  5904  002E00  EF04  F017         	goto	u3211
  5905  002E04  EF08  F017         	goto	u3210
  5906  002E08                     u3211:
  5907  002E08  6A0B               	clrf	??_leerADC^0,c
  5908  002E0A  2A0B               	incf	??_leerADC^0,f,c
  5909  002E0C  EF09  F017         	goto	u3228
  5910  002E10                     u3210:
  5911  002E10  6A0B               	clrf	??_leerADC^0,c
  5912  002E12                     u3228:
  5913  002E12  0E01               	movlw	1
  5914  002E14  6E0C               	movwf	(??_leerADC+1)^0,c
  5915  002E16  2A0B               	incf	??_leerADC^0,f,c
  5916  002E18  EF10  F017         	goto	u3234
  5917  002E1C                     u3235:
  5918  002E1C  90D8               	bcf	status,0,c
  5919  002E1E  360C               	rlcf	(??_leerADC+1)^0,f,c
  5920  002E20                     u3234:
  5921  002E20  2E0B               	decfsz	??_leerADC^0,f,c
  5922  002E22  EF0E  F017         	goto	u3235
  5923  002E26  B0C2               	btfsc	4034,0,c	;volatile
  5924  002E28  EF18  F017         	goto	u3241
  5925  002E2C  EF1C  F017         	goto	u3240
  5926  002E30                     u3241:
  5927  002E30  6A0D               	clrf	(??_leerADC+2)^0,c
  5928  002E32  2A0D               	incf	(??_leerADC+2)^0,f,c
  5929  002E34  EF1D  F017         	goto	u3258
  5930  002E38                     u3240:
  5931  002E38  6A0D               	clrf	(??_leerADC+2)^0,c
  5932  002E3A                     u3258:
  5933  002E3A  0E01               	movlw	1
  5934  002E3C  6E0E               	movwf	(??_leerADC+3)^0,c
  5935  002E3E  2A0D               	incf	(??_leerADC+2)^0,f,c
  5936  002E40  EF24  F017         	goto	u3264
  5937  002E44                     u3265:
  5938  002E44  90D8               	bcf	status,0,c
  5939  002E46  360E               	rlcf	(??_leerADC+3)^0,f,c
  5940  002E48                     u3264:
  5941  002E48  2E0D               	decfsz	(??_leerADC+2)^0,f,c
  5942  002E4A  EF22  F017         	goto	u3265
  5943  002E4E  500E               	movf	(??_leerADC+3)^0,w,c
  5944  002E50  100C               	iorwf	(??_leerADC+1)^0,w,c
  5945  002E52  12C2               	iorwf	194,f,c	;volatile
  5946  002E54                     l134:
  5947  002E54  B2C2               	btfsc	194,1,c	;volatile
  5948  002E56  EF2F  F017         	goto	u3271
  5949  002E5A  EF31  F017         	goto	u3270
  5950  002E5E                     u3271:
  5951  002E5E  EF2A  F017         	goto	l134
  5952  002E62                     u3270:
  5953  002E62                     
  5954                           ;main.c: 129:     digital = ((ADRESH << 8) + ADRESL);
  5955  002E62  50C4               	movf	196,w,c	;volatile
  5956  002E64  6E0C               	movwf	(??_leerADC+1)^0,c
  5957  002E66  6A0B               	clrf	??_leerADC^0,c
  5958  002E68  50C3               	movf	195,w,c	;volatile
  5959  002E6A  240B               	addwf	??_leerADC^0,w,c
  5960  002E6C  6E0F               	movwf	leerADC@digital^0,c
  5961  002E6E  0E00               	movlw	0
  5962  002E70  200C               	addwfc	(??_leerADC+1)^0,w,c
  5963  002E72  6E10               	movwf	(leerADC@digital+1)^0,c
  5964  002E74                     
  5965                           ;main.c: 130:     final = digital/64;
  5966  002E74  C00F  F001         	movff	leerADC@digital,___awdiv@dividend
  5967  002E78  C010  F002         	movff	leerADC@digital+1,___awdiv@dividend+1
  5968  002E7C  0E00               	movlw	0
  5969  002E7E  6E04               	movwf	(___awdiv@divisor+1)^0,c
  5970  002E80  0E40               	movlw	64
  5971  002E82  6E03               	movwf	___awdiv@divisor^0,c
  5972  002E84  ECD3  F015         	call	___awdiv	;wreg free
  5973  002E88  C001  F011         	movff	?___awdiv,leerADC@final
  5974  002E8C  C002  F012         	movff	?___awdiv+1,leerADC@final+1
  5975  002E90                     
  5976                           ;main.c: 131:     return(final);
  5977  002E90  C011  F009         	movff	leerADC@final,?_leerADC
  5978  002E94  C012  F00A         	movff	leerADC@final+1,?_leerADC+1
  5979  002E98  0012               	return		;funcret
  5980  002E9A                     __end_of_leerADC:
  5981                           	callstack 0
  5982                           
  5983 ;; *************** function ___awdiv *****************
  5984 ;; Defined at:
  5985 ;;		line 7 in file "C:\Program Files\Microchip\xc8\v2.32\pic\sources\c99\common\awdiv.c"
  5986 ;; Parameters:    Size  Location     Type
  5987 ;;  dividend        2    0[COMRAM] int 
  5988 ;;  divisor         2    2[COMRAM] int 
  5989 ;; Auto vars:     Size  Location     Type
  5990 ;;  quotient        2    6[COMRAM] int 
  5991 ;;  sign            1    5[COMRAM] unsigned char 
  5992 ;;  counter         1    4[COMRAM] unsigned char 
  5993 ;; Return value:  Size  Location     Type
  5994 ;;                  2    0[COMRAM] int 
  5995 ;; Registers used:
  5996 ;;		wreg, status,2, status,0
  5997 ;; Tracked objects:
  5998 ;;		On entry : 0/0
  5999 ;;		On exit  : 0/0
  6000 ;;		Unchanged: 0/0
  6001 ;; Data sizes:     COMRAM   BANK0   BANK1   BANK2   BANK3   BANK4   BANK5   BANK6   BANK7
  6002 ;;      Params:         4       0       0       0       0       0       0       0       0
  6003 ;;      Locals:         4       0       0       0       0       0       0       0       0
  6004 ;;      Temps:          0       0       0       0       0       0       0       0       0
  6005 ;;      Totals:         8       0       0       0       0       0       0       0       0
  6006 ;;Total ram usage:        8 bytes
  6007 ;; Hardware stack levels used: 1
  6008 ;; This function calls:
  6009 ;;		Nothing
  6010 ;; This function is called by:
  6011 ;;		_leerADC
  6012 ;; This function uses a non-reentrant model
  6013 ;;
  6014                           
  6015                           	psect	text24
  6016  002BA6                     __ptext24:
  6017                           	callstack 0
  6018  002BA6                     ___awdiv:
  6019                           	callstack 28
  6020  002BA6  0E00               	movlw	0
  6021  002BA8  6E06               	movwf	___awdiv@sign^0,c
  6022  002BAA  BE04               	btfsc	(___awdiv@divisor+1)^0,7,c
  6023  002BAC  EFDC  F015         	goto	u2870
  6024  002BB0  EFDA  F015         	goto	u2871
  6025  002BB4                     u2871:
  6026  002BB4  EFE2  F015         	goto	l2832
  6027  002BB8                     u2870:
  6028  002BB8  6C03               	negf	___awdiv@divisor^0,c
  6029  002BBA  1E04               	comf	(___awdiv@divisor+1)^0,f,c
  6030  002BBC  B0D8               	btfsc	status,0,c
  6031  002BBE  2A04               	incf	(___awdiv@divisor+1)^0,f,c
  6032  002BC0  0E01               	movlw	1
  6033  002BC2  6E06               	movwf	___awdiv@sign^0,c
  6034  002BC4                     l2832:
  6035  002BC4  BE02               	btfsc	(___awdiv@dividend+1)^0,7,c
  6036  002BC6  EFE9  F015         	goto	u2880
  6037  002BCA  EFE7  F015         	goto	u2881
  6038  002BCE                     u2881:
  6039  002BCE  EFEF  F015         	goto	l2838
  6040  002BD2                     u2880:
  6041  002BD2  6C01               	negf	___awdiv@dividend^0,c
  6042  002BD4  1E02               	comf	(___awdiv@dividend+1)^0,f,c
  6043  002BD6  B0D8               	btfsc	status,0,c
  6044  002BD8  2A02               	incf	(___awdiv@dividend+1)^0,f,c
  6045  002BDA  0E01               	movlw	1
  6046  002BDC  1A06               	xorwf	___awdiv@sign^0,f,c
  6047  002BDE                     l2838:
  6048  002BDE  0E00               	movlw	0
  6049  002BE0  6E08               	movwf	(___awdiv@quotient+1)^0,c
  6050  002BE2  0E00               	movlw	0
  6051  002BE4  6E07               	movwf	___awdiv@quotient^0,c
  6052  002BE6  5003               	movf	___awdiv@divisor^0,w,c
  6053  002BE8  1004               	iorwf	(___awdiv@divisor+1)^0,w,c
  6054  002BEA  B4D8               	btfsc	status,2,c
  6055  002BEC  EFFA  F015         	goto	u2891
  6056  002BF0  EFFC  F015         	goto	u2890
  6057  002BF4                     u2891:
  6058  002BF4  EF24  F016         	goto	l2860
  6059  002BF8                     u2890:
  6060  002BF8  0E01               	movlw	1
  6061  002BFA  6E05               	movwf	___awdiv@counter^0,c
  6062  002BFC  EF04  F016         	goto	l2846
  6063  002C00                     l2844:
  6064  002C00  90D8               	bcf	status,0,c
  6065  002C02  3603               	rlcf	___awdiv@divisor^0,f,c
  6066  002C04  3604               	rlcf	(___awdiv@divisor+1)^0,f,c
  6067  002C06  2A05               	incf	___awdiv@counter^0,f,c
  6068  002C08                     l2846:
  6069  002C08  AE04               	btfss	(___awdiv@divisor+1)^0,7,c
  6070  002C0A  EF09  F016         	goto	u2901
  6071  002C0E  EF0B  F016         	goto	u2900
  6072  002C12                     u2901:
  6073  002C12  EF00  F016         	goto	l2844
  6074  002C16                     u2900:
  6075  002C16                     l2848:
  6076  002C16  90D8               	bcf	status,0,c
  6077  002C18  3607               	rlcf	___awdiv@quotient^0,f,c
  6078  002C1A  3608               	rlcf	(___awdiv@quotient+1)^0,f,c
  6079  002C1C  5003               	movf	___awdiv@divisor^0,w,c
  6080  002C1E  5C01               	subwf	___awdiv@dividend^0,w,c
  6081  002C20  5004               	movf	(___awdiv@divisor+1)^0,w,c
  6082  002C22  5802               	subwfb	(___awdiv@dividend+1)^0,w,c
  6083  002C24  A0D8               	btfss	status,0,c
  6084  002C26  EF17  F016         	goto	u2911
  6085  002C2A  EF19  F016         	goto	u2910
  6086  002C2E                     u2911:
  6087  002C2E  EF1E  F016         	goto	l2856
  6088  002C32                     u2910:
  6089  002C32  5003               	movf	___awdiv@divisor^0,w,c
  6090  002C34  5E01               	subwf	___awdiv@dividend^0,f,c
  6091  002C36  5004               	movf	(___awdiv@divisor+1)^0,w,c
  6092  002C38  5A02               	subwfb	(___awdiv@dividend+1)^0,f,c
  6093  002C3A  8007               	bsf	___awdiv@quotient^0,0,c
  6094  002C3C                     l2856:
  6095  002C3C  90D8               	bcf	status,0,c
  6096  002C3E  3204               	rrcf	(___awdiv@divisor+1)^0,f,c
  6097  002C40  3203               	rrcf	___awdiv@divisor^0,f,c
  6098  002C42  2E05               	decfsz	___awdiv@counter^0,f,c
  6099  002C44  EF0B  F016         	goto	l2848
  6100  002C48                     l2860:
  6101  002C48  5006               	movf	___awdiv@sign^0,w,c
  6102  002C4A  B4D8               	btfsc	status,2,c
  6103  002C4C  EF2A  F016         	goto	u2921
  6104  002C50  EF2C  F016         	goto	u2920
  6105  002C54                     u2921:
  6106  002C54  EF30  F016         	goto	l2864
  6107  002C58                     u2920:
  6108  002C58  6C07               	negf	___awdiv@quotient^0,c
  6109  002C5A  1E08               	comf	(___awdiv@quotient+1)^0,f,c
  6110  002C5C  B0D8               	btfsc	status,0,c
  6111  002C5E  2A08               	incf	(___awdiv@quotient+1)^0,f,c
  6112  002C60                     l2864:
  6113  002C60  C007  F001         	movff	___awdiv@quotient,?___awdiv
  6114  002C64  C008  F002         	movff	___awdiv@quotient+1,?___awdiv+1
  6115  002C68  0012               	return		;funcret
  6116  002C6A                     __end_of___awdiv:
  6117                           	callstack 0
  6118                           
  6119 ;; *************** function ___wmul *****************
  6120 ;; Defined at:
  6121 ;;		line 15 in file "C:\Program Files\Microchip\xc8\v2.32\pic\sources\c99\common\Umul16.c"
  6122 ;; Parameters:    Size  Location     Type
  6123 ;;  multiplier      2    0[COMRAM] unsigned int 
  6124 ;;  multiplicand    2    2[COMRAM] unsigned int 
  6125 ;; Auto vars:     Size  Location     Type
  6126 ;;  product         2    4[COMRAM] unsigned int 
  6127 ;; Return value:  Size  Location     Type
  6128 ;;                  2    0[COMRAM] unsigned int 
  6129 ;; Registers used:
  6130 ;;		wreg, status,2, status,0, prodl, prodh
  6131 ;; Tracked objects:
  6132 ;;		On entry : 0/0
  6133 ;;		On exit  : 0/0
  6134 ;;		Unchanged: 0/0
  6135 ;; Data sizes:     COMRAM   BANK0   BANK1   BANK2   BANK3   BANK4   BANK5   BANK6   BANK7
  6136 ;;      Params:         4       0       0       0       0       0       0       0       0
  6137 ;;      Locals:         2       0       0       0       0       0       0       0       0
  6138 ;;      Temps:          0       0       0       0       0       0       0       0       0
  6139 ;;      Totals:         6       0       0       0       0       0       0       0       0
  6140 ;;Total ram usage:        6 bytes
  6141 ;; Hardware stack levels used: 1
  6142 ;; This function calls:
  6143 ;;		Nothing
  6144 ;; This function is called by:
  6145 ;;		_cancion1
  6146 ;; This function uses a non-reentrant model
  6147 ;;
  6148                           
  6149                           	psect	text25
  6150  003330                     __ptext25:
  6151                           	callstack 0
  6152  003330                     ___wmul:
  6153                           	callstack 29
  6154  003330  5001               	movf	___wmul@multiplier^0,w,c
  6155  003332  0203               	mulwf	___wmul@multiplicand^0,c
  6156  003334  CFF3 F005          	movff	prodl,___wmul@product
  6157  003338  CFF4 F006          	movff	prodh,___wmul@product+1
  6158  00333C  5001               	movf	___wmul@multiplier^0,w,c
  6159  00333E  0204               	mulwf	(___wmul@multiplicand+1)^0,c
  6160  003340  50F3               	movf	243,w,c
  6161  003342  2606               	addwf	(___wmul@product+1)^0,f,c
  6162  003344  5002               	movf	(___wmul@multiplier+1)^0,w,c
  6163  003346  0203               	mulwf	___wmul@multiplicand^0,c
  6164  003348  50F3               	movf	243,w,c
  6165  00334A  2606               	addwf	(___wmul@product+1)^0,f,c
  6166  00334C  C005  F001         	movff	___wmul@product,?___wmul
  6167  003350  C006  F002         	movff	___wmul@product+1,?___wmul+1
  6168  003354  0012               	return		;funcret
  6169  003356                     __end_of___wmul:
  6170                           	callstack 0
  6171                           
  6172 ;; *************** function ___flmul *****************
  6173 ;; Defined at:
  6174 ;;		line 8 in file "C:\Program Files\Microchip\xc8\v2.32\pic\sources\c99\common\sprcmul.c"
  6175 ;; Parameters:    Size  Location     Type
  6176 ;;  b               4    6[COMRAM] unsigned int 
  6177 ;;  a               4   10[COMRAM] unsigned int 
  6178 ;; Auto vars:     Size  Location     Type
  6179 ;;  prod            4   25[COMRAM] struct .
  6180 ;;  grs             4   19[COMRAM] unsigned long 
  6181 ;;  temp            2   29[COMRAM] struct .
  6182 ;;  bexp            1   24[COMRAM] unsigned char 
  6183 ;;  aexp            1   23[COMRAM] unsigned char 
  6184 ;;  sign            1   18[COMRAM] unsigned char 
  6185 ;; Return value:  Size  Location     Type
  6186 ;;                  4    6[COMRAM] unsigned char 
  6187 ;; Registers used:
  6188 ;;		wreg, status,2, status,0, prodl, prodh
  6189 ;; Tracked objects:
  6190 ;;		On entry : 0/0
  6191 ;;		On exit  : 0/0
  6192 ;;		Unchanged: 0/0
  6193 ;; Data sizes:     COMRAM   BANK0   BANK1   BANK2   BANK3   BANK4   BANK5   BANK6   BANK7
  6194 ;;      Params:         8       0       0       0       0       0       0       0       0
  6195 ;;      Locals:        13       0       0       0       0       0       0       0       0
  6196 ;;      Temps:          4       0       0       0       0       0       0       0       0
  6197 ;;      Totals:        25       0       0       0       0       0       0       0       0
  6198 ;;Total ram usage:       25 bytes
  6199 ;; Hardware stack levels used: 1
  6200 ;; This function calls:
  6201 ;;		Nothing
  6202 ;; This function is called by:
  6203 ;;		_cancion1
  6204 ;; This function uses a non-reentrant model
  6205 ;;
  6206                           
  6207                           	psect	text26
  6208  0013A4                     __ptext26:
  6209                           	callstack 0
  6210  0013A4                     ___flmul:
  6211                           	callstack 29
  6212  0013A4  500A               	movf	(___flmul@b+3)^0,w,c
  6213  0013A6  0B80               	andlw	128
  6214  0013A8  6E13               	movwf	___flmul@sign^0,c
  6215  0013AA  500A               	movf	(___flmul@b+3)^0,w,c
  6216  0013AC  240A               	addwf	(___flmul@b+3)^0,w,c
  6217  0013AE  6E19               	movwf	___flmul@bexp^0,c
  6218  0013B0  AE09               	btfss	(___flmul@b+2)^0,7,c
  6219  0013B2  EFDD  F009         	goto	u3281
  6220  0013B6  EFDF  F009         	goto	u3280
  6221  0013BA                     u3281:
  6222  0013BA  EFE0  F009         	goto	l3052
  6223  0013BE                     u3280:
  6224  0013BE  8019               	bsf	___flmul@bexp^0,0,c
  6225  0013C0                     l3052:
  6226  0013C0  5019               	movf	___flmul@bexp^0,w,c
  6227  0013C2  B4D8               	btfsc	status,2,c
  6228  0013C4  EFE6  F009         	goto	u3291
  6229  0013C8  EFE8  F009         	goto	u3290
  6230  0013CC                     u3291:
  6231  0013CC  EFFB  F009         	goto	l3060
  6232  0013D0                     u3290:
  6233  0013D0  2819               	incf	___flmul@bexp^0,w,c
  6234  0013D2  A4D8               	btfss	status,2,c
  6235  0013D4  EFEE  F009         	goto	u3301
  6236  0013D8  EFF0  F009         	goto	u3300
  6237  0013DC                     u3301:
  6238  0013DC  EFF8  F009         	goto	l3058
  6239  0013E0                     u3300:
  6240  0013E0  0E00               	movlw	0
  6241  0013E2  6E07               	movwf	___flmul@b^0,c
  6242  0013E4  0E00               	movlw	0
  6243  0013E6  6E08               	movwf	(___flmul@b+1)^0,c
  6244  0013E8  0E00               	movlw	0
  6245  0013EA  6E09               	movwf	(___flmul@b+2)^0,c
  6246  0013EC  0E00               	movlw	0
  6247  0013EE  6E0A               	movwf	(___flmul@b+3)^0,c
  6248  0013F0                     l3058:
  6249  0013F0  8E09               	bsf	(___flmul@b+2)^0,7,c
  6250  0013F2  EF03  F00A         	goto	l3062
  6251  0013F6                     l3060:
  6252  0013F6  0E00               	movlw	0
  6253  0013F8  6E07               	movwf	___flmul@b^0,c
  6254  0013FA  0E00               	movlw	0
  6255  0013FC  6E08               	movwf	(___flmul@b+1)^0,c
  6256  0013FE  0E00               	movlw	0
  6257  001400  6E09               	movwf	(___flmul@b+2)^0,c
  6258  001402  0E00               	movlw	0
  6259  001404  6E0A               	movwf	(___flmul@b+3)^0,c
  6260  001406                     l3062:
  6261  001406  500E               	movf	(___flmul@a+3)^0,w,c
  6262  001408  0B80               	andlw	128
  6263  00140A  1A13               	xorwf	___flmul@sign^0,f,c
  6264  00140C  500E               	movf	(___flmul@a+3)^0,w,c
  6265  00140E  240E               	addwf	(___flmul@a+3)^0,w,c
  6266  001410  6E18               	movwf	___flmul@aexp^0,c
  6267  001412  AE0D               	btfss	(___flmul@a+2)^0,7,c
  6268  001414  EF0E  F00A         	goto	u3311
  6269  001418  EF10  F00A         	goto	u3310
  6270  00141C                     u3311:
  6271  00141C  EF11  F00A         	goto	l3070
  6272  001420                     u3310:
  6273  001420  8018               	bsf	___flmul@aexp^0,0,c
  6274  001422                     l3070:
  6275  001422  5018               	movf	___flmul@aexp^0,w,c
  6276  001424  B4D8               	btfsc	status,2,c
  6277  001426  EF17  F00A         	goto	u3321
  6278  00142A  EF19  F00A         	goto	u3320
  6279  00142E                     u3321:
  6280  00142E  EF2C  F00A         	goto	l3078
  6281  001432                     u3320:
  6282  001432  2818               	incf	___flmul@aexp^0,w,c
  6283  001434  A4D8               	btfss	status,2,c
  6284  001436  EF1F  F00A         	goto	u3331
  6285  00143A  EF21  F00A         	goto	u3330
  6286  00143E                     u3331:
  6287  00143E  EF29  F00A         	goto	l3076
  6288  001442                     u3330:
  6289  001442  0E00               	movlw	0
  6290  001444  6E0B               	movwf	___flmul@a^0,c
  6291  001446  0E00               	movlw	0
  6292  001448  6E0C               	movwf	(___flmul@a+1)^0,c
  6293  00144A  0E00               	movlw	0
  6294  00144C  6E0D               	movwf	(___flmul@a+2)^0,c
  6295  00144E  0E00               	movlw	0
  6296  001450  6E0E               	movwf	(___flmul@a+3)^0,c
  6297  001452                     l3076:
  6298  001452  8E0D               	bsf	(___flmul@a+2)^0,7,c
  6299  001454  EF34  F00A         	goto	l780
  6300  001458                     l3078:
  6301  001458  0E00               	movlw	0
  6302  00145A  6E0B               	movwf	___flmul@a^0,c
  6303  00145C  0E00               	movlw	0
  6304  00145E  6E0C               	movwf	(___flmul@a+1)^0,c
  6305  001460  0E00               	movlw	0
  6306  001462  6E0D               	movwf	(___flmul@a+2)^0,c
  6307  001464  0E00               	movlw	0
  6308  001466  6E0E               	movwf	(___flmul@a+3)^0,c
  6309  001468                     l780:
  6310  001468  5018               	movf	___flmul@aexp^0,w,c
  6311  00146A  B4D8               	btfsc	status,2,c
  6312  00146C  EF3A  F00A         	goto	u3341
  6313  001470  EF3C  F00A         	goto	u3340
  6314  001474                     u3341:
  6315  001474  EF44  F00A         	goto	l3082
  6316  001478                     u3340:
  6317  001478  5019               	movf	___flmul@bexp^0,w,c
  6318  00147A  A4D8               	btfss	status,2,c
  6319  00147C  EF42  F00A         	goto	u3351
  6320  001480  EF44  F00A         	goto	u3350
  6321  001484                     u3351:
  6322  001484  EF4E  F00A         	goto	l3086
  6323  001488                     u3350:
  6324  001488                     l3082:
  6325  001488  0E00               	movlw	0
  6326  00148A  6E07               	movwf	?___flmul^0,c
  6327  00148C  0E00               	movlw	0
  6328  00148E  6E08               	movwf	(?___flmul+1)^0,c
  6329  001490  0E00               	movlw	0
  6330  001492  6E09               	movwf	(?___flmul+2)^0,c
  6331  001494  0E00               	movlw	0
  6332  001496  6E0A               	movwf	(?___flmul+3)^0,c
  6333  001498  EFE6  F00B         	goto	l784
  6334  00149C                     l3086:
  6335  00149C  500D               	movf	(___flmul@a+2)^0,w,c
  6336  00149E  0207               	mulwf	___flmul@b^0,c
  6337  0014A0  CFF3 F01E          	movff	prodl,___flmul@temp
  6338  0014A4  CFF4 F01F          	movff	prodh,___flmul@temp+1
  6339  0014A8  501E               	movf	___flmul@temp^0,w,c
  6340  0014AA  6E14               	movwf	___flmul@grs^0,c
  6341  0014AC  6A15               	clrf	(___flmul@grs+1)^0,c
  6342  0014AE  6A16               	clrf	(___flmul@grs+2)^0,c
  6343  0014B0  6A17               	clrf	(___flmul@grs+3)^0,c
  6344  0014B2  501F               	movf	(___flmul@temp+1)^0,w,c
  6345  0014B4  6E1A               	movwf	___flmul@prod^0,c
  6346  0014B6  6A1B               	clrf	(___flmul@prod+1)^0,c
  6347  0014B8  6A1C               	clrf	(___flmul@prod+2)^0,c
  6348  0014BA  6A1D               	clrf	(___flmul@prod+3)^0,c
  6349  0014BC  500C               	movf	(___flmul@a+1)^0,w,c
  6350  0014BE  0208               	mulwf	(___flmul@b+1)^0,c
  6351  0014C0  CFF3 F01E          	movff	prodl,___flmul@temp
  6352  0014C4  CFF4 F01F          	movff	prodh,___flmul@temp+1
  6353  0014C8  501E               	movf	___flmul@temp^0,w,c
  6354  0014CA  2614               	addwf	___flmul@grs^0,f,c
  6355  0014CC  0E00               	movlw	0
  6356  0014CE  2215               	addwfc	(___flmul@grs+1)^0,f,c
  6357  0014D0  2216               	addwfc	(___flmul@grs+2)^0,f,c
  6358  0014D2  2217               	addwfc	(___flmul@grs+3)^0,f,c
  6359  0014D4  501F               	movf	(___flmul@temp+1)^0,w,c
  6360  0014D6  261A               	addwf	___flmul@prod^0,f,c
  6361  0014D8  0E00               	movlw	0
  6362  0014DA  221B               	addwfc	(___flmul@prod+1)^0,f,c
  6363  0014DC  221C               	addwfc	(___flmul@prod+2)^0,f,c
  6364  0014DE  221D               	addwfc	(___flmul@prod+3)^0,f,c
  6365  0014E0  500B               	movf	___flmul@a^0,w,c
  6366  0014E2  0209               	mulwf	(___flmul@b+2)^0,c
  6367  0014E4  CFF3 F01E          	movff	prodl,___flmul@temp
  6368  0014E8  CFF4 F01F          	movff	prodh,___flmul@temp+1
  6369  0014EC  501E               	movf	___flmul@temp^0,w,c
  6370  0014EE  2614               	addwf	___flmul@grs^0,f,c
  6371  0014F0  0E00               	movlw	0
  6372  0014F2  2215               	addwfc	(___flmul@grs+1)^0,f,c
  6373  0014F4  2216               	addwfc	(___flmul@grs+2)^0,f,c
  6374  0014F6  2217               	addwfc	(___flmul@grs+3)^0,f,c
  6375  0014F8  501F               	movf	(___flmul@temp+1)^0,w,c
  6376  0014FA  261A               	addwf	___flmul@prod^0,f,c
  6377  0014FC  0E00               	movlw	0
  6378  0014FE  221B               	addwfc	(___flmul@prod+1)^0,f,c
  6379  001500  221C               	addwfc	(___flmul@prod+2)^0,f,c
  6380  001502  221D               	addwfc	(___flmul@prod+3)^0,f,c
  6381  001504  C016  F017         	movff	___flmul@grs+2,___flmul@grs+3
  6382  001508  C015  F016         	movff	___flmul@grs+1,___flmul@grs+2
  6383  00150C  C014  F015         	movff	___flmul@grs,___flmul@grs+1
  6384  001510  6A14               	clrf	___flmul@grs^0,c
  6385  001512  500B               	movf	___flmul@a^0,w,c
  6386  001514  0208               	mulwf	(___flmul@b+1)^0,c
  6387  001516  CFF3 F01E          	movff	prodl,___flmul@temp
  6388  00151A  CFF4 F01F          	movff	prodh,___flmul@temp+1
  6389  00151E  501E               	movf	___flmul@temp^0,w,c
  6390  001520  2614               	addwf	___flmul@grs^0,f,c
  6391  001522  501F               	movf	(___flmul@temp+1)^0,w,c
  6392  001524  2215               	addwfc	(___flmul@grs+1)^0,f,c
  6393  001526  0E00               	movlw	0
  6394  001528  2216               	addwfc	(___flmul@grs+2)^0,f,c
  6395  00152A  0E00               	movlw	0
  6396  00152C  2217               	addwfc	(___flmul@grs+3)^0,f,c
  6397  00152E  500C               	movf	(___flmul@a+1)^0,w,c
  6398  001530  0207               	mulwf	___flmul@b^0,c
  6399  001532  CFF3 F01E          	movff	prodl,___flmul@temp
  6400  001536  CFF4 F01F          	movff	prodh,___flmul@temp+1
  6401  00153A  501E               	movf	___flmul@temp^0,w,c
  6402  00153C  2614               	addwf	___flmul@grs^0,f,c
  6403  00153E  501F               	movf	(___flmul@temp+1)^0,w,c
  6404  001540  2215               	addwfc	(___flmul@grs+1)^0,f,c
  6405  001542  0E00               	movlw	0
  6406  001544  2216               	addwfc	(___flmul@grs+2)^0,f,c
  6407  001546  0E00               	movlw	0
  6408  001548  2217               	addwfc	(___flmul@grs+3)^0,f,c
  6409  00154A  C016  F017         	movff	___flmul@grs+2,___flmul@grs+3
  6410  00154E  C015  F016         	movff	___flmul@grs+1,___flmul@grs+2
  6411  001552  C014  F015         	movff	___flmul@grs,___flmul@grs+1
  6412  001556  6A14               	clrf	___flmul@grs^0,c
  6413  001558  500B               	movf	___flmul@a^0,w,c
  6414  00155A  0207               	mulwf	___flmul@b^0,c
  6415  00155C  CFF3 F01E          	movff	prodl,___flmul@temp
  6416  001560  CFF4 F01F          	movff	prodh,___flmul@temp+1
  6417  001564  501E               	movf	___flmul@temp^0,w,c
  6418  001566  2614               	addwf	___flmul@grs^0,f,c
  6419  001568  501F               	movf	(___flmul@temp+1)^0,w,c
  6420  00156A  2215               	addwfc	(___flmul@grs+1)^0,f,c
  6421  00156C  0E00               	movlw	0
  6422  00156E  2216               	addwfc	(___flmul@grs+2)^0,f,c
  6423  001570  0E00               	movlw	0
  6424  001572  2217               	addwfc	(___flmul@grs+3)^0,f,c
  6425  001574  500D               	movf	(___flmul@a+2)^0,w,c
  6426  001576  0208               	mulwf	(___flmul@b+1)^0,c
  6427  001578  CFF3 F01E          	movff	prodl,___flmul@temp
  6428  00157C  CFF4 F01F          	movff	prodh,___flmul@temp+1
  6429  001580  501E               	movf	___flmul@temp^0,w,c
  6430  001582  261A               	addwf	___flmul@prod^0,f,c
  6431  001584  501F               	movf	(___flmul@temp+1)^0,w,c
  6432  001586  221B               	addwfc	(___flmul@prod+1)^0,f,c
  6433  001588  0E00               	movlw	0
  6434  00158A  221C               	addwfc	(___flmul@prod+2)^0,f,c
  6435  00158C  0E00               	movlw	0
  6436  00158E  221D               	addwfc	(___flmul@prod+3)^0,f,c
  6437  001590  500C               	movf	(___flmul@a+1)^0,w,c
  6438  001592  0209               	mulwf	(___flmul@b+2)^0,c
  6439  001594  CFF3 F01E          	movff	prodl,___flmul@temp
  6440  001598  CFF4 F01F          	movff	prodh,___flmul@temp+1
  6441  00159C  501E               	movf	___flmul@temp^0,w,c
  6442  00159E  261A               	addwf	___flmul@prod^0,f,c
  6443  0015A0  501F               	movf	(___flmul@temp+1)^0,w,c
  6444  0015A2  221B               	addwfc	(___flmul@prod+1)^0,f,c
  6445  0015A4  0E00               	movlw	0
  6446  0015A6  221C               	addwfc	(___flmul@prod+2)^0,f,c
  6447  0015A8  0E00               	movlw	0
  6448  0015AA  221D               	addwfc	(___flmul@prod+3)^0,f,c
  6449  0015AC  500D               	movf	(___flmul@a+2)^0,w,c
  6450  0015AE  0209               	mulwf	(___flmul@b+2)^0,c
  6451  0015B0  CFF3 F01E          	movff	prodl,___flmul@temp
  6452  0015B4  CFF4 F01F          	movff	prodh,___flmul@temp+1
  6453  0015B8  501E               	movf	___flmul@temp^0,w,c
  6454  0015BA  6E0F               	movwf	??___flmul^0,c
  6455  0015BC  501F               	movf	(___flmul@temp+1)^0,w,c
  6456  0015BE  6E10               	movwf	(??___flmul+1)^0,c
  6457  0015C0  6A11               	clrf	(??___flmul+2)^0,c
  6458  0015C2  6A12               	clrf	(??___flmul+3)^0,c
  6459  0015C4  C011  F012         	movff	??___flmul+2,??___flmul+3
  6460  0015C8  C010  F011         	movff	??___flmul+1,??___flmul+2
  6461  0015CC  C00F  F010         	movff	??___flmul,??___flmul+1
  6462  0015D0  6A0F               	clrf	??___flmul^0,c
  6463  0015D2  500F               	movf	??___flmul^0,w,c
  6464  0015D4  261A               	addwf	___flmul@prod^0,f,c
  6465  0015D6  5010               	movf	(??___flmul+1)^0,w,c
  6466  0015D8  221B               	addwfc	(___flmul@prod+1)^0,f,c
  6467  0015DA  5011               	movf	(??___flmul+2)^0,w,c
  6468  0015DC  221C               	addwfc	(___flmul@prod+2)^0,f,c
  6469  0015DE  5012               	movf	(??___flmul+3)^0,w,c
  6470  0015E0  221D               	addwfc	(___flmul@prod+3)^0,f,c
  6471  0015E2  C014  F00F         	movff	___flmul@grs,??___flmul
  6472  0015E6  C015  F010         	movff	___flmul@grs+1,??___flmul+1
  6473  0015EA  C016  F011         	movff	___flmul@grs+2,??___flmul+2
  6474  0015EE  C017  F012         	movff	___flmul@grs+3,??___flmul+3
  6475  0015F2  0E19               	movlw	25
  6476  0015F4  EF01  F00B         	goto	u3360
  6477  0015F8                     u3365:
  6478  0015F8  90D8               	bcf	status,0,c
  6479  0015FA  3212               	rrcf	(??___flmul+3)^0,f,c
  6480  0015FC  3211               	rrcf	(??___flmul+2)^0,f,c
  6481  0015FE  3210               	rrcf	(??___flmul+1)^0,f,c
  6482  001600  320F               	rrcf	??___flmul^0,f,c
  6483  001602                     u3360:
  6484  001602  2EE8               	decfsz	wreg,f,c
  6485  001604  EFFC  F00A         	goto	u3365
  6486  001608  500F               	movf	??___flmul^0,w,c
  6487  00160A  261A               	addwf	___flmul@prod^0,f,c
  6488  00160C  5010               	movf	(??___flmul+1)^0,w,c
  6489  00160E  221B               	addwfc	(___flmul@prod+1)^0,f,c
  6490  001610  5011               	movf	(??___flmul+2)^0,w,c
  6491  001612  221C               	addwfc	(___flmul@prod+2)^0,f,c
  6492  001614  5012               	movf	(??___flmul+3)^0,w,c
  6493  001616  221D               	addwfc	(___flmul@prod+3)^0,f,c
  6494  001618  C016  F017         	movff	___flmul@grs+2,___flmul@grs+3
  6495  00161C  C015  F016         	movff	___flmul@grs+1,___flmul@grs+2
  6496  001620  C014  F015         	movff	___flmul@grs,___flmul@grs+1
  6497  001624  6A14               	clrf	___flmul@grs^0,c
  6498  001626  5018               	movf	___flmul@aexp^0,w,c
  6499  001628  C019  F00F         	movff	___flmul@bexp,??___flmul
  6500  00162C  6A10               	clrf	(??___flmul+1)^0,c
  6501  00162E  260F               	addwf	??___flmul^0,f,c
  6502  001630  0E00               	movlw	0
  6503  001632  2210               	addwfc	(??___flmul+1)^0,f,c
  6504  001634  0E82               	movlw	130
  6505  001636  240F               	addwf	??___flmul^0,w,c
  6506  001638  6E1E               	movwf	___flmul@temp^0,c
  6507  00163A  0EFF               	movlw	255
  6508  00163C  2010               	addwfc	(??___flmul+1)^0,w,c
  6509  00163E  6E1F               	movwf	(___flmul@temp+1)^0,c
  6510  001640  EF37  F00B         	goto	l3134
  6511  001644                     l3128:
  6512  001644  90D8               	bcf	status,0,c
  6513  001646  361A               	rlcf	___flmul@prod^0,f,c
  6514  001648  361B               	rlcf	(___flmul@prod+1)^0,f,c
  6515  00164A  361C               	rlcf	(___flmul@prod+2)^0,f,c
  6516  00164C  361D               	rlcf	(___flmul@prod+3)^0,f,c
  6517  00164E  AE17               	btfss	(___flmul@grs+3)^0,7,c
  6518  001650  EF2C  F00B         	goto	u3371
  6519  001654  EF2E  F00B         	goto	u3370
  6520  001658                     u3371:
  6521  001658  EF2F  F00B         	goto	l787
  6522  00165C                     u3370:
  6523  00165C  801A               	bsf	___flmul@prod^0,0,c
  6524  00165E                     l787:
  6525  00165E  90D8               	bcf	status,0,c
  6526  001660  3614               	rlcf	___flmul@grs^0,f,c
  6527  001662  3615               	rlcf	(___flmul@grs+1)^0,f,c
  6528  001664  3616               	rlcf	(___flmul@grs+2)^0,f,c
  6529  001666  3617               	rlcf	(___flmul@grs+3)^0,f,c
  6530  001668  061E               	decf	___flmul@temp^0,f,c
  6531  00166A  A0D8               	btfss	status,0,c
  6532  00166C  061F               	decf	(___flmul@temp+1)^0,f,c
  6533  00166E                     l3134:
  6534  00166E  AE1C               	btfss	(___flmul@prod+2)^0,7,c
  6535  001670  EF3C  F00B         	goto	u3381
  6536  001674  EF3E  F00B         	goto	u3380
  6537  001678                     u3381:
  6538  001678  EF22  F00B         	goto	l3128
  6539  00167C                     u3380:
  6540  00167C  0E00               	movlw	0
  6541  00167E  6E18               	movwf	___flmul@aexp^0,c
  6542  001680  AE17               	btfss	(___flmul@grs+3)^0,7,c
  6543  001682  EF45  F00B         	goto	u3391
  6544  001686  EF47  F00B         	goto	u3390
  6545  00168A                     u3391:
  6546  00168A  EF6B  F00B         	goto	l789
  6547  00168E                     u3390:
  6548  00168E  0EFF               	movlw	255
  6549  001690  1414               	andwf	___flmul@grs^0,w,c
  6550  001692  6E0F               	movwf	??___flmul^0,c
  6551  001694  0EFF               	movlw	255
  6552  001696  1415               	andwf	(___flmul@grs+1)^0,w,c
  6553  001698  6E10               	movwf	(??___flmul+1)^0,c
  6554  00169A  0EFF               	movlw	255
  6555  00169C  1416               	andwf	(___flmul@grs+2)^0,w,c
  6556  00169E  6E11               	movwf	(??___flmul+2)^0,c
  6557  0016A0  0E7F               	movlw	127
  6558  0016A2  1417               	andwf	(___flmul@grs+3)^0,w,c
  6559  0016A4  6E12               	movwf	(??___flmul+3)^0,c
  6560  0016A6  500F               	movf	??___flmul^0,w,c
  6561  0016A8  1010               	iorwf	(??___flmul+1)^0,w,c
  6562  0016AA  1011               	iorwf	(??___flmul+2)^0,w,c
  6563  0016AC  1012               	iorwf	(??___flmul+3)^0,w,c
  6564  0016AE  B4D8               	btfsc	status,2,c
  6565  0016B0  EF5C  F00B         	goto	u3401
  6566  0016B4  EF5E  F00B         	goto	u3400
  6567  0016B8                     u3401:
  6568  0016B8  EF62  F00B         	goto	l790
  6569  0016BC                     u3400:
  6570  0016BC                     l3142:
  6571  0016BC  0E01               	movlw	1
  6572  0016BE  6E18               	movwf	___flmul@aexp^0,c
  6573  0016C0  EF6B  F00B         	goto	l789
  6574  0016C4                     l790:
  6575  0016C4  A01A               	btfss	___flmul@prod^0,0,c
  6576  0016C6  EF67  F00B         	goto	u3411
  6577  0016CA  EF69  F00B         	goto	u3410
  6578  0016CE                     u3411:
  6579  0016CE  EF6B  F00B         	goto	l789
  6580  0016D2                     u3410:
  6581  0016D2  EF5E  F00B         	goto	l3142
  6582  0016D6                     l789:
  6583  0016D6  5018               	movf	___flmul@aexp^0,w,c
  6584  0016D8  B4D8               	btfsc	status,2,c
  6585  0016DA  EF71  F00B         	goto	u3421
  6586  0016DE  EF73  F00B         	goto	u3420
  6587  0016E2                     u3421:
  6588  0016E2  EF97  F00B         	goto	l3154
  6589  0016E6                     u3420:
  6590  0016E6  0E01               	movlw	1
  6591  0016E8  261A               	addwf	___flmul@prod^0,f,c
  6592  0016EA  0E00               	movlw	0
  6593  0016EC  221B               	addwfc	(___flmul@prod+1)^0,f,c
  6594  0016EE  221C               	addwfc	(___flmul@prod+2)^0,f,c
  6595  0016F0  221D               	addwfc	(___flmul@prod+3)^0,f,c
  6596  0016F2  A01D               	btfss	(___flmul@prod+3)^0,0,c
  6597  0016F4  EF7E  F00B         	goto	u3431
  6598  0016F8  EF80  F00B         	goto	u3430
  6599  0016FC                     u3431:
  6600  0016FC  EF97  F00B         	goto	l3154
  6601  001700                     u3430:
  6602  001700  C01A  F00F         	movff	___flmul@prod,??___flmul
  6603  001704  C01B  F010         	movff	___flmul@prod+1,??___flmul+1
  6604  001708  C01C  F011         	movff	___flmul@prod+2,??___flmul+2
  6605  00170C  C01D  F012         	movff	___flmul@prod+3,??___flmul+3
  6606  001710  3412               	rlcf	(??___flmul+3)^0,w,c
  6607  001712  3212               	rrcf	(??___flmul+3)^0,f,c
  6608  001714  3211               	rrcf	(??___flmul+2)^0,f,c
  6609  001716  3210               	rrcf	(??___flmul+1)^0,f,c
  6610  001718  320F               	rrcf	??___flmul^0,f,c
  6611  00171A  C00F  F01A         	movff	??___flmul,___flmul@prod
  6612  00171E  C010  F01B         	movff	??___flmul+1,___flmul@prod+1
  6613  001722  C011  F01C         	movff	??___flmul+2,___flmul@prod+2
  6614  001726  C012  F01D         	movff	??___flmul+3,___flmul@prod+3
  6615  00172A  4A1E               	infsnz	___flmul@temp^0,f,c
  6616  00172C  2A1F               	incf	(___flmul@temp+1)^0,f,c
  6617  00172E                     l3154:
  6618  00172E  BE1F               	btfsc	(___flmul@temp+1)^0,7,c
  6619  001730  EFA2  F00B         	goto	u3441
  6620  001734  501F               	movf	(___flmul@temp+1)^0,w,c
  6621  001736  E108               	bnz	u3440
  6622  001738  281E               	incf	___flmul@temp^0,w,c
  6623  00173A  A0D8               	btfss	status,0,c
  6624  00173C  EFA2  F00B         	goto	u3441
  6625  001740  EFA4  F00B         	goto	u3440
  6626  001744                     u3441:
  6627  001744  EFAE  F00B         	goto	l3158
  6628  001748                     u3440:
  6629  001748  0E00               	movlw	0
  6630  00174A  6E1A               	movwf	___flmul@prod^0,c
  6631  00174C  0E00               	movlw	0
  6632  00174E  6E1B               	movwf	(___flmul@prod+1)^0,c
  6633  001750  0E80               	movlw	128
  6634  001752  6E1C               	movwf	(___flmul@prod+2)^0,c
  6635  001754  0E7F               	movlw	127
  6636  001756  6E1D               	movwf	(___flmul@prod+3)^0,c
  6637  001758  EFDC  F00B         	goto	l3170
  6638  00175C                     l3158:
  6639  00175C  BE1F               	btfsc	(___flmul@temp+1)^0,7,c
  6640  00175E  EFBB  F00B         	goto	u3450
  6641  001762  501F               	movf	(___flmul@temp+1)^0,w,c
  6642  001764  E106               	bnz	u3451
  6643  001766  041E               	decf	___flmul@temp^0,w,c
  6644  001768  B0D8               	btfsc	status,0,c
  6645  00176A  EFB9  F00B         	goto	u3451
  6646  00176E  EFBB  F00B         	goto	u3450
  6647  001772                     u3451:
  6648  001772  EFC7  F00B         	goto	l797
  6649  001776                     u3450:
  6650  001776  0E00               	movlw	0
  6651  001778  6E1A               	movwf	___flmul@prod^0,c
  6652  00177A  0E00               	movlw	0
  6653  00177C  6E1B               	movwf	(___flmul@prod+1)^0,c
  6654  00177E  0E00               	movlw	0
  6655  001780  6E1C               	movwf	(___flmul@prod+2)^0,c
  6656  001782  0E00               	movlw	0
  6657  001784  6E1D               	movwf	(___flmul@prod+3)^0,c
  6658  001786  0E00               	movlw	0
  6659  001788  6E13               	movwf	___flmul@sign^0,c
  6660  00178A  EFDC  F00B         	goto	l3170
  6661  00178E                     l797:
  6662  00178E  C01E  F019         	movff	___flmul@temp,___flmul@bexp
  6663  001792  0EFF               	movlw	255
  6664  001794  161A               	andwf	___flmul@prod^0,f,c
  6665  001796  0EFF               	movlw	255
  6666  001798  161B               	andwf	(___flmul@prod+1)^0,f,c
  6667  00179A  0E7F               	movlw	127
  6668  00179C  161C               	andwf	(___flmul@prod+2)^0,f,c
  6669  00179E  0E00               	movlw	0
  6670  0017A0  161D               	andwf	(___flmul@prod+3)^0,f,c
  6671  0017A2  A019               	btfss	___flmul@bexp^0,0,c
  6672  0017A4  EFD6  F00B         	goto	u3461
  6673  0017A8  EFD8  F00B         	goto	u3460
  6674  0017AC                     u3461:
  6675  0017AC  EFD9  F00B         	goto	l3168
  6676  0017B0                     u3460:
  6677  0017B0  8E1C               	bsf	(___flmul@prod+2)^0,7,c
  6678  0017B2                     l3168:
  6679  0017B2  90D8               	bcf	status,0,c
  6680  0017B4  3019               	rrcf	___flmul@bexp^0,w,c
  6681  0017B6  6E1D               	movwf	(___flmul@prod+3)^0,c
  6682  0017B8                     l3170:
  6683  0017B8  5013               	movf	___flmul@sign^0,w,c
  6684  0017BA  121D               	iorwf	(___flmul@prod+3)^0,f,c
  6685  0017BC  C01A  F007         	movff	___flmul@prod,?___flmul
  6686  0017C0  C01B  F008         	movff	___flmul@prod+1,?___flmul+1
  6687  0017C4  C01C  F009         	movff	___flmul@prod+2,?___flmul+2
  6688  0017C8  C01D  F00A         	movff	___flmul@prod+3,?___flmul+3
  6689  0017CC                     l784:
  6690  0017CC  0012               	return		;funcret
  6691  0017CE                     __end_of___flmul:
  6692                           	callstack 0
  6693                           
  6694 ;; *************** function ___fleq *****************
  6695 ;; Defined at:
  6696 ;;		line 4 in file "C:\Program Files\Microchip\xc8\v2.32\pic\sources\c99\common\fleq.c"
  6697 ;; Parameters:    Size  Location     Type
  6698 ;;  ff1             4    6[COMRAM] unsigned char 
  6699 ;;  ff2             4   10[COMRAM] unsigned char 
  6700 ;; Auto vars:     Size  Location     Type
  6701 ;;		None
  6702 ;; Return value:  Size  Location     Type
  6703 ;;		None               void
  6704 ;; Registers used:
  6705 ;;		wreg, status,2, status,0
  6706 ;; Tracked objects:
  6707 ;;		On entry : 0/0
  6708 ;;		On exit  : 0/0
  6709 ;;		Unchanged: 0/0
  6710 ;; Data sizes:     COMRAM   BANK0   BANK1   BANK2   BANK3   BANK4   BANK5   BANK6   BANK7
  6711 ;;      Params:         8       0       0       0       0       0       0       0       0
  6712 ;;      Locals:         0       0       0       0       0       0       0       0       0
  6713 ;;      Temps:          4       0       0       0       0       0       0       0       0
  6714 ;;      Totals:        12       0       0       0       0       0       0       0       0
  6715 ;;Total ram usage:       12 bytes
  6716 ;; Hardware stack levels used: 1
  6717 ;; This function calls:
  6718 ;;		Nothing
  6719 ;; This function is called by:
  6720 ;;		_cancion1
  6721 ;; This function uses a non-reentrant model
  6722 ;;
  6723                           
  6724                           	psect	text27
  6725  002E9A                     __ptext27:
  6726                           	callstack 0
  6727  002E9A                     ___fleq:
  6728                           	callstack 29
  6729  002E9A  0E00               	movlw	0
  6730  002E9C  1407               	andwf	___fleq@ff1^0,w,c
  6731  002E9E  6E0F               	movwf	??___fleq^0,c
  6732  002EA0  0E00               	movlw	0
  6733  002EA2  1408               	andwf	(___fleq@ff1+1)^0,w,c
  6734  002EA4  6E10               	movwf	(??___fleq+1)^0,c
  6735  002EA6  0E80               	movlw	128
  6736  002EA8  1409               	andwf	(___fleq@ff1+2)^0,w,c
  6737  002EAA  6E11               	movwf	(??___fleq+2)^0,c
  6738  002EAC  0E7F               	movlw	127
  6739  002EAE  140A               	andwf	(___fleq@ff1+3)^0,w,c
  6740  002EB0  6E12               	movwf	(??___fleq+3)^0,c
  6741  002EB2  500F               	movf	??___fleq^0,w,c
  6742  002EB4  1010               	iorwf	(??___fleq+1)^0,w,c
  6743  002EB6  1011               	iorwf	(??___fleq+2)^0,w,c
  6744  002EB8  1012               	iorwf	(??___fleq+3)^0,w,c
  6745  002EBA  A4D8               	btfss	status,2,c
  6746  002EBC  EF62  F017         	goto	u3471
  6747  002EC0  EF64  F017         	goto	u3470
  6748  002EC4                     u3471:
  6749  002EC4  EF6C  F017         	goto	l3180
  6750  002EC8                     u3470:
  6751  002EC8  0E00               	movlw	0
  6752  002ECA  6E07               	movwf	___fleq@ff1^0,c
  6753  002ECC  0E00               	movlw	0
  6754  002ECE  6E08               	movwf	(___fleq@ff1+1)^0,c
  6755  002ED0  0E00               	movlw	0
  6756  002ED2  6E09               	movwf	(___fleq@ff1+2)^0,c
  6757  002ED4  0E00               	movlw	0
  6758  002ED6  6E0A               	movwf	(___fleq@ff1+3)^0,c
  6759  002ED8                     l3180:
  6760  002ED8  0E00               	movlw	0
  6761  002EDA  140B               	andwf	___fleq@ff2^0,w,c
  6762  002EDC  6E0F               	movwf	??___fleq^0,c
  6763  002EDE  0E00               	movlw	0
  6764  002EE0  140C               	andwf	(___fleq@ff2+1)^0,w,c
  6765  002EE2  6E10               	movwf	(??___fleq+1)^0,c
  6766  002EE4  0E80               	movlw	128
  6767  002EE6  140D               	andwf	(___fleq@ff2+2)^0,w,c
  6768  002EE8  6E11               	movwf	(??___fleq+2)^0,c
  6769  002EEA  0E7F               	movlw	127
  6770  002EEC  140E               	andwf	(___fleq@ff2+3)^0,w,c
  6771  002EEE  6E12               	movwf	(??___fleq+3)^0,c
  6772  002EF0  500F               	movf	??___fleq^0,w,c
  6773  002EF2  1010               	iorwf	(??___fleq+1)^0,w,c
  6774  002EF4  1011               	iorwf	(??___fleq+2)^0,w,c
  6775  002EF6  1012               	iorwf	(??___fleq+3)^0,w,c
  6776  002EF8  A4D8               	btfss	status,2,c
  6777  002EFA  EF81  F017         	goto	u3481
  6778  002EFE  EF83  F017         	goto	u3480
  6779  002F02                     u3481:
  6780  002F02  EF8B  F017         	goto	l3184
  6781  002F06                     u3480:
  6782  002F06  0E00               	movlw	0
  6783  002F08  6E0B               	movwf	___fleq@ff2^0,c
  6784  002F0A  0E00               	movlw	0
  6785  002F0C  6E0C               	movwf	(___fleq@ff2+1)^0,c
  6786  002F0E  0E00               	movlw	0
  6787  002F10  6E0D               	movwf	(___fleq@ff2+2)^0,c
  6788  002F12  0E00               	movlw	0
  6789  002F14  6E0E               	movwf	(___fleq@ff2+3)^0,c
  6790  002F16                     l3184:
  6791  002F16  500B               	movf	___fleq@ff2^0,w,c
  6792  002F18  1807               	xorwf	___fleq@ff1^0,w,c
  6793  002F1A  E10F               	bnz	u3490
  6794  002F1C  500C               	movf	(___fleq@ff2+1)^0,w,c
  6795  002F1E  1808               	xorwf	(___fleq@ff1+1)^0,w,c
  6796  002F20  E10C               	bnz	u3490
  6797  002F22  500D               	movf	(___fleq@ff2+2)^0,w,c
  6798  002F24  1809               	xorwf	(___fleq@ff1+2)^0,w,c
  6799  002F26  E109               	bnz	u3490
  6800  002F28  500E               	movf	(___fleq@ff2+3)^0,w,c
  6801  002F2A  180A               	xorwf	(___fleq@ff1+3)^0,w,c
  6802  002F2C  B4D8               	btfsc	status,2,c
  6803  002F2E  EF9B  F017         	goto	u3491
  6804  002F32  EF9D  F017         	goto	u3490
  6805  002F36                     u3491:
  6806  002F36  EFA0  F017         	goto	l3188
  6807  002F3A                     u3490:
  6808  002F3A  90D8               	bcf	status,0,c
  6809  002F3C  EFA1  F017         	goto	l425
  6810  002F40                     l3188:
  6811  002F40  80D8               	bsf	status,0,c
  6812  002F42                     l425:
  6813  002F42  0012               	return		;funcret
  6814  002F44                     __end_of___fleq:
  6815                           	callstack 0
  6816                           
  6817 ;; *************** function _LCD_XY *****************
  6818 ;; Defined at:
  6819 ;;		line 85 in file "LCD_lib.c"
  6820 ;; Parameters:    Size  Location     Type
  6821 ;;  x               2   18[COMRAM] int 
  6822 ;;  y               2   20[COMRAM] int 
  6823 ;; Auto vars:     Size  Location     Type
  6824 ;;		None
  6825 ;; Return value:  Size  Location     Type
  6826 ;;                  1    wreg      void 
  6827 ;; Registers used:
  6828 ;;		wreg, status,2, status,0, cstack
  6829 ;; Tracked objects:
  6830 ;;		On entry : 0/0
  6831 ;;		On exit  : 0/0
  6832 ;;		Unchanged: 0/0
  6833 ;; Data sizes:     COMRAM   BANK0   BANK1   BANK2   BANK3   BANK4   BANK5   BANK6   BANK7
  6834 ;;      Params:         4       0       0       0       0       0       0       0       0
  6835 ;;      Locals:         0       0       0       0       0       0       0       0       0
  6836 ;;      Temps:          0       0       0       0       0       0       0       0       0
  6837 ;;      Totals:         4       0       0       0       0       0       0       0       0
  6838 ;;Total ram usage:        4 bytes
  6839 ;; Hardware stack levels used: 1
  6840 ;; Hardware stack levels required when called: 1
  6841 ;; This function calls:
  6842 ;;		_LCD_Comando
  6843 ;; This function is called by:
  6844 ;;		_cancion1
  6845 ;; This function uses a non-reentrant model
  6846 ;;
  6847                           
  6848                           	psect	text28
  6849  0032D8                     __ptext28:
  6850                           	callstack 0
  6851  0032D8                     _LCD_XY:
  6852                           	callstack 28
  6853  0032D8                     
  6854                           ;LCD_lib.c: 86:     if(x>0){
  6855  0032D8  BE14               	btfsc	(LCD_XY@x+1)^0,7,c
  6856  0032DA  EF77  F019         	goto	u3111
  6857  0032DE  5014               	movf	(LCD_XY@x+1)^0,w,c
  6858  0032E0  E108               	bnz	u3110
  6859  0032E2  0413               	decf	LCD_XY@x^0,w,c
  6860  0032E4  A0D8               	btfss	status,0,c
  6861  0032E6  EF77  F019         	goto	u3111
  6862  0032EA  EF79  F019         	goto	u3110
  6863  0032EE                     u3111:
  6864  0032EE  EF7F  F019         	goto	l2970
  6865  0032F2                     u3110:
  6866  0032F2                     
  6867                           ;LCD_lib.c: 87:         LCD_Comando(0xC0+y);
  6868  0032F2  5015               	movf	LCD_XY@y^0,w,c
  6869  0032F4  0FC0               	addlw	192
  6870  0032F6  ECA8  F018         	call	_LCD_Comando
  6871                           
  6872                           ;LCD_lib.c: 88:     }
  6873  0032FA  EF83  F019         	goto	l25
  6874  0032FE                     l2970:
  6875                           
  6876                           ;LCD_lib.c: 90:         LCD_Comando(0x80+y);
  6877  0032FE  5015               	movf	LCD_XY@y^0,w,c
  6878  003300  0F80               	addlw	128
  6879  003302  ECA8  F018         	call	_LCD_Comando
  6880  003306                     l25:
  6881  003306  0012               	return		;funcret
  6882  003308                     __end_of_LCD_XY:
  6883                           	callstack 0
  6884                           
  6885 ;; *************** function _LCD_Cadena *****************
  6886 ;; Defined at:
  6887 ;;		line 94 in file "LCD_lib.c"
  6888 ;; Parameters:    Size  Location     Type
  6889 ;;  dato            2    1[COMRAM] PTR const unsigned char 
  6890 ;;		 -> buffer1(23), 
  6891 ;; Auto vars:     Size  Location     Type
  6892 ;;		None
  6893 ;; Return value:  Size  Location     Type
  6894 ;;                  1    wreg      void 
  6895 ;; Registers used:
  6896 ;;		wreg, fsr2l, fsr2h, status,2, status,0, cstack
  6897 ;; Tracked objects:
  6898 ;;		On entry : 0/0
  6899 ;;		On exit  : 0/0
  6900 ;;		Unchanged: 0/0
  6901 ;; Data sizes:     COMRAM   BANK0   BANK1   BANK2   BANK3   BANK4   BANK5   BANK6   BANK7
  6902 ;;      Params:         2       0       0       0       0       0       0       0       0
  6903 ;;      Locals:         0       0       0       0       0       0       0       0       0
  6904 ;;      Temps:          0       0       0       0       0       0       0       0       0
  6905 ;;      Totals:         2       0       0       0       0       0       0       0       0
  6906 ;;Total ram usage:        2 bytes
  6907 ;; Hardware stack levels used: 1
  6908 ;; Hardware stack levels required when called: 1
  6909 ;; This function calls:
  6910 ;;		_LCD_Data
  6911 ;; This function is called by:
  6912 ;;		_cancion1
  6913 ;; This function uses a non-reentrant model
  6914 ;;
  6915                           
  6916                           	psect	text29
  6917  00326A                     __ptext29:
  6918                           	callstack 0
  6919  00326A                     _LCD_Cadena:
  6920                           	callstack 28
  6921  00326A                     
  6922                           ;LCD_lib.c: 95:     while(*dato){
  6923  00326A  EF44  F019         	goto	l2980
  6924  00326E                     l2974:
  6925                           
  6926                           ;LCD_lib.c: 96:         _delay((unsigned long)((100)*(20000000/4000000.0)));
  6927  00326E  0EA6               	movlw	166
  6928  003270                     u3637:
  6929  003270  2EE8               	decfsz	wreg,f,c
  6930  003272  D7FE               	bra	u3637
  6931  003274  D000               	nop2	
  6932  003276                     
  6933                           ;LCD_lib.c: 97:         LCD_Data(*dato);
  6934  003276  C002  FFD9         	movff	LCD_Cadena@dato,fsr2l
  6935  00327A  C003  FFDA         	movff	LCD_Cadena@dato+1,fsr2h
  6936  00327E  50DF               	movf	indf2,w,c
  6937  003280  EC53  F018         	call	_LCD_Data
  6938  003284                     
  6939                           ;LCD_lib.c: 98:         dato++;
  6940  003284  4A02               	infsnz	LCD_Cadena@dato^0,f,c
  6941  003286  2A03               	incf	(LCD_Cadena@dato+1)^0,f,c
  6942  003288                     l2980:
  6943                           
  6944                           ;LCD_lib.c: 95:     while(*dato){
  6945  003288  C002  FFD9         	movff	LCD_Cadena@dato,fsr2l
  6946  00328C  C003  FFDA         	movff	LCD_Cadena@dato+1,fsr2h
  6947  003290  50DF               	movf	indf2,w,c
  6948  003292  A4D8               	btfss	status,2,c
  6949  003294  EF4E  F019         	goto	u3121
  6950  003298  EF50  F019         	goto	u3120
  6951  00329C                     u3121:
  6952  00329C  EF37  F019         	goto	l2974
  6953  0032A0                     u3120:
  6954  0032A0  0012               	return		;funcret
  6955  0032A2                     __end_of_LCD_Cadena:
  6956                           	callstack 0
  6957                           
  6958 ;; *************** function _P1 *****************
  6959 ;; Defined at:
  6960 ;;		line 23 in file "main.c"
  6961 ;; Parameters:    Size  Location     Type
  6962 ;;		None
  6963 ;; Auto vars:     Size  Location     Type
  6964 ;;		None
  6965 ;; Return value:  Size  Location     Type
  6966 ;;                  1    wreg      void 
  6967 ;; Registers used:
  6968 ;;		wreg, status,2, status,0, cstack
  6969 ;; Tracked objects:
  6970 ;;		On entry : 0/0
  6971 ;;		On exit  : 0/0
  6972 ;;		Unchanged: 0/0
  6973 ;; Data sizes:     COMRAM   BANK0   BANK1   BANK2   BANK3   BANK4   BANK5   BANK6   BANK7
  6974 ;;      Params:         0       0       0       0       0       0       0       0       0
  6975 ;;      Locals:         0       0       0       0       0       0       0       0       0
  6976 ;;      Temps:          0       0       0       0       0       0       0       0       0
  6977 ;;      Totals:         0       0       0       0       0       0       0       0       0
  6978 ;;Total ram usage:        0 bytes
  6979 ;; Hardware stack levels used: 1
  6980 ;; Hardware stack levels required when called: 1
  6981 ;; This function calls:
  6982 ;;		_LCD_Comando
  6983 ;;		_LCD_Data
  6984 ;; This function is called by:
  6985 ;;		_main
  6986 ;; This function uses a non-reentrant model
  6987 ;;
  6988                           
  6989                           	psect	text30
  6990  002F44                     __ptext30:
  6991                           	callstack 0
  6992  002F44                     _P1:
  6993                           	callstack 29
  6994  002F44                     
  6995                           ;main.c: 24:     LCD_Comando(1);
  6996  002F44  0E01               	movlw	1
  6997  002F46  ECA8  F018         	call	_LCD_Comando
  6998                           
  6999                           ;main.c: 25:     LCD_Comando(0b01000000);
  7000  002F4A  0E40               	movlw	64
  7001  002F4C  ECA8  F018         	call	_LCD_Comando
  7002                           
  7003                           ;main.c: 26:     LCD_Data(0b00011111);
  7004  002F50  0E1F               	movlw	31
  7005  002F52  EC53  F018         	call	_LCD_Data
  7006                           
  7007                           ;main.c: 27:     LCD_Data(0b00010101);
  7008  002F56  0E15               	movlw	21
  7009  002F58  EC53  F018         	call	_LCD_Data
  7010                           
  7011                           ;main.c: 28:     LCD_Data(0b00011111);
  7012  002F5C  0E1F               	movlw	31
  7013  002F5E  EC53  F018         	call	_LCD_Data
  7014                           
  7015                           ;main.c: 29:     LCD_Data(0b00001110);
  7016  002F62  0E0E               	movlw	14
  7017  002F64  EC53  F018         	call	_LCD_Data
  7018                           
  7019                           ;main.c: 30:     LCD_Data(0b00010101);
  7020  002F68  0E15               	movlw	21
  7021  002F6A  EC53  F018         	call	_LCD_Data
  7022                           
  7023                           ;main.c: 31:     LCD_Data(0b00001110);
  7024  002F6E  0E0E               	movlw	14
  7025  002F70  EC53  F018         	call	_LCD_Data
  7026                           
  7027                           ;main.c: 32:     LCD_Data(0b00011011);
  7028  002F74  0E1B               	movlw	27
  7029  002F76  EC53  F018         	call	_LCD_Data
  7030                           
  7031                           ;main.c: 33:     LCD_Data(0b00000000);
  7032  002F7A  0E00               	movlw	0
  7033  002F7C  EC53  F018         	call	_LCD_Data
  7034                           
  7035                           ;main.c: 34:     LCD_Data(0b00000111);
  7036  002F80  0E07               	movlw	7
  7037  002F82  EC53  F018         	call	_LCD_Data
  7038                           
  7039                           ;main.c: 35:     LCD_Data(0b00000010);
  7040  002F86  0E02               	movlw	2
  7041  002F88  EC53  F018         	call	_LCD_Data
  7042                           
  7043                           ;main.c: 36:     LCD_Data(0b00011111);
  7044  002F8C  0E1F               	movlw	31
  7045  002F8E  EC53  F018         	call	_LCD_Data
  7046                           
  7047                           ;main.c: 37:     LCD_Data(0b00000111);
  7048  002F92  0E07               	movlw	7
  7049  002F94  EC53  F018         	call	_LCD_Data
  7050                           
  7051                           ;main.c: 38:     LCD_Data(0b00000111);
  7052  002F98  0E07               	movlw	7
  7053  002F9A  EC53  F018         	call	_LCD_Data
  7054                           
  7055                           ;main.c: 39:     LCD_Data(0b00000101);
  7056  002F9E  0E05               	movlw	5
  7057  002FA0  EC53  F018         	call	_LCD_Data
  7058                           
  7059                           ;main.c: 40:     LCD_Data(0b00011011);
  7060  002FA4  0E1B               	movlw	27
  7061  002FA6  EC53  F018         	call	_LCD_Data
  7062                           
  7063                           ;main.c: 41:     LCD_Data(0b00000000);
  7064  002FAA  0E00               	movlw	0
  7065  002FAC  EC53  F018         	call	_LCD_Data
  7066                           
  7067                           ;main.c: 42:     LCD_Data(0b00011100);
  7068  002FB0  0E1C               	movlw	28
  7069  002FB2  EC53  F018         	call	_LCD_Data
  7070                           
  7071                           ;main.c: 43:     LCD_Data(0b00001000);
  7072  002FB6  0E08               	movlw	8
  7073  002FB8  EC53  F018         	call	_LCD_Data
  7074                           
  7075                           ;main.c: 44:     LCD_Data(0b00011111);
  7076  002FBC  0E1F               	movlw	31
  7077  002FBE  EC53  F018         	call	_LCD_Data
  7078                           
  7079                           ;main.c: 45:     LCD_Data(0b00011100);
  7080  002FC2  0E1C               	movlw	28
  7081  002FC4  EC53  F018         	call	_LCD_Data
  7082                           
  7083                           ;main.c: 46:     LCD_Data(0b00011100);
  7084  002FC8  0E1C               	movlw	28
  7085  002FCA  EC53  F018         	call	_LCD_Data
  7086                           
  7087                           ;main.c: 47:     LCD_Data(0b00010100);
  7088  002FCE  0E14               	movlw	20
  7089  002FD0  EC53  F018         	call	_LCD_Data
  7090                           
  7091                           ;main.c: 48:     LCD_Data(0b00011011);
  7092  002FD4  0E1B               	movlw	27
  7093  002FD6  EC53  F018         	call	_LCD_Data
  7094                           
  7095                           ;main.c: 49:     LCD_Data(0b00000000);
  7096  002FDA  0E00               	movlw	0
  7097  002FDC  EC53  F018         	call	_LCD_Data
  7098  002FE0  0012               	return		;funcret
  7099  002FE2                     __end_of_P1:
  7100                           	callstack 0
  7101                           
  7102 ;; *************** function _LCD_Data *****************
  7103 ;; Defined at:
  7104 ;;		line 102 in file "LCD_lib.c"
  7105 ;; Parameters:    Size  Location     Type
  7106 ;;  data            1    wreg     unsigned char 
  7107 ;; Auto vars:     Size  Location     Type
  7108 ;;  data            1    0[COMRAM] unsigned char 
  7109 ;; Return value:  Size  Location     Type
  7110 ;;                  1    wreg      void 
  7111 ;; Registers used:
  7112 ;;		wreg, status,2, status,0
  7113 ;; Tracked objects:
  7114 ;;		On entry : 0/0
  7115 ;;		On exit  : 0/0
  7116 ;;		Unchanged: 0/0
  7117 ;; Data sizes:     COMRAM   BANK0   BANK1   BANK2   BANK3   BANK4   BANK5   BANK6   BANK7
  7118 ;;      Params:         0       0       0       0       0       0       0       0       0
  7119 ;;      Locals:         1       0       0       0       0       0       0       0       0
  7120 ;;      Temps:          0       0       0       0       0       0       0       0       0
  7121 ;;      Totals:         1       0       0       0       0       0       0       0       0
  7122 ;;Total ram usage:        1 bytes
  7123 ;; Hardware stack levels used: 1
  7124 ;; This function calls:
  7125 ;;		Nothing
  7126 ;; This function is called by:
  7127 ;;		_LCD_Cadena
  7128 ;;		_P1
  7129 ;;		_cancion1
  7130 ;; This function uses a non-reentrant model
  7131 ;;
  7132                           
  7133                           	psect	text31
  7134  0030A6                     __ptext31:
  7135                           	callstack 0
  7136  0030A6                     _LCD_Data:
  7137                           	callstack 29
  7138                           
  7139                           ;incstack = 0
  7140                           ;LCD_Data@data stored from wreg
  7141  0030A6  6E01               	movwf	LCD_Data@data^0,c
  7142  0030A8                     
  7143                           ;LCD_lib.c: 103:     _delay((unsigned long)((100)*(20000000/4000000.0)));
  7144  0030A8  0EA6               	movlw	166
  7145  0030AA                     u3647:
  7146  0030AA  2EE8               	decfsz	wreg,f,c
  7147  0030AC  D7FE               	bra	u3647
  7148  0030AE  D000               	nop2	
  7149  0030B0                     
  7150                           ;LCD_lib.c: 104:     PORTD &= 0xf0;
  7151  0030B0  0EF0               	movlw	240
  7152  0030B2  1683               	andwf	131,f,c	;volatile
  7153  0030B4                     
  7154                           ;LCD_lib.c: 105:     TRISD &= 0xf0;
  7155  0030B4  0EF0               	movlw	240
  7156  0030B6  1695               	andwf	149,f,c	;volatile
  7157  0030B8                     
  7158                           ;LCD_lib.c: 107:     PORTD = PORTD | ((data>>4)&0x0f);
  7159  0030B8  3801               	swapf	LCD_Data@data^0,w,c
  7160  0030BA  0B0F               	andlw	15
  7161  0030BC  0B0F               	andlw	15
  7162  0030BE  1083               	iorwf	131,w,c	;volatile
  7163  0030C0  6E83               	movwf	131,c	;volatile
  7164  0030C2                     
  7165                           ;LCD_lib.c: 109:     LATDbits.LATD6 = 0;
  7166  0030C2  9C8C               	bcf	140,6,c	;volatile
  7167  0030C4                     
  7168                           ;LCD_lib.c: 110:     LATDbits.LATD5 = 1;
  7169  0030C4  8A8C               	bsf	140,5,c	;volatile
  7170  0030C6                     
  7171                           ;LCD_lib.c: 111:     _delay((unsigned long)((5)*(20000000/4000000.0)));
  7172  0030C6  0E08               	movlw	8
  7173  0030C8                     u3657:
  7174  0030C8  2EE8               	decfsz	wreg,f,c
  7175  0030CA  D7FE               	bra	u3657
  7176  0030CC  F000               	nop	
  7177  0030CE                     
  7178                           ;LCD_lib.c: 112:     LATDbits.LATD4 = 1;
  7179  0030CE  888C               	bsf	140,4,c	;volatile
  7180  0030D0                     
  7181                           ;LCD_lib.c: 113:     _delay((unsigned long)((5)*(20000000/4000000.0)));
  7182  0030D0  0E08               	movlw	8
  7183  0030D2                     u3667:
  7184  0030D2  2EE8               	decfsz	wreg,f,c
  7185  0030D4  D7FE               	bra	u3667
  7186  0030D6  F000               	nop	
  7187  0030D8                     
  7188                           ;LCD_lib.c: 114:     LATDbits.LATD4 = 0;
  7189  0030D8  988C               	bcf	140,4,c	;volatile
  7190  0030DA                     
  7191                           ;LCD_lib.c: 116:     PORTD &= 0xf0;
  7192  0030DA  0EF0               	movlw	240
  7193  0030DC  1683               	andwf	131,f,c	;volatile
  7194  0030DE                     
  7195                           ;LCD_lib.c: 117:     PORTD |= data&0x0f;
  7196  0030DE  5001               	movf	LCD_Data@data^0,w,c
  7197  0030E0  0B0F               	andlw	15
  7198  0030E2  1283               	iorwf	131,f,c	;volatile
  7199  0030E4                     
  7200                           ;LCD_lib.c: 119:     _delay((unsigned long)((5)*(20000000/4000000.0)));
  7201  0030E4  0E08               	movlw	8
  7202  0030E6                     u3677:
  7203  0030E6  2EE8               	decfsz	wreg,f,c
  7204  0030E8  D7FE               	bra	u3677
  7205  0030EA  F000               	nop	
  7206  0030EC                     
  7207                           ;LCD_lib.c: 120:     LATDbits.LATD4 = 1;
  7208  0030EC  888C               	bsf	140,4,c	;volatile
  7209  0030EE                     
  7210                           ;LCD_lib.c: 121:     _delay((unsigned long)((5)*(20000000/4000000.0)));
  7211  0030EE  0E08               	movlw	8
  7212  0030F0                     u3687:
  7213  0030F0  2EE8               	decfsz	wreg,f,c
  7214  0030F2  D7FE               	bra	u3687
  7215  0030F4  F000               	nop	
  7216  0030F6                     
  7217                           ;LCD_lib.c: 122:     LATDbits.LATD4 = 0;
  7218  0030F6  988C               	bcf	140,4,c	;volatile
  7219  0030F8                     
  7220                           ;LCD_lib.c: 124:     TRISD |= 0x0f;
  7221  0030F8  0E0F               	movlw	15
  7222  0030FA  1295               	iorwf	149,f,c	;volatile
  7223  0030FC  0012               	return		;funcret
  7224  0030FE                     __end_of_LCD_Data:
  7225                           	callstack 0
  7226                           
  7227 ;; *************** function _LCD_Init *****************
  7228 ;; Defined at:
  7229 ;;		line 5 in file "LCD_lib.c"
  7230 ;; Parameters:    Size  Location     Type
  7231 ;;		None
  7232 ;; Auto vars:     Size  Location     Type
  7233 ;;		None
  7234 ;; Return value:  Size  Location     Type
  7235 ;;                  1    wreg      void 
  7236 ;; Registers used:
  7237 ;;		wreg, status,2, status,0, cstack
  7238 ;; Tracked objects:
  7239 ;;		On entry : 0/0
  7240 ;;		On exit  : 0/0
  7241 ;;		Unchanged: 0/0
  7242 ;; Data sizes:     COMRAM   BANK0   BANK1   BANK2   BANK3   BANK4   BANK5   BANK6   BANK7
  7243 ;;      Params:         0       0       0       0       0       0       0       0       0
  7244 ;;      Locals:         0       0       0       0       0       0       0       0       0
  7245 ;;      Temps:          1       0       0       0       0       0       0       0       0
  7246 ;;      Totals:         1       0       0       0       0       0       0       0       0
  7247 ;;Total ram usage:        1 bytes
  7248 ;; Hardware stack levels used: 1
  7249 ;; Hardware stack levels required when called: 1
  7250 ;; This function calls:
  7251 ;;		_LCD_Comando
  7252 ;; This function is called by:
  7253 ;;		_main
  7254 ;; This function uses a non-reentrant model
  7255 ;;
  7256                           
  7257                           	psect	text32
  7258  002D2C                     __ptext32:
  7259                           	callstack 0
  7260  002D2C                     _LCD_Init:
  7261                           	callstack 29
  7262  002D2C                     
  7263                           ;LCD_lib.c: 7:     PORTD = PORTD & 0xf0;
  7264  002D2C  5083               	movf	131,w,c	;volatile
  7265  002D2E  0BF0               	andlw	240
  7266  002D30  6E83               	movwf	131,c	;volatile
  7267                           
  7268                           ;LCD_lib.c: 12:     TRISD &= 0xf0;
  7269  002D32  0EF0               	movlw	240
  7270  002D34  1695               	andwf	149,f,c	;volatile
  7271  002D36                     
  7272                           ;LCD_lib.c: 14:     TRISDbits.RD6 = 0;
  7273  002D36  9C95               	bcf	149,6,c	;volatile
  7274  002D38                     
  7275                           ;LCD_lib.c: 15:     TRISDbits.RD5 = 0;
  7276  002D38  9A95               	bcf	149,5,c	;volatile
  7277  002D3A                     
  7278                           ;LCD_lib.c: 16:     TRISDbits.RD4 = 0;
  7279  002D3A  9895               	bcf	149,4,c	;volatile
  7280  002D3C                     
  7281                           ;LCD_lib.c: 18:     LATDbits.LATD6 = 0;
  7282  002D3C  9C8C               	bcf	140,6,c	;volatile
  7283  002D3E                     
  7284                           ;LCD_lib.c: 19:     LATDbits.LATD5 = 0;
  7285  002D3E  9A8C               	bcf	140,5,c	;volatile
  7286  002D40                     
  7287                           ;LCD_lib.c: 20:     LATDbits.LATD4 = 0;
  7288  002D40  988C               	bcf	140,4,c	;volatile
  7289  002D42                     
  7290                           ;LCD_lib.c: 22:     _delay((unsigned long)((15)*(20000000/4000.0)));
  7291  002D42  0E62               	movlw	98
  7292  002D44  6E02               	movwf	??_LCD_Init^0,c
  7293  002D46  0E66               	movlw	102
  7294  002D48                     u3697:
  7295  002D48  2EE8               	decfsz	wreg,f,c
  7296  002D4A  D7FE               	bra	u3697
  7297  002D4C  2E02               	decfsz	??_LCD_Init^0,f,c
  7298  002D4E  D7FC               	bra	u3697
  7299  002D50                     
  7300                           ;LCD_lib.c: 24:     LCD_Comando(0x30);
  7301  002D50  0E30               	movlw	48
  7302  002D52  ECA8  F018         	call	_LCD_Comando
  7303  002D56                     
  7304                           ;LCD_lib.c: 25:     _delay((unsigned long)((5)*(20000000/4000.0)));
  7305  002D56  0E21               	movlw	33
  7306  002D58  6E02               	movwf	??_LCD_Init^0,c
  7307  002D5A  0E76               	movlw	118
  7308  002D5C                     u3707:
  7309  002D5C  2EE8               	decfsz	wreg,f,c
  7310  002D5E  D7FE               	bra	u3707
  7311  002D60  2E02               	decfsz	??_LCD_Init^0,f,c
  7312  002D62  D7FC               	bra	u3707
  7313  002D64  D000               	nop2	
  7314  002D66                     
  7315                           ;LCD_lib.c: 26:     LCD_Comando(0x30);
  7316  002D66  0E30               	movlw	48
  7317  002D68  ECA8  F018         	call	_LCD_Comando
  7318  002D6C                     
  7319                           ;LCD_lib.c: 27:     _delay((unsigned long)((100)*(20000000/4000000.0)));
  7320  002D6C  0EA6               	movlw	166
  7321  002D6E                     u3717:
  7322  002D6E  2EE8               	decfsz	wreg,f,c
  7323  002D70  D7FE               	bra	u3717
  7324  002D72  D000               	nop2	
  7325  002D74                     
  7326                           ;LCD_lib.c: 28:     LCD_Comando(0x32);
  7327  002D74  0E32               	movlw	50
  7328  002D76  ECA8  F018         	call	_LCD_Comando
  7329  002D7A                     
  7330                           ;LCD_lib.c: 29:     _delay((unsigned long)((100)*(20000000/4000000.0)));
  7331  002D7A  0EA6               	movlw	166
  7332  002D7C                     u3727:
  7333  002D7C  2EE8               	decfsz	wreg,f,c
  7334  002D7E  D7FE               	bra	u3727
  7335  002D80  D000               	nop2	
  7336  002D82                     
  7337                           ;LCD_lib.c: 32:     _delay((unsigned long)((100)*(20000000/4000000.0)));
  7338  002D82  0EA6               	movlw	166
  7339  002D84                     u3737:
  7340  002D84  2EE8               	decfsz	wreg,f,c
  7341  002D86  D7FE               	bra	u3737
  7342  002D88  D000               	nop2	
  7343  002D8A                     
  7344                           ;LCD_lib.c: 33:     LCD_Comando(0x28);
  7345  002D8A  0E28               	movlw	40
  7346  002D8C  ECA8  F018         	call	_LCD_Comando
  7347  002D90                     
  7348                           ;LCD_lib.c: 34:     _delay((unsigned long)((100)*(20000000/4000000.0)));
  7349  002D90  0EA6               	movlw	166
  7350  002D92                     u3747:
  7351  002D92  2EE8               	decfsz	wreg,f,c
  7352  002D94  D7FE               	bra	u3747
  7353  002D96  D000               	nop2	
  7354  002D98                     
  7355                           ;LCD_lib.c: 35:     LCD_Comando(0x08);
  7356  002D98  0E08               	movlw	8
  7357  002D9A  ECA8  F018         	call	_LCD_Comando
  7358  002D9E                     
  7359                           ;LCD_lib.c: 36:     _delay((unsigned long)((100)*(20000000/4000000.0)));
  7360  002D9E  0EA6               	movlw	166
  7361  002DA0                     u3757:
  7362  002DA0  2EE8               	decfsz	wreg,f,c
  7363  002DA2  D7FE               	bra	u3757
  7364  002DA4  D000               	nop2	
  7365  002DA6                     
  7366                           ;LCD_lib.c: 37:     LCD_Comando(0x0f);
  7367  002DA6  0E0F               	movlw	15
  7368  002DA8  ECA8  F018         	call	_LCD_Comando
  7369  002DAC                     
  7370                           ;LCD_lib.c: 38:     _delay((unsigned long)((100)*(20000000/4000000.0)));
  7371  002DAC  0EA6               	movlw	166
  7372  002DAE                     u3767:
  7373  002DAE  2EE8               	decfsz	wreg,f,c
  7374  002DB0  D7FE               	bra	u3767
  7375  002DB2  D000               	nop2	
  7376  002DB4                     
  7377                           ;LCD_lib.c: 39:     LCD_Comando(0x01);
  7378  002DB4  0E01               	movlw	1
  7379  002DB6  ECA8  F018         	call	_LCD_Comando
  7380  002DBA                     
  7381                           ;LCD_lib.c: 40:     _delay((unsigned long)((100)*(20000000/4000000.0)));
  7382  002DBA  0EA6               	movlw	166
  7383  002DBC                     u3777:
  7384  002DBC  2EE8               	decfsz	wreg,f,c
  7385  002DBE  D7FE               	bra	u3777
  7386  002DC0  D000               	nop2	
  7387  002DC2                     
  7388                           ;LCD_lib.c: 41:     LCD_Comando(0x04);
  7389  002DC2  0E04               	movlw	4
  7390  002DC4  ECA8  F018         	call	_LCD_Comando
  7391  002DC8                     
  7392                           ;LCD_lib.c: 42:     _delay((unsigned long)((100)*(20000000/4000000.0)));
  7393  002DC8  0EA6               	movlw	166
  7394  002DCA                     u3787:
  7395  002DCA  2EE8               	decfsz	wreg,f,c
  7396  002DCC  D7FE               	bra	u3787
  7397  002DCE  D000               	nop2	
  7398  002DD0                     
  7399                           ;LCD_lib.c: 44:     _delay((unsigned long)((100)*(20000000/4000000.0)));
  7400  002DD0  0EA6               	movlw	166
  7401  002DD2                     u3797:
  7402  002DD2  2EE8               	decfsz	wreg,f,c
  7403  002DD4  D7FE               	bra	u3797
  7404  002DD6  D000               	nop2	
  7405  002DD8                     
  7406                           ;LCD_lib.c: 45:     LCD_Comando(0x06);
  7407  002DD8  0E06               	movlw	6
  7408  002DDA  ECA8  F018         	call	_LCD_Comando
  7409  002DDE                     
  7410                           ;LCD_lib.c: 46:     LCD_Comando(0x0C);
  7411  002DDE  0E0C               	movlw	12
  7412  002DE0  ECA8  F018         	call	_LCD_Comando
  7413  002DE4  0012               	return		;funcret
  7414  002DE6                     __end_of_LCD_Init:
  7415                           	callstack 0
  7416                           
  7417 ;; *************** function _LCD_Comando *****************
  7418 ;; Defined at:
  7419 ;;		line 51 in file "LCD_lib.c"
  7420 ;; Parameters:    Size  Location     Type
  7421 ;;  cmd             1    wreg     unsigned char 
  7422 ;; Auto vars:     Size  Location     Type
  7423 ;;  cmd             1    0[COMRAM] unsigned char 
  7424 ;; Return value:  Size  Location     Type
  7425 ;;                  1    wreg      void 
  7426 ;; Registers used:
  7427 ;;		wreg, status,2, status,0
  7428 ;; Tracked objects:
  7429 ;;		On entry : 0/0
  7430 ;;		On exit  : 0/0
  7431 ;;		Unchanged: 0/0
  7432 ;; Data sizes:     COMRAM   BANK0   BANK1   BANK2   BANK3   BANK4   BANK5   BANK6   BANK7
  7433 ;;      Params:         0       0       0       0       0       0       0       0       0
  7434 ;;      Locals:         1       0       0       0       0       0       0       0       0
  7435 ;;      Temps:          0       0       0       0       0       0       0       0       0
  7436 ;;      Totals:         1       0       0       0       0       0       0       0       0
  7437 ;;Total ram usage:        1 bytes
  7438 ;; Hardware stack levels used: 1
  7439 ;; This function calls:
  7440 ;;		Nothing
  7441 ;; This function is called by:
  7442 ;;		_LCD_Init
  7443 ;;		_LCD_XY
  7444 ;;		_P1
  7445 ;;		_cancion1
  7446 ;; This function uses a non-reentrant model
  7447 ;;
  7448                           
  7449                           	psect	text33
  7450  003150                     __ptext33:
  7451                           	callstack 0
  7452  003150                     _LCD_Comando:
  7453                           	callstack 28
  7454                           
  7455                           ;incstack = 0
  7456                           ;LCD_Comando@cmd stored from wreg
  7457  003150  6E01               	movwf	LCD_Comando@cmd^0,c
  7458  003152                     
  7459                           ;LCD_lib.c: 53:     PORTD &= 0xf0;
  7460  003152  0EF0               	movlw	240
  7461  003154  1683               	andwf	131,f,c	;volatile
  7462                           
  7463                           ;LCD_lib.c: 54:     TRISD &= 0xf0;
  7464  003156  0EF0               	movlw	240
  7465  003158  1695               	andwf	149,f,c	;volatile
  7466                           
  7467                           ;LCD_lib.c: 57:     PORTD = PORTD | ((cmd>>4)&0x0f);
  7468  00315A  3801               	swapf	LCD_Comando@cmd^0,w,c
  7469  00315C  0B0F               	andlw	15
  7470  00315E  0B0F               	andlw	15
  7471  003160  1083               	iorwf	131,w,c	;volatile
  7472  003162  6E83               	movwf	131,c	;volatile
  7473  003164                     
  7474                           ;LCD_lib.c: 65:     LATDbits.LATD6 = 0;
  7475  003164  9C8C               	bcf	140,6,c	;volatile
  7476  003166                     
  7477                           ;LCD_lib.c: 66:     LATDbits.LATD5 = 0;
  7478  003166  9A8C               	bcf	140,5,c	;volatile
  7479  003168                     
  7480                           ;LCD_lib.c: 67:     _delay((unsigned long)((5)*(20000000/4000000.0)));
  7481  003168  0E08               	movlw	8
  7482  00316A                     u3807:
  7483  00316A  2EE8               	decfsz	wreg,f,c
  7484  00316C  D7FE               	bra	u3807
  7485  00316E  F000               	nop	
  7486  003170                     
  7487                           ;LCD_lib.c: 68:     LATDbits.LATD4 = 1;
  7488  003170  888C               	bsf	140,4,c	;volatile
  7489  003172                     
  7490                           ;LCD_lib.c: 69:     _delay((unsigned long)((5)*(20000000/4000000.0)));
  7491  003172  0E08               	movlw	8
  7492  003174                     u3817:
  7493  003174  2EE8               	decfsz	wreg,f,c
  7494  003176  D7FE               	bra	u3817
  7495  003178  F000               	nop	
  7496  00317A                     
  7497                           ;LCD_lib.c: 70:     LATDbits.LATD4 = 0;
  7498  00317A  988C               	bcf	140,4,c	;volatile
  7499                           
  7500                           ;LCD_lib.c: 73:     PORTD &= 0xf0;
  7501  00317C  0EF0               	movlw	240
  7502  00317E  1683               	andwf	131,f,c	;volatile
  7503                           
  7504                           ;LCD_lib.c: 74:     PORTD |= cmd&0x0f;
  7505  003180  5001               	movf	LCD_Comando@cmd^0,w,c
  7506  003182  0B0F               	andlw	15
  7507  003184  1283               	iorwf	131,f,c	;volatile
  7508  003186                     
  7509                           ;LCD_lib.c: 75:     _delay((unsigned long)((5)*(20000000/4000000.0)));
  7510  003186  0E08               	movlw	8
  7511  003188                     u3827:
  7512  003188  2EE8               	decfsz	wreg,f,c
  7513  00318A  D7FE               	bra	u3827
  7514  00318C  F000               	nop	
  7515  00318E                     
  7516                           ;LCD_lib.c: 76:     LATDbits.LATD4 = 1;
  7517  00318E  888C               	bsf	140,4,c	;volatile
  7518  003190                     
  7519                           ;LCD_lib.c: 77:     _delay((unsigned long)((5)*(20000000/4000000.0)));
  7520  003190  0E08               	movlw	8
  7521  003192                     u3837:
  7522  003192  2EE8               	decfsz	wreg,f,c
  7523  003194  D7FE               	bra	u3837
  7524  003196  F000               	nop	
  7525  003198                     
  7526                           ;LCD_lib.c: 78:     LATDbits.LATD4 = 0;
  7527  003198  988C               	bcf	140,4,c	;volatile
  7528                           
  7529                           ;LCD_lib.c: 80:     TRISD |= 0x0f;
  7530  00319A  0E0F               	movlw	15
  7531  00319C  1295               	iorwf	149,f,c	;volatile
  7532  00319E  0012               	return		;funcret
  7533  0031A0                     __end_of_LCD_Comando:
  7534                           	callstack 0
  7535                           
  7536                           	psect	rparam
  7537  0000                     
  7538                           	psect	idloc
  7539                           
  7540                           ;Config register IDLOC0 @ 0x200000
  7541                           ;	unspecified, using default values
  7542  200000                     	org	2097152
  7543  200000  FF                 	db	255
  7544                           
  7545                           ;Config register IDLOC1 @ 0x200001
  7546                           ;	unspecified, using default values
  7547  200001                     	org	2097153
  7548  200001  FF                 	db	255
  7549                           
  7550                           ;Config register IDLOC2 @ 0x200002
  7551                           ;	unspecified, using default values
  7552  200002                     	org	2097154
  7553  200002  FF                 	db	255
  7554                           
  7555                           ;Config register IDLOC3 @ 0x200003
  7556                           ;	unspecified, using default values
  7557  200003                     	org	2097155
  7558  200003  FF                 	db	255
  7559                           
  7560                           ;Config register IDLOC4 @ 0x200004
  7561                           ;	unspecified, using default values
  7562  200004                     	org	2097156
  7563  200004  FF                 	db	255
  7564                           
  7565                           ;Config register IDLOC5 @ 0x200005
  7566                           ;	unspecified, using default values
  7567  200005                     	org	2097157
  7568  200005  FF                 	db	255
  7569                           
  7570                           ;Config register IDLOC6 @ 0x200006
  7571                           ;	unspecified, using default values
  7572  200006                     	org	2097158
  7573  200006  FF                 	db	255
  7574                           
  7575                           ;Config register IDLOC7 @ 0x200007
  7576                           ;	unspecified, using default values
  7577  200007                     	org	2097159
  7578  200007  FF                 	db	255
  7579                           
  7580                           	psect	config
  7581                           
  7582                           ;Config register CONFIG1L @ 0x300000
  7583                           ;	PLL Prescaler Selection bits
  7584                           ;	PLLDIV = 5, Divide by 5 (20 MHz oscillator input)
  7585                           ;	System Clock Postscaler Selection bits
  7586                           ;	CPUDIV = OSC1_PLL2, [Primary Oscillator Src: /1][96 MHz PLL Src: /2]
  7587                           ;	USB Clock Selection bit (used in Full-Speed USB mode only; UCFG:FSEN = 1)
  7588                           ;	USBDIV = 2, USB clock source comes from the 96 MHz PLL divided by 2
  7589  300000                     	org	3145728
  7590  300000  24                 	db	36
  7591                           
  7592                           ;Config register CONFIG1H @ 0x300001
  7593                           ;	Oscillator Selection bits
  7594                           ;	FOSC = HS, HS oscillator (HS)
  7595                           ;	Fail-Safe Clock Monitor Enable bit
  7596                           ;	FCMEN = OFF, Fail-Safe Clock Monitor disabled
  7597                           ;	Internal/External Oscillator Switchover bit
  7598                           ;	IESO = OFF, Oscillator Switchover mode disabled
  7599  300001                     	org	3145729
  7600  300001  0C                 	db	12
  7601                           
  7602                           ;Config register CONFIG2L @ 0x300002
  7603                           ;	Power-up Timer Enable bit
  7604                           ;	PWRT = OFF, PWRT disabled
  7605                           ;	Brown-out Reset Enable bits
  7606                           ;	BOR = ON, Brown-out Reset enabled in hardware only (SBOREN is disabled)
  7607                           ;	Brown-out Reset Voltage bits
  7608                           ;	BORV = 3, Minimum setting 2.05V
  7609                           ;	USB Voltage Regulator Enable bit
  7610                           ;	VREGEN = OFF, USB voltage regulator disabled
  7611  300002                     	org	3145730
  7612  300002  1F                 	db	31
  7613                           
  7614                           ;Config register CONFIG2H @ 0x300003
  7615                           ;	Watchdog Timer Enable bit
  7616                           ;	WDT = ON, WDT enabled
  7617                           ;	Watchdog Timer Postscale Select bits
  7618                           ;	WDTPS = 32768, 1:32768
  7619  300003                     	org	3145731
  7620  300003  1F                 	db	31
  7621                           
  7622                           ; Padding undefined space
  7623  300004                     	org	3145732
  7624  300004  FF                 	db	255
  7625                           
  7626                           ;Config register CONFIG3H @ 0x300005
  7627                           ;	CCP2 MUX bit
  7628                           ;	CCP2MX = ON, CCP2 input/output is multiplexed with RC1
  7629                           ;	PORTB A/D Enable bit
  7630                           ;	PBADEN = ON, PORTB<4:0> pins are configured as analog input channels on Reset
  7631                           ;	Low-Power Timer 1 Oscillator Enable bit
  7632                           ;	LPT1OSC = OFF, Timer1 configured for higher power operation
  7633                           ;	MCLR Pin Enable bit
  7634                           ;	MCLRE = ON, MCLR pin enabled; RE3 input pin disabled
  7635  300005                     	org	3145733
  7636  300005  83                 	db	131
  7637                           
  7638                           ;Config register CONFIG4L @ 0x300006
  7639                           ;	Stack Full/Underflow Reset Enable bit
  7640                           ;	STVREN = ON, Stack full/underflow will cause Reset
  7641                           ;	Single-Supply ICSP Enable bit
  7642                           ;	LVP = ON, Single-Supply ICSP enabled
  7643                           ;	Dedicated In-Circuit Debug/Programming Port (ICPORT) Enable bit
  7644                           ;	ICPRT = OFF, ICPORT disabled
  7645                           ;	Extended Instruction Set Enable bit
  7646                           ;	XINST = OFF, Instruction set extension and Indexed Addressing mode disabled (Legacy mo
      +                          de)
  7647                           ;	Background Debugger Enable bit
  7648                           ;	DEBUG = 0x1, unprogrammed default
  7649  300006                     	org	3145734
  7650  300006  85                 	db	133
  7651                           
  7652                           ; Padding undefined space
  7653  300007                     	org	3145735
  7654  300007  FF                 	db	255
  7655                           
  7656                           ;Config register CONFIG5L @ 0x300008
  7657                           ;	Code Protection bit
  7658                           ;	CP0 = OFF, Block 0 (000800-001FFFh) is not code-protected
  7659                           ;	Code Protection bit
  7660                           ;	CP1 = OFF, Block 1 (002000-003FFFh) is not code-protected
  7661                           ;	Code Protection bit
  7662                           ;	CP2 = OFF, Block 2 (004000-005FFFh) is not code-protected
  7663                           ;	Code Protection bit
  7664                           ;	CP3 = OFF, Block 3 (006000-007FFFh) is not code-protected
  7665  300008                     	org	3145736
  7666  300008  0F                 	db	15
  7667                           
  7668                           ;Config register CONFIG5H @ 0x300009
  7669                           ;	Boot Block Code Protection bit
  7670                           ;	CPB = OFF, Boot block (000000-0007FFh) is not code-protected
  7671                           ;	Data EEPROM Code Protection bit
  7672                           ;	CPD = OFF, Data EEPROM is not code-protected
  7673  300009                     	org	3145737
  7674  300009  C0                 	db	192
  7675                           
  7676                           ;Config register CONFIG6L @ 0x30000A
  7677                           ;	Write Protection bit
  7678                           ;	WRT0 = OFF, Block 0 (000800-001FFFh) is not write-protected
  7679                           ;	Write Protection bit
  7680                           ;	WRT1 = OFF, Block 1 (002000-003FFFh) is not write-protected
  7681                           ;	Write Protection bit
  7682                           ;	WRT2 = OFF, Block 2 (004000-005FFFh) is not write-protected
  7683                           ;	Write Protection bit
  7684                           ;	WRT3 = OFF, Block 3 (006000-007FFFh) is not write-protected
  7685  30000A                     	org	3145738
  7686  30000A  0F                 	db	15
  7687                           
  7688                           ;Config register CONFIG6H @ 0x30000B
  7689                           ;	Configuration Register Write Protection bit
  7690                           ;	WRTC = OFF, Configuration registers (300000-3000FFh) are not write-protected
  7691                           ;	Boot Block Write Protection bit
  7692                           ;	WRTB = OFF, Boot block (000000-0007FFh) is not write-protected
  7693                           ;	Data EEPROM Write Protection bit
  7694                           ;	WRTD = OFF, Data EEPROM is not write-protected
  7695  30000B                     	org	3145739
  7696  30000B  E0                 	db	224
  7697                           
  7698                           ;Config register CONFIG7L @ 0x30000C
  7699                           ;	Table Read Protection bit
  7700                           ;	EBTR0 = OFF, Block 0 (000800-001FFFh) is not protected from table reads executed in ot
      +                          her blocks
  7701                           ;	Table Read Protection bit
  7702                           ;	EBTR1 = OFF, Block 1 (002000-003FFFh) is not protected from table reads executed in ot
      +                          her blocks
  7703                           ;	Table Read Protection bit
  7704                           ;	EBTR2 = OFF, Block 2 (004000-005FFFh) is not protected from table reads executed in ot
      +                          her blocks
  7705                           ;	Table Read Protection bit
  7706                           ;	EBTR3 = OFF, Block 3 (006000-007FFFh) is not protected from table reads executed in ot
      +                          her blocks
  7707  30000C                     	org	3145740
  7708  30000C  0F                 	db	15
  7709                           
  7710                           ;Config register CONFIG7H @ 0x30000D
  7711                           ;	Boot Block Table Read Protection bit
  7712                           ;	EBTRB = OFF, Boot block (000000-0007FFh) is not protected from table reads executed in
      +                           other blocks
  7713  30000D                     	org	3145741
  7714  30000D  40                 	db	64
  7715                           tosu	equ	0xFFF
  7716                           tosh	equ	0xFFE
  7717                           tosl	equ	0xFFD
  7718                           stkptr	equ	0xFFC
  7719                           pclatu	equ	0xFFB
  7720                           pclath	equ	0xFFA
  7721                           pcl	equ	0xFF9
  7722                           tblptru	equ	0xFF8
  7723                           tblptrh	equ	0xFF7
  7724                           tblptrl	equ	0xFF6
  7725                           tablat	equ	0xFF5
  7726                           prodh	equ	0xFF4
  7727                           prodl	equ	0xFF3
  7728                           indf0	equ	0xFEF
  7729                           postinc0	equ	0xFEE
  7730                           postdec0	equ	0xFED
  7731                           preinc0	equ	0xFEC
  7732                           plusw0	equ	0xFEB
  7733                           fsr0h	equ	0xFEA
  7734                           fsr0l	equ	0xFE9
  7735                           wreg	equ	0xFE8
  7736                           indf1	equ	0xFE7
  7737                           postinc1	equ	0xFE6
  7738                           postdec1	equ	0xFE5
  7739                           preinc1	equ	0xFE4
  7740                           plusw1	equ	0xFE3
  7741                           fsr1h	equ	0xFE2
  7742                           fsr1l	equ	0xFE1
  7743                           bsr	equ	0xFE0
  7744                           indf2	equ	0xFDF
  7745                           postinc2	equ	0xFDE
  7746                           postdec2	equ	0xFDD
  7747                           preinc2	equ	0xFDC
  7748                           plusw2	equ	0xFDB
  7749                           fsr2h	equ	0xFDA
  7750                           fsr2l	equ	0xFD9
  7751                           status	equ	0xFD8

Data Sizes:
    Strings     3
    Constant    0
    Data        534
    BSS         92
    Persistent  0
    Stack       0

Auto Spaces:
    Space          Size  Autos    Used
    COMRAM           95     93      95
    BANK0           160     19     115
    BANK1           256      0       0
    BANK2           256      0       0
    BANK3           256      0       0
    BANK4           256      0       0
    BANK5           256      0       0
    BANK6           256      0       0
    BANK7           256      0       0

Pointer List with Targets:

    strlen@s	PTR const unsigned char  size(2) Largest target is 32
		 -> dbuf(BANK0[32]), 

    strlen@a	PTR const unsigned char  size(2) Largest target is 32
		 -> dbuf(BANK0[32]), 

    fputs@s	PTR const unsigned char  size(2) Largest target is 32
		 -> dbuf(BANK0[32]), 

    fputs@fp	PTR struct _IO_FILE size(2) Largest target is 7
		 -> sprintf@f(BANK0[6]), 

    fputc@fp.buffer	PTR unsigned char  size(2) Largest target is 23
		 -> buffer1(BANK0[23]), 

    fputc@fp	PTR struct _IO_FILE size(2) Largest target is 7
		 -> sprintf@f(BANK0[6]), 

    vfprintf@ap	PTR PTR void  size(2) Largest target is 2
		 -> sprintf@ap(BANK0[2]), 

    vfprintf@fp	PTR struct _IO_FILE size(2) Largest target is 7
		 -> sprintf@f(BANK0[6]), 

    vfprintf@fmt	PTR const unsigned char  size(2) Largest target is 3
		 -> STR_4(CODE[3]), STR_3(CODE[3]), STR_2(CODE[3]), STR_1(CODE[3]), 

    vfprintf@cfmt	PTR unsigned char  size(2) Largest target is 3
		 -> STR_4(CODE[3]), STR_3(CODE[3]), STR_2(CODE[3]), STR_1(CODE[3]), 

    vfpfcnvrt@fp	PTR struct _IO_FILE size(2) Largest target is 7
		 -> sprintf@f(BANK0[6]), 

    vfpfcnvrt@ap	PTR PTR void  size(2) Largest target is 2
		 -> sprintf@ap(BANK0[2]), 

    vfpfcnvrt@fmt	PTR PTR unsigned char  size(2) Largest target is 2
		 -> vfprintf@cfmt(COMRAM[2]), 

    dtoa@fp	PTR struct _IO_FILE size(2) Largest target is 7
		 -> sprintf@f(BANK0[6]), 

    pad@fp	PTR struct _IO_FILE size(2) Largest target is 7
		 -> sprintf@f(BANK0[6]), 

    pad@buf	PTR unsigned char  size(2) Largest target is 32
		 -> dbuf(BANK0[32]), 

    sprintf@fmt	PTR const unsigned char  size(2) Largest target is 3
		 -> STR_4(CODE[3]), STR_3(CODE[3]), STR_2(CODE[3]), STR_1(CODE[3]), 

    sprintf@s	PTR unsigned char  size(2) Largest target is 23
		 -> buffer1(BANK0[23]), 

    sprintf@ap	PTR void [1] size(2) Largest target is 2
		 -> ?_sprintf(COMRAM[2]), 

    S868_IO_FILE$buffer	PTR unsigned char  size(2) Largest target is 23
		 -> buffer1(BANK0[23]), 

    f.buffer	PTR unsigned char  size(2) Largest target is 23
		 -> buffer1(BANK0[23]), 

    LCD_Cadena@dato	PTR const unsigned char  size(2) Largest target is 23
		 -> buffer1(BANK0[23]), 


Critical Paths under _main in COMRAM

    _cancion1->_sprintf
    _tocar_nota->___fltol
    _sprintf->_vfprintf
    _vfprintf->_vfpfcnvrt
    _vfpfcnvrt->_dtoa
    _dtoa->_pad
    _pad->_fputs
    _fputs->_fputc
    _abs->___aomod
    _silencio->___fltol
    ___fltol->___fldiv
    ___flsub->___fldiv
    ___fldiv->___xxtofl
    _leerADC->___awdiv
    ___flmul->___wmul
    ___fleq->___wmul
    _LCD_XY->_leerADC
    _LCD_Cadena->_LCD_Data
    _P1->_LCD_Comando
    _P1->_LCD_Data
    _LCD_Init->_LCD_Comando

Critical Paths under _main in BANK0

    _main->_cancion1
    _cancion1->_sprintf

Critical Paths under _main in BANK1

    None.

Critical Paths under _main in BANK2

    None.

Critical Paths under _main in BANK3

    None.

Critical Paths under _main in BANK4

    None.

Critical Paths under _main in BANK5

    None.

Critical Paths under _main in BANK6

    None.

Critical Paths under _main in BANK7

    None.

Call Graph Tables:

 ---------------------------------------------------------------------------------
 (Depth) Function   	        Calls       Base Space   Used Autos Params    Refs
 ---------------------------------------------------------------------------------
 (0) _main                                                 5     0      5   31387
                                             14 BANK0      5     0      5
                           _LCD_Init
                                 _P1
                           _cancion1
                            _confADC
                             _confT0
 ---------------------------------------------------------------------------------
 (1) _confT0                                               0     0      0       0
 ---------------------------------------------------------------------------------
 (1) _confADC                                              0     0      0       0
 ---------------------------------------------------------------------------------
 (1) _cancion1                                             6     6      0   31255
                                              8 BANK0      6     6      0
                         _LCD_Cadena
                        _LCD_Comando
                           _LCD_Data
                             _LCD_XY
                             ___fleq
                            ___flmul
                            ___fltol
                             ___wmul
                            _leerADC
                           _silencio
                            _sprintf
                         _tocar_nota
 ---------------------------------------------------------------------------------
 (2) _tocar_nota                                          13     7      6    7092
                                             49 COMRAM    13     7      6
                            ___fldiv
                            ___flmul (ARG)
                            ___flsub
                            ___fltol
                             ___wmul (ARG)
                           ___xxtofl
 ---------------------------------------------------------------------------------
 (2) _sprintf                                             16    10      6    6912
                                             87 COMRAM     6     0      6
                                              0 BANK0      8     8      0
                            _leerADC (ARG)
                           _vfprintf
 ---------------------------------------------------------------------------------
 (3) _vfprintf                                             8     2      6    6105
                                             79 COMRAM     8     2      6
                          _vfpfcnvrt
 ---------------------------------------------------------------------------------
 (4) _vfpfcnvrt                                           42    36      6    5751
                                             63 COMRAM    16    10      6
                               _dtoa
                              _fputc
 ---------------------------------------------------------------------------------
 (5) _dtoa                                                36    26     10    4358
                                             27 COMRAM    36    26     10
                            ___aodiv
                            ___aomod
                                _abs
                                _pad
 ---------------------------------------------------------------------------------
 (6) _pad                                                 11     5      6    2709
                                             16 COMRAM    11     5      6
                              _fputc
                              _fputs
                             _strlen
 ---------------------------------------------------------------------------------
 (7) _strlen                                               4     2      2     166
                                              0 COMRAM     4     2      2
 ---------------------------------------------------------------------------------
 (7) _fputs                                                7     3      4    1235
                                              9 COMRAM     7     3      4
                              _fputc
 ---------------------------------------------------------------------------------
 (5) _fputc                                                9     5      4     834
                                              0 COMRAM     9     5      4
                              _putch
 ---------------------------------------------------------------------------------
 (6) _putch                                                1     1      0       0
 ---------------------------------------------------------------------------------
 (6) _abs                                                  4     2      2     142
                                             18 COMRAM     4     2      2
                            ___aomod (ARG)
 ---------------------------------------------------------------------------------
 (6) ___aomod                                             18     2     16     448
                                              0 COMRAM    18     2     16
 ---------------------------------------------------------------------------------
 (6) ___aodiv                                             26    10     16     452
                                              0 COMRAM    26    10     16
 ---------------------------------------------------------------------------------
 (2) _silencio                                            11     5      6    7092
                                             49 COMRAM    11     5      6
                            ___fldiv
                            ___flmul (ARG)
                            ___flsub
                            ___fltol
                             ___wmul (ARG)
                           ___xxtofl
 ---------------------------------------------------------------------------------
 (3) ___xxtofl                                            14    10      4     746
                                              0 COMRAM    14    10      4
 ---------------------------------------------------------------------------------
 (3) ___fltol                                             10     6      4     989
                                             39 COMRAM    10     6      4
                            ___fldiv (ARG)
                            ___flmul (ARG)
                             ___wmul (ARG)
                           ___xxtofl (ARG)
 ---------------------------------------------------------------------------------
 (3) ___flsub                                              8     0      8    2737
                                             39 COMRAM     8     0      8
                            ___fladd
                            ___fldiv (ARG)
 ---------------------------------------------------------------------------------
 (4) ___fladd                                             16     8      8    2262
                                              0 COMRAM    16     8      8
 ---------------------------------------------------------------------------------
 (3) ___fldiv                                             25    17      8    2159
                                             14 COMRAM    25    17      8
                           ___xxtofl (ARG)
 ---------------------------------------------------------------------------------
 (2) _leerADC                                             10     8      2    1128
                                              8 COMRAM    10     8      2
                            ___awdiv
 ---------------------------------------------------------------------------------
 (3) ___awdiv                                              8     4      4     452
                                              0 COMRAM     8     4      4
 ---------------------------------------------------------------------------------
 (2) ___wmul                                               6     2      4    2075
                                              0 COMRAM     6     2      4
 ---------------------------------------------------------------------------------
 (2) ___flmul                                             25    17      8    2200
                                              6 COMRAM    25    17      8
                             ___wmul (ARG)
 ---------------------------------------------------------------------------------
 (2) ___fleq                                              12     4      8     950
                                              6 COMRAM    12     4      8
                             ___wmul (ARG)
 ---------------------------------------------------------------------------------
 (2) _LCD_XY                                               4     0      4    1934
                                             18 COMRAM     4     0      4
                        _LCD_Comando
                            _leerADC (ARG)
 ---------------------------------------------------------------------------------
 (2) _LCD_Cadena                                           2     0      2     393
                                              1 COMRAM     2     0      2
                           _LCD_Data
 ---------------------------------------------------------------------------------
 (1) _P1                                                   0     0      0      88
                        _LCD_Comando
                           _LCD_Data
 ---------------------------------------------------------------------------------
 (2) _LCD_Data                                             1     1      0      44
                                              0 COMRAM     1     1      0
 ---------------------------------------------------------------------------------
 (1) _LCD_Init                                             1     1      0      44
                                              1 COMRAM     1     1      0
                        _LCD_Comando
 ---------------------------------------------------------------------------------
 (3) _LCD_Comando                                          1     1      0      44
                                              0 COMRAM     1     1      0
 ---------------------------------------------------------------------------------
 Estimated maximum stack depth 7
 ---------------------------------------------------------------------------------

 Call Graph Graphs:

 _main (ROOT)
   _LCD_Init
     _LCD_Comando
   _P1
     _LCD_Comando
     _LCD_Data
   _cancion1
     _LCD_Cadena
       _LCD_Data
     _LCD_Comando
     _LCD_Data
     _LCD_XY
       _LCD_Comando
       _leerADC (ARG)
         ___awdiv
     ___fleq
       ___wmul (ARG)
     ___flmul
       ___wmul (ARG)
     ___fltol
       ___fldiv (ARG)
         ___xxtofl (ARG)
       ___flmul (ARG)
       ___wmul (ARG)
       ___xxtofl (ARG)
     ___wmul
     _leerADC
     _silencio
       ___fldiv
       ___flmul (ARG)
       ___flsub (ARG)
         ___fladd
         ___fldiv (ARG)
       ___fltol (ARG)
       ___wmul (ARG)
       ___xxtofl (ARG)
     _sprintf
       _leerADC (ARG)
       _vfprintf (ARG)
         _vfpfcnvrt
           _dtoa
             ___aodiv
             ___aomod
             _abs
               ___aomod (ARG)
             _pad
               _fputc
                 _putch
               _fputs
                 _fputc
               _strlen
           _fputc
     _tocar_nota
       ___fldiv
       ___flmul (ARG)
       ___flsub (ARG)
       ___fltol (ARG)
       ___wmul (ARG)
       ___xxtofl (ARG)
   _confADC
   _confT0

 Address spaces:
Name               Size   Autos  Total    Cost      Usage
BIGRAM             7FF      0     210      21       25.8%
EEDATA             100      0       0       0        0.0%
BITBANK7           100      0       0      18        0.0%
BANK7              100      0       0      19        0.0%
BITBANK6           100      0       0      16        0.0%
BANK6              100      0       0      17        0.0%
BITBANK5           100      0       0      14        0.0%
BANK5              100      0       0      15        0.0%
BITBANK4           100      0       0      12        0.0%
BANK4              100      0       0      13        0.0%
BITBANK3           100      0       0      10        0.0%
BANK3              100      0       0      11        0.0%
BITBANK2           100      0       0       8        0.0%
BANK2              100      0       0       9        0.0%
BITBANK1           100      0       0       6        0.0%
BANK1              100      0       0       7        0.0%
BITBANK0            A0      0       0       4        0.0%
BANK0               A0     13      73       5       71.9%
BITCOMRAM           5F      0       0       0        0.0%
COMRAM              5F     5D      5F       1      100.0%
BITSFR               0      0       0     200        0.0%
SFR                  0      0       0     200        0.0%
STACK                0      0       0       2        0.0%
NULL                 0      0       0       0        0.0%
ABS                  0      0      D2      20        0.0%
DATA                 0      0     2E2       3        0.0%
CODE                 0      0       0       0        0.0%


Microchip Technology PIC18 Macro Assembler V2.32 build 20210201212658 
Symbol Table                                                                                   Wed Nov 17 02:30:21 2021

           ___fldiv@aexp 0027             ___fldiv@bexp 0026                        _a 007E  
                      _b 007C                        _f 0082                        _i 0080  
                      _k 00CF                        _l 00CD                        _s 007A  
           ___fldiv@sign 001F             ?_LCD_Comando 0001                       l20 319E  
                     l31 32A0                       l17 2DE4                       l25 3306  
                     l34 30FC                       _P1 2F44                       l97 2FE0  
                     _GO 007E11             ___awdiv@sign 0006      ___wmul@multiplicand 0003  
                    ?_P1 0001                      l101 24B0                      l111 2552  
                    l120 2694                      l104 24F0                      l121 26B4  
                    l106 24FE                      l123 26C2                      l115 2646  
                    l107 251E                      l131 337C                      l125 26E8  
                    l109 252C                      l134 2E54                      l118 2686  
                    l128 336A                      l137 2E98                      l155 0EE2  
                    l166 3354                      l280 2870                      l425 2F42  
                    l293 29D4                      l711 11EC                      l703 13A2  
                    l463 2ADA                      l720 12BC                      l721 12AA  
                    l397 2C68                      l821 2260                      l750 19C6  
                    l902 1E44                      l736 31E4                      l824 23BC  
                    l920 3260                      l761 1A84                      l753 198A  
                    l762 1A72                      l835 2354                      l923 3268  
                    l915 309C                      l780 1468                      l748 1B66  
                    l828 22F8                      l916 30A4                      l844 314E  
                    l909 2208                      l790 16C4                      l694 10D2  
                    l759 1A0C                      l695 10C0                      l935 2BA4  
                    l943 3228                      l871 2CAE                      l784 17CC  
                    l696 1086                      l952 32D6                      l946 3384  
                    l874 2CF0                      l882 1C08                      l787 165E  
                    l876 2D2A                      l884 1C10                      l797 178E  
                    l789 16D6                      _abs 322A                      _pad 2C6A  
                    _vel 00D1                      wreg 000FE8             ___flmul@aexp 0018  
           ___flmul@bexp 0019             ___flmul@sign 0013             ___flmul@temp 001E  
           ___flmul@prod 001A                     ??_P1 0002             ___fltol@exp1 0031  
                   ?_abs 0013                     l2030 3356                     l3000 2554  
                   l2200 32AE                     l2032 3360                     l3010 266A  
                   l3002 2638                     l2210 26EE                     l2202 32B2  
                   l2034 3368                     l3100 1504                     l3020 2E62  
                   l3012 2698                     l3004 2654                     l2220 274E  
                   l2212 26FC                     l2204 32CA                     l2300 2CCE  
                   l2036 336C                     l3110 154A                     l3102 1512  
                   l3022 2E74                     l3014 26C4                     l3006 2660  
                   l2230 2798                     l2222 2752                     l2214 271C  
                   l2310 322A                     l2302 2CD2                     l3030 3110  
                   l3200 2D3C                     l3120 15B8                     l3112 1564  
                   l3104 151E                     l3040 3330                     l3024 2E90  
                   l2400 0F64                     l3008 2668                     l3016 26CA  
                   l2240 2808                     l2232 27A6                     l2224 275E  
                   l2216 2720                     l2208 26EA                     l2312 3244  
                   l2304 2CFE                     l2320 1BD0                     l3032 3118  
                   l3210 2D56                     l3202 2D3E                     l3130 164E  
                   l3122 15E2                     l3114 1574                     l3106 152E  
                   l3050 13BE                     l3042 334C                     l3018 2DE6  
                   l2410 0F9A                     l2402 0F6A                     l2242 281A  
                   l2234 27B8                     l2226 277C                     l2218 272E  
                   l2306 2D12                     l2330 1C2A                     l2322 1BE0  
                   l2314 1B68                     l3034 3120                     l3220 2D82  
                   l3212 2D66                     l3204 2D40                     l3140 168E  
                   l3132 165C                     l3124 1618                     l3116 1590  
                   l3108 153A                     l3060 13F6                     l3052 13C0  
                   l2500 1160                     l2420 0FD6                     l2412 0FAA  
                   l2404 0F78                     l2236 27E6                     l2228 2784  
                   l2244 2820                     l2260 28A8                     l2252 2872  
                   l2180 2B00                     l2340 1C54                     l2332 1C38  
                   l2324 1BE2                     l2316 1B88                     l3036 313C  
                   l3028 30FE                     l3300 0A9E                     l3230 2DA6  
                   l3222 2D8A                     l3214 2D6C                     l3206 2D42  
                   l3150 1700                     l3142 16BC                     l3134 166E  
                   l3126 1626                     l3118 159C                     l3070 1422  
                   l3062 1406                     l3054 13D0                     l3046 13A4  
                   l2502 1186                     l2510 11DC                     l2430 0FF4  
                   l2422 0FE4                     l2414 0FAC                     l2406 0F7A  
                   l2246 2830                     l2238 2806                     l2270 2910  
                   l2262 28B6                     l2254 2876                     l2182 2B0A  
                   l2190 31E6                     l2350 1D60                     l2342 1CD6  
                   l2334 1C3E                     l2326 1BFC                     l2318 1BB0  
                   l3310 0B4C                     l3302 0AFE                     l3240 2DC8  
                   l3232 2DAC                     l3224 2D90                     l3216 2D74  
                   l3208 2D50                     l3160 1776                     l3152 172A  
                   l3136 167C                     l3128 1644                     l3080 1478  
                   l3072 1432                     l3064 140C                     l3056 13E0  
                   l3048 13B0                     l2520 1230                     l2512 1202  
                   l2504 11BA                     l2440 1008                     l2432 0FF8  
                   l2424 0FE8                     l2408 0F8A                     l2416 0FB4  
                   l2248 2850                     l2272 291E                     l2280 2984  
                   l2264 28D6                     l2256 2884                     l2184 2B28  
                   l2176 2ADC                     l2192 31F2                     l2360 1DD2  
                   l2352 1D7E                     l2344 1CDC                     l2336 1C46  
                   l2328 1C18                     l2600 2198                     l3320 0B96  
                   l3312 0B50                     l3304 0B3A                     l3242 2DD0  
                   l3234 2DB4                     l3226 2D98                     l3218 2D7A  
                   l3250 2F44                     l3162 1792                     l3170 17B8  
                   l3146 16E6                     l3154 172E                     l3138 1680  
                   l3090 14B2                     l3082 1488                     l3074 1442  
                   l3066 1412                     l3058 13F0                     l2530 125A  
                   l2522 123E                     l2514 1212                     l2506 11BC  
                   l2450 101C                     l2442 100C                     l2434 0FFC  
                   l2426 0FEC                     l2418 0FC4                     l2282 2994  
                   l2274 294C                     l2266 28F4                     l2258 28A4  
                   l2186 2B5E                     l2178 2AEE                     l2194 3204  
                   l2290 2C78                     l2370 1E0C                     l2362 1DE0  
                   l2354 1D98                     l2346 1CE2                     l2338 1C4E  
                   l2602 21AC                     l3330 0C40                     l3322 0BA6  
                   l3314 0B64                     l3306 0B40                     l2620 3152  
                   l3244 2DD8                     l3236 2DBA                     l3228 2D9E  
                   l3180 2ED8                     l3172 17BC                     l3164 17A2  
                   l3156 1748                     l3148 16F2                     l3092 14C8  
                   l3076 1452                     l3068 1420                     l2700 183A  
                   l2540 128C                     l2532 126A                     l2524 1240  
                   l2508 11CC                     l2460 106E                     l2452 1020  
                   l2444 1010                     l2436 1000                     l2428 0FF0  
                   l2380 0EFE                     l2284 29B4                     l2276 296C  
                   l2268 28FC                     l2196 3208                     l2292 2C8C  
                   l2364 1DE6                     l2372 1E1C                     l2356 1DB2  
                   l2348 1D46                     l2612 21D2                     l3340 0CE0  
                   l3332 0C60                     l3324 0BF8                     l3308 0B46  
                   l3260 082C                     l3316 0B6C                     l3252 0806  
                   l2630 3172                     l2622 3164                     l3246 2DDE  
                   l3238 2DC2                     l3182 2F06                     l3166 17B0  
                   l3158 175C                     l3094 14D4                     l3086 149C  
                   l3078 1458                     l2710 1870                     l2702 1840  
                   l2550 12E6                     l2542 12A2                     l2526 124E  
                   l2518 1226                     l2534 126C                     l2470 10B2  
                   l2462 107E                     l2446 1014                     l2438 1004  
                   l2454 1024                     l2390 0F32                     l2382 0F00  
                   l2278 297E                     l2198 32A2                     l2294 2C9A  
                   l2366 1DF8                     l2358 1DC0                     l2614 21F6  
                   l2606 21B8                     l3350 0DBA                     l3334 0C66  
                   l3326 0C0C                     l3342 0D20                     l3318 0B7A  
                   l3270 08D8                     l3262 083A                     l2640 3198  
                   l2632 317A                     l2624 3166                     l3192 2D2C  
                   l3184 2F16                     l3176 2E9A                     l3168 17B2  
                   l3096 14EC                     l3088 14A8                     l2800 1B26  
                   l2720 18B0                     l2712 1880                     l2704 184E  
                   l2560 1362                     l2552 1320                     l2528 1256  
                   l2536 127A                     l2472 10B4                     l2464 1094  
                   l2456 1028                     l2448 1018                     l2384 0F10  
                   l2392 0F3A                     l2376 0EE4                     l2296 2CA6  
                   l2288 2C6A                     l2368 1E04                     l2608 21C6  
                   l3360 0E5A                     l3352 0DDA                     l3344 0D72  
                   l3336 0C7A                     l3328 0C34                     l3280 0924  
                   l3272 08E4                     l3264 084A                     l2634 3186  
                   l2626 3168                     l3194 2D36                     l2650 30B8  
                   l3186 2F3A                     l3178 2EC8                     l3098 14F8  
                   l2810 1B5C                     l2802 1B42                     l2722 18C0  
                   l2730 18E0                     l2714 1882                     l2706 1850  
                   l2570 1382                     l2562 1366                     l2546 12CC  
                   l2554 1322                     l2538 127E                     l2490 113C  
                   l2482 1104                     l2474 10BE                     l2466 10A0  
                   l2458 1052                     l2394 0F4A                     l2386 0F20  
                   l2378 0EF0                     l2298 2CBA                     l3370 0EAC  
                   l3354 0DE0                     l3346 0D86                     l3362 0E96  
                   l3338 0C80                     l3290 0A52                     l3282 0984  
                   l3274 0904                     l3266 089C                     l3258 0810  
                   l2636 318E                     l2628 3170                     l3196 2D38  
                   l2660 30D0                     l2652 30C2                     l2644 30A8  
                   l3188 2F40                     l2804 1B46                     l2740 191E  
                   l2732 18F0                     l2724 18C8                     l2708 1860  
                   l2716 188A                     l2572 1390                     l2564 1374  
                   l2556 1332                     l2548 12D8                     l2492 1140  
                   l2484 1114                     l2476 10E0                     l2468 10A4  
                   l2396 0F50                     l2388 0F30                     l2820 31B0  
                   l2900 2A8E                     l2580 207A                     l3372 0EBE  
                   l3364 0E9C                     l3356 0DF4                     l3348 0DAE  
                   l3292 0A5E                     l3276 090A                     l3268 08B0  
                   l3284 09C4                     l3380 330C                     l2638 3190  
                   l3198 2D3A                     l2670 30EC                     l2662 30D8  
                   l2654 30C4                     l2646 30B0                     l2830 2BC0  
                   l2806 1B54                     l2750 1966                     l2742 192E  
                   l2734 18F0                     l2726 18CC                     l2718 189A  
                   l2574 1392                     l2566 137A                     l2558 1342  
                   l2494 114E                     l2486 1122                     l2478 10F0  
                   l2398 0F62                     l2902 2A9A                     l2590 20E6  
                   l2582 2088                     l3366 0EA4                     l3358 0DFA  
                   l3374 0EC2                     l3294 0A7E                     l3286 0A16  
                   l3278 091E                     l3382 3310                     l2672 30EE  
                   l2664 30DA                     l2656 30C6                     l2648 30B4  
                   l2840 2BE6                     l2832 2BC4                     l2824 2BA6  
                   l2808 1B5A                     l2760 19B4                     l2752 197A  
                   l2744 193E                     l2680 17CE                     l2568 137C  
                   l2496 1150                     l2488 1130                     l2904 2AAA  
                   l2920 2286                     l2912 220C                     l2592 212E  
                   l2584 209A                     l3376 0EC6                     l3368 0EA8  
                   l3296 0A84                     l3288 0A2A                     l3384 3314  
                   l2674 30F6                     l2666 30DE                     l2658 30CE  
                   l2850 2C1C                     l2842 2BF8                     l2834 2BD2  
                   l2826 2BAA                     l2770 19FC                     l2762 19C4  
                   l2754 1988                     l2746 194E                     l2738 1904  
                   l2690 180A                     l2682 17DA                     l2498 115A  
                   l2818 31A0                     l2906 2ABA                     l2930 22E0  
                   l2914 221C                     l2586 209E                     l2578 2056  
                   l3298 0A98                     l3386 3318                     l3378 3308  
                   l2676 30F8                     l2668 30E4                     l2852 2C32  
                   l2844 2C00                     l2860 2C48                     l2836 2BDA  
                   l2828 2BB8                     l2780 1A3C                     l2772 1A0A  
                   l2764 19D6                     l2756 1994                     l2748 1956  
                   l2692 181A                     l2684 17E8                     l2908 2ACA  
                   l2940 2344                     l2932 22E2                     l2924 229A  
                   l2916 222A                     l2596 2166                     l2588 20C2  
                   l3388 3324                     l2862 2C58                     l2854 2C3A  
                   l2846 2C08                     l2838 2BDE                     l2790 1AAE  
                   l2782 1A6A                     l2766 19EC                     l2774 1A1C  
                   l2758 19B2                     l2694 181C                     l2686 17EA  
                   l2870 29EC                     l2950 239C                     l2942 2362  
                   l2934 22EE                     l2926 22A2                     l2918 2270  
                   l2598 218A                     ?_pad 0011                     l2864 2C60  
                   l2856 2C3C                     l2848 2C16                     l2792 1AD8  
                   l2776 1A2A                     l2768 19F2                     l2688 17FA  
                   l2696 1824                     l2880 2A3C                     l2952 23AA  
                   l2944 2364                     l2936 232A                     l2928 22AE  
                   l2960 304C                     l2970 32FE                     l2858 2C42  
                   l2786 1A94                     l2794 1ADC                     l2778 1A2E  
                   l2698 1834                     l2890 2A66                     l2882 2A40  
                   l2874 2A00                     l2954 23AC                     l2946 2368  
                   l2938 2336                     l2962 305A                     l2980 3288  
                   l2972 326A                     l2796 1AF6                     l2788 1AA0  
                   l2892 2A70                     l2884 2A4E                     l2876 2A2A  
                   l2868 29D6                     l2948 238C                     l2964 3080  
                   l2974 326E                     l2966 32D8                     l2798 1B0C  
                   l2894 2A7A                     l2878 2A2C                     l2958 3044  
                   l2990 24D2                     l2982 23BE                     l2976 3276  
                   l2968 32F2                     l2992 24D4                     l2984 24A2  
                   l2978 3284                     l2994 2502                     l2986 24BE  
                   l2996 252E                     l2988 24CA                     l2998 2534  
                   _ADON 007E10                     STR_1 0801                     STR_2 0801  
                   STR_3 0801                     STR_4 0801                     u2000 2994  
                   u2001 2990                     u2010 2C78                     u2011 2C74  
                   u2020 2C9A                     u2100 1BFC                     u2021 2C96  
                   u2101 1BF8                     u2030 2CF0                     u2110 1C2A  
                   u2031 2CEC                     u2111 1C26                     u3000 221C  
                   u2040 2CFE                     u2200 1DF8                     u2120 1C38  
                   u3001 2218                     u2041 2CFA                     u2201 1DF4  
                   u2121 1C34                     u2210 0EFE                     u3010 222A  
                   u2050 3244                     u2130 1D60                     u2211 0EFA  
                   u3011 2226                     u2051 3240                     u2131 1D5C  
                   u2300 1052                     u2220 0F10                     u3020 2286  
                   u2140 1D7E                     u2060 1B98                     u3100 309C  
                   u2301 104E                     u2221 0F0C                     u3021 2282  
                   u2141 1D7A                     u2061 1B92                     u3101 3098  
                   u3110 32F2                     u2310 106A                     u2230 0F20  
                   u3030 22DC                     u2150 1D98                     u2070 1B9A  
                   u3111 32EE                     u2311 1064                     u2231 0F1C  
                   u3031 22D8                     u2151 1D94                     u3120 32A0  
                   u2400 114E                     u2320 106C                     u2240 0F62  
                   u3040 2326                     u3200 26E8                     u2160 1DB2  
                   u2080 1BB0                     u3121 329C                     u2401 114A  
                   u2241 0F5E                     u3041 2322                     u3201 26E4  
                   u2161 1DAE                     u2081 1BAC                     u3210 2E10  
                   u2410 1186                     u2330 1094                     u2250 0F78  
                   u3050 2344                     u2170 1DC0                     u2090 1BE0  
                   u3130 24BE                     u3211 2E08                     u2411 1182  
                   u2331 1090                     u2251 0F74                     u3051 2340  
                   u2171 1DBC                     u2091 1BDC                     u3131 24BA  
                   u3300 13E0                     u2500 12A2                     u2420 11CC  
                   u2340 10B2                     u2260 0F8A                     u3060 2354  
                   u2180 1DD2                     u3140 24FE                     u3301 13DC  
                   u2501 129E                     u2421 11C8                     u2341 10AE  
                   u2261 0F86                     u3061 2350                     u2181 1DCE  
                   u3141 24FA                     u3310 1420                     u2510 12B8  
                   u2430 1202                     u2350 10D2                     u2270 0F9A  
                   u3070 2362                     u2190 1DE0                     u3150 252C  
                   u3311 141C                     u2511 12B4                     u2431 11FE  
                   u2351 10CE                     u2271 0F96                     u3071 235E  
                   u2191 1DDC                     u3151 2528                     u3400 16BC  
                   u3320 1432                     u3240 2E38                     u2520 12CC  
                   u2440 1212                     u2360 10E0                     u2280 0FD6  
                   u3080 239C                     u2600 207A                     u3160 2552  
                   u3401 16B8                     u3321 142E                     u3241 2E30  
                   u2521 12C8                     u2441 120E                     u2361 10DC  
                   u2281 0FD2                     u3081 2398                     u2601 2076  
                   u3161 254E                     u3410 16D2                     u3330 1442  
                   u3234 2E20                     u2530 12E6                     u2450 123E  
                   u2370 10F0                     u2290 0FE4                     u3090 23AA  
                   u3170 2654                     u2610 20C2                     u3411 16CE  
                   u3331 143E                     u3235 2E1C                     u2531 12E2  
                   u2451 123A                     u2371 10EC                     u2291 0FE0  
                   u3091 23A6                     u3171 2650                     u2611 20BE  
                   u3420 16E6                     u3340 1478                     u3228 2E12  
                   u2700 18B0                     u2540 1320                     u2460 124E  
                   u2380 1122                     u3180 2694                     u1820 2AEE  
                   u2620 20E6                     u3500 082C                     u3421 16E2  
                   u3341 1474                     u2701 18AC                     u2541 131C  
                   u2461 124A                     u2381 111E                     u3181 2690  
                   u1901 2758                     u1821 2AEA                     u2621 20E2  
                   u3501 0828                     u3430 1700                     u3350 1488  
                   u3270 2E62                     u2710 18F0                     u2550 1332  
                   u2470 126A                     u2390 1130                     u3190 26C2  
                   u1910 277C                     u1830 2B00                     u2630 218A  
                   u3510 083A                     u3431 16FC                     u3351 1484  
                   u3271 2E5E                     u2711 18EC                     u2551 132E  
                   u2471 1266                     u2391 112C                     u3191 26BE  
                   u1911 2778                     u1831 2AFC                     u2631 2186  
                   u3511 0836                     u3440 1748                     u3360 1602  
                   u3280 13BE                     u3264 2E48                     u2800 1A6A  
                   u2720 1966                     u2640 17E8                     u2560 1342  
                   u2480 127A                     u1920 27A6                     u1840 2B28  
                   u3600 0D72                     u3520 084A                     u3441 1744  
                   u3281 13BA                     u3265 2E44                     u2801 1A66  
                   u2721 1962                     u2641 17E4                     u2561 133E  
                   u2481 1276                     u1921 27A2                     u1841 2B24  
                   u3601 0D6E                     u3521 0846                     u3450 1776  
                   u3370 165C                     u3290 13D0                     u3258 2E3A  
                   u2810 1A80                     u2730 1988                     u2650 17FA  
                   u2570 1362                     u2490 128C                     u1930 27E6  
                   u1850 2B5E                     u3610 0EBE                     u3530 089C  
                   u3451 1772                     u3371 1658                     u3291 13CC  
                   u2811 1A7C                     u2731 1984                     u2651 17F6  
                   u2571 135E                     u2491 1288                     u1931 27E2  
                   u1851 2B5A                     u3611 0EBA                     u3531 0898  
                   u3460 17B0                     u3380 167C                     u2900 2C16  
                   u2820 1A94                     u2740 19B2                     u2660 180A  
                   u2580 1374                     u1940 2830                     u1860 3228  
                   u3620 0EE2                     u3540 0A16                     u3461 17AC  
                   u3381 1678                     u3365 15F8                     u2901 2C12  
                   u2821 1A90                     u2741 19AE                     u2661 1806  
                   u2581 1370                     u1941 282C                     u1861 3224  
                   u3621 0EDE                     u3541 0A12                     u3470 2EC8  
                   u3390 168E                     u2910 2C32                     u2830 1AAE  
                   u2750 19D6                     u2670 184E                     u2590 1390  
                   u1950 2884                     u1870 32CA                     u3550 0B64  
                   u3471 2EC4                     u3391 168A                     u2911 2C2E  
                   u2831 1AAA                     u2751 19D2                     u2671 184A  
                   u2591 138C                     u1951 2880                     u1871 32C6  
                   u3551 0B60                     u3480 2F06                     u2920 2C58  
                   u2840 1AF6                     u2760 19EC                     u2680 1860  
                   u1880 26FC                     u1960 28B6                     u3560 0B7A  
                   u3481 2F02                     u2921 2C54                     u2841 1AF2  
                   u2761 19E8                     u2681 185C                     u1881 26F8  
                   u1961 28B2                     u3561 0B76                     u3490 2F3A  
                   u2850 1B26                     u2770 1A0A                     u2690 1870  
                   u2930 29EC                     u1890 272E                     u1970 28F4  
                   u3570 0B96                     u3707 2D5C                     u3491 2F36  
                   u2851 1B22                     u2771 1A06                     u2691 186C  
                   u2931 29E8                     u1891 272A                     u1971 28F0  
                   u3571 0B92                     u2860 1B54                     u2780 1A2A  
                   u2940 2A20                     u1980 291E                     u3580 0BA6  
                   u3717 2D6E                     u3637 3270                     u2861 1B50  
                   u2781 1A26                     u1981 291A                     u3581 0BA2  
                   u2870 2BB8                     u2790 1A3C                     u2950 2A4E  
                   u1990 294C                     u3590 0BF8                     u3807 316A  
                   u3727 2D7C                     u3647 30AA                     u2871 2BB4  
                   u2791 1A38                     u2951 2A4A                     u1991 2948  
                   u3591 0BF4                     u2880 2BD2                     u2960 2A62  
                   u3817 3174                     u3737 2D84                     u3657 30C8  
                   u2881 2BCE                     u2961 2A5E                     u2945 2A16  
                   u2890 2BF8                     u2970 2A8A                     u3827 3188  
                   u3747 2D92                     u3667 30D2                     u2891 2BF4  
                   u2971 2A86                     u2980 2AAA                     u3837 3192  
                   u3757 2DA0                     u3677 30E6                     u2981 2AA6  
                   u2990 2ABA                     u3767 2DAE                     u3687 30F0  
                   u2991 2AB6                     u3777 2DBC                     u3697 2D48  
                   u3787 2DCA                     u3797 2DD2                     _TMR0 000FD6  
                   abs@a 0013                     _dbuf 0083                     _main 3308  
                   _dtoa 1B68                     _prec 0078                     _nout 0074  
                   pad@i 0018                     pad@p 0015                     fsr1h 000FE2  
                   fsr2h 000FDA                     indf2 000FDF                     fsr1l 000FE1  
                   pad@w 001A                     fsr2l 000FD9                     prodh 000FF4  
                   prodl 000FF3                     start 0000          ___fldiv@new_exp 0020  
           ___param_bank 000000                    ??_abs 0015                    ??_pad 0017  
       __end_of_LCD_Data 30FE         __end_of_LCD_Init 2DE6             LCD_Data@data 0001  
          ___fltol@sign1 0030          __end_of___aodiv 2872          __end_of___fladd 13A4  
                  ?_main 00C8                    ?_dtoa 001C          __end_of___aomod 29D6  
        __end_of___fldiv 1B68          __end_of___awdiv 2C6A          __end_of___flmul 17CE  
        __end_of___flsub 31E6          __end_of___fltol 2ADC          ___awdiv@divisor 0003  
        ___awdiv@counter 0005             vfpfcnvrt@fmt 0042                    _PORTD 000F83  
                  _TRISA 000F92                    _TRISB 000F93                    _TRISD 000F95  
        __end_of_confADC 337E          __end_of_leerADC 2E9A      __size_of_LCD_Cadena 0038  
                  _flags 005E                    _fputc 2ADC                    _fputs 31E6  
                  pad@fp 0011                    _width 0076                    _putch 3384  
                  dtoa@d 001E                    dtoa@i 003E                    dtoa@n 0036  
                  dtoa@p 0030                    dtoa@s 0034                    dtoa@w 0032  
                  tablat 000FF5                    status 000FD8          __end_of_sprintf 3150  
        __initialization 2FE2             __end_of_main 3330             __end_of_dtoa 1E46  
                 ??_main 005E                   ??_dtoa 0026            __activetblptr 000001  
                 _ADCON0 000FC2                   _ADCON1 000FC1                   _ADCON2 000FC0  
                 ?_fputc 0001                   ?_fputs 000A                   _ADRESH 000FC4  
                 _ADRESL 000FC3         ___awdiv@dividend 0001                   ?_putch 0001  
                 _LCD_XY 32D8          tocar_nota@tfrec 0034         __end_of_cancion1 0EE4  
       __end_of___xxtofl 23BE             vfprintf@cfmt 0056                   ___fleq 2E9A  
              ??___aodiv 0011                ??___fladd 0009                ??___aomod 0011  
                 ___wmul 3330                ??___fldiv 0017                ??___awdiv 0005  
              ??___flmul 000F                ??___flsub 0030                ??___fltol 002C  
                 _confT0 3356                   _buffer 0060                   clear_0 302C  
       ___awdiv@quotient 0007                ??_confADC 0001                   isa$std 000001  
                 pad@buf 0013     __size_of_LCD_Comando 0050                ??_leerADC 000B  
                 dtoa@fp 001C                   _strlen 32A2             __pdataBIGRAM 05F0  
                 fputc@c 0001                   fputs@c 000E                   fputs@i 000F  
                 fputs@s 000A         __end_of_silencio 26EA             __mediumconst 0000  
                 tblptrh 000FF7                   tblptrl 000FF6                   tblptru 000FF8  
                 putch@c 0001         __end_of_vfprintf 30A6                ??_sprintf 005E  
           ___xxtofl@arg 000B             ___xxtofl@exp 000A             ___xxtofl@val 0001  
             ___fleq@ff1 0007               ___fleq@ff2 000B                ?_LCD_Data 0001  
             __accesstop 0060  __end_of__initialization 3036                ?_LCD_Init 0001  
          ___rparam_used 000001               ___fltol@f1 0028             ??_LCD_Cadena 0004  
         __pcstackCOMRAM 0001             __pidataBANK0 337E            __end_of_fputc 2BA6  
          __end_of_fputs 322A            __end_of_putch 3386           LCD_Cadena@dato 0002  
             __end_of_P1 2FE2                  ??_fputc 0005                  ??_fputs 000E  
     __end_of_LCD_Cadena 32A2                  ??_putch 0001               __pbssBANK0 0060  
                ?_LCD_XY 0013                  LCD_XY@x 0013                  LCD_XY@y 0015  
             ??_LCD_Data 0001               ??_LCD_Init 0002                  ?___fleq 0007  
                ?___wmul 0001                  ?_confT0 0001                  ?_strlen 0001  
              ?_cancion1 0001                ?___xxtofl 0001       __size_of_vfpfcnvrt 01B4  
        __size_of_LCD_XY 0030                  __Hparam 0000            _cancion1$1193 00C2  
          _cancion1$1194 00C4                  __Lparam 0000                ?_silencio 0032  
        __size_of___fleq 00AA                  ___aodiv 26EA                  ___fladd 0EE4  
                ___aomod 2872                  ___fldiv 17CE                  ___awdiv 2BA6  
                ___flmul 13A4                  ___flsub 31A0                  ___fltol 29D6  
        __size_of___wmul 0026                ?_vfprintf 0050          __size_of_confT0 0016  
           __psmallconst 0800                  _cancion 05F0                  __pcinit 2FE2  
                _confADC 336C                  __ramtop 0800                  __ptext0 3308  
                __ptext1 3356                  __ptext2 336C                  __ptext3 0806  
                __ptext4 23BE                  __ptext5 30FE                  __ptext6 3044  
                __ptext7 2056                  __ptext8 1B68                  __ptext9 2C6A  
                _leerADC 2DE6                  _buffer1 00A3                _T0CONbits 000FD5  
        __size_of_strlen 0036               ??_cancion1 005E             __size_of_abs 0040  
           __size_of_pad 00C2               ??___xxtofl 0005       tocar_nota@duracion 0032  
         LCD_Comando@cmd 0001                  _sprintf 30FE     end_of_initialization 3036  
                fputc@fp 0003                  fputs@fp 000C               ??_silencio 0038  
      __end_of_vfpfcnvrt 220A                  postdec1 000FE5                  postdec2 000FDD  
                postinc0 000FEE                  postinc1 000FE6                  postinc2 000FDE  
             ??_vfprintf 0056                  strlen@a 0003                  strlen@s 0001  
              _PORTBbits 000F81               _tocar_nota 23BE              ___fladd@grs 0010  
          ___xxtofl@sign 0009                _TRISDbits 000F95              ___fldiv@grs 0022  
            ___fldiv@rem 001B              ___flmul@grs 0014           __end_of_LCD_XY 3308  
      __size_of_LCD_Data 0058          _tocar_nota$1191 0039        __size_of_LCD_Init 00BA  
          ??_LCD_Comando 0001           __end_of___fleq 2F44            __pidataBIGRAM 1E46  
            vfpfcnvrt@ap 0044              vfpfcnvrt@fp 0040              vfpfcnvrt@ll 0048  
         __end_of___wmul 3356           __end_of_confT0 336C           __end_of_strlen 32D8  
    start_initialization 2FE2              __end_of_abs 326A              __end_of_pad 2D2C  
               ??_LCD_XY 0017              vfprintf@fmt 0052                 ??___fleq 000F  
               ??___wmul 0005                 ??_confT0 0001              __pdataBANK0 00CD  
            ?_tocar_nota 0032                 ??_strlen 0003                ___fladd@a 0005  
              ___fladd@b 0001                ___fldiv@a 0013                ___fldiv@b 000F  
    __end_of_LCD_Comando 31A0         silencio@duracion 0032                ___flmul@a 000B  
              ___flmul@b 0007              __pbssCOMRAM 005E                ___flsub@a 002C  
              ___flsub@b 0028            __pcstackBANK0 00BA         ___aodiv@dividend 0001  
      __size_of_cancion1 06DE        __size_of___xxtofl 01B4                 ?___aodiv 0001  
               ?___fladd 0001                 ?___aomod 0001                 ?___fldiv 000F  
               ?___awdiv 0001         ___aodiv@quotient 0013                 ?___flmul 0007  
               ?___flsub 0028                 ?___fltol 0028        __size_of_silencio 0196  
               ?_confADC 0001                 ?_leerADC 0009        __size_of_vfprintf 0062  
            __smallconst 0800                cancion1@j 00C6                 ?_sprintf 0058  
         __size_of_fputc 00CA           __size_of_fputs 0044           __size_of_putch 0002  
            __size_of_P1 009E                 _LCD_Data 30A6                 _LCD_Init 2D2C  
         ___wmul@product 0005                 _LATDbits 000F8C      __size_of_tocar_nota 0196  
            _LCD_Comando 3150                _vfpfcnvrt 2056               _ADCON0bits 000FC2  
      ___wmul@multiplier 0001            _silencio$1192 0039                copy_data0 2FF6  
              copy_data1 301A                 __Hrparam 0000               vfprintf@ap 0054  
               __Lrparam 0000               vfprintf@fp 0050             __Lsmallconst 0800  
       __size_of___aodiv 0188         __size_of___fladd 04C0         __size_of___aomod 0164  
       __size_of___fldiv 039A         __size_of___awdiv 00C4         __size_of___flmul 042A  
       __size_of___flsub 0046         __size_of___fltol 0106               ?_vfpfcnvrt 0040  
        ___aodiv@divisor 0009          ___aodiv@counter 0011         __size_of_confADC 0012  
       __size_of_leerADC 00B4                 _cancion1 0806               sprintf@fmt 005A  
               ___xxtofl 220A            silencio@tfrec 0034                 _dtoa$941 002E  
               __ptext10 32A2                 __ptext11 31E6                 __ptext20 31A0  
               __ptext12 2ADC                 __ptext21 0EE4                 __ptext13 3384  
               __ptext30 2F44                 __ptext22 17CE                 __ptext14 322A  
               __ptext31 30A6                 __ptext23 2DE6                 __ptext15 2872  
               __ptext32 2D2C                 __ptext24 2BA6                 __ptext16 26EA  
               __ptext33 3150                 __ptext25 3330                 __ptext17 2554  
               __ptext26 13A4                 __ptext18 220A                 __ptext27 2E9A  
               __ptext19 29D6                 __ptext28 32D8                 __ptext29 326A  
       __size_of_sprintf 0052            __size_of_main 0028            __size_of_dtoa 02DE  
             _LCD_Cadena 326A                 _silencio 2554                 isa$xinst 000000  
    tocar_nota@duracion2 003D                 _vfprintf 3044                 main@argc 00C8  
               main@argv 00CA             ??_tocar_nota 0038         ___aomod@dividend 0001  
             _INTCONbits 000FF2                sprintf@ap 00BA       __end_of_tocar_nota 2554  
         leerADC@digital 000F          ___aomod@divisor 0009              ??_vfpfcnvrt 0046  
        ___aomod@counter 0011                 sprintf@f 00BC                 sprintf@s 0058  
          ___fladd@signs 000D             ___aodiv@sign 0012             leerADC@canal 0009  
           ___fladd@aexp 000E             leerADC@final 0011             ___fladd@bexp 000F  
           ___aomod@sign 0012              ?_LCD_Cadena 0002  
